Archive member included because of file (symbol)

/opt/ps3dev/psl1ght/ppu/lib/libtiny3d.a(matrix.o)
                              main.o (MatrixMultiply)
/opt/ps3dev/psl1ght/ppu/lib/libtiny3d.a(tiny3d.o)
                              main.o (tiny3d_Init)
/opt/ps3dev/psl1ght/ppu/lib/libtiny3d.a(vshader_text_normal.vcg.o)
                              /opt/ps3dev/psl1ght/ppu/lib/libtiny3d.a(tiny3d.o) (vshader_text_normal_bin)
/opt/ps3dev/psl1ght/ppu/lib/libtiny3d.a(realityVP.o)
                              /opt/ps3dev/psl1ght/ppu/lib/libtiny3d.a(tiny3d.o) (internal_reality_VertexProgramGetUCode)
/opt/ps3dev/psl1ght/ppu/lib/libtiny3d.a(rsxutil.o)
                              /opt/ps3dev/psl1ght/ppu/lib/libtiny3d.a(tiny3d.o) (waitFlip)
/opt/ps3dev/psl1ght/ppu/lib/libsysmodule.a(sprx.o)
                              main.o (sysModuleLoad)
/opt/ps3dev/psl1ght/ppu/lib/libgcm_sys.a(sprx.o)
                              /opt/ps3dev/psl1ght/ppu/lib/libtiny3d.a(rsxutil.o) (gcmSetFlip)
/opt/ps3dev/psl1ght/ppu/lib/librsx.a(init.o)
                              /opt/ps3dev/psl1ght/ppu/lib/libtiny3d.a(rsxutil.o) (rsxInit)
/opt/ps3dev/psl1ght/ppu/lib/librsx.a(buffer.o)
                              /opt/ps3dev/psl1ght/ppu/lib/libtiny3d.a(rsxutil.o) (rsxFlushBuffer)
/opt/ps3dev/psl1ght/ppu/lib/librsx.a(commands.o)
                              /opt/ps3dev/psl1ght/ppu/lib/libtiny3d.a(tiny3d.o) (rsxContextCallback)
/opt/ps3dev/psl1ght/ppu/lib/librsx.a(mm.o)
                              /opt/ps3dev/psl1ght/ppu/lib/librsx.a(init.o) (rsxHeapInit)
/opt/ps3dev/psl1ght/ppu/lib/librsx.a(vertex_program.o)
                              /opt/ps3dev/psl1ght/ppu/lib/librsx.a(commands.o) (rsxVertexProgramGetConsts)
/opt/ps3dev/psl1ght/ppu/lib/librsx.a(fragment_program.o)
                              /opt/ps3dev/psl1ght/ppu/lib/librsx.a(commands.o) (rsxFragmentProgramGetConsts)
/opt/ps3dev/psl1ght/ppu/lib/libsysutil.a(sprx.o)
                              /opt/ps3dev/psl1ght/ppu/lib/libtiny3d.a(rsxutil.o) (videoConfigure)
/opt/ps3dev/psl1ght/ppu/lib/libsysutil.a(sysutil_wrapper.o)
                              /opt/ps3dev/psl1ght/ppu/lib/libtiny3d.a(tiny3d.o) (sysUtilRegisterCallback)
/opt/ps3dev/psl1ght/ppu/lib/libio.a(sprx.o)
                              main.o (ioPadInit)
/opt/ps3dev/psl1ght/ppu/lib/libpngdec.a(pngdec.o)
                              main.o (pngLoadFromBuffer)
/opt/ps3dev/psl1ght/ppu/lib/libpngdec.a(sprx.o)
                              /opt/ps3dev/psl1ght/ppu/lib/libpngdec.a(pngdec.o) (pngDecDestroy)
/opt/ps3dev/ppu/lib/gcc/powerpc64-ps3-elf/4.7.0/../../../../powerpc64-ps3-elf/lib/libm.a(lib_a-sf_cos.o)
                              /opt/ps3dev/psl1ght/ppu/lib/libtiny3d.a(matrix.o) (cosf)
/opt/ps3dev/ppu/lib/gcc/powerpc64-ps3-elf/4.7.0/../../../../powerpc64-ps3-elf/lib/libm.a(lib_a-sf_sin.o)
                              /opt/ps3dev/psl1ght/ppu/lib/libtiny3d.a(matrix.o) (sinf)
/opt/ps3dev/ppu/lib/gcc/powerpc64-ps3-elf/4.7.0/../../../../powerpc64-ps3-elf/lib/libm.a(lib_a-sf_tan.o)
                              /opt/ps3dev/psl1ght/ppu/lib/libtiny3d.a(matrix.o) (tanf)
/opt/ps3dev/ppu/lib/gcc/powerpc64-ps3-elf/4.7.0/../../../../powerpc64-ps3-elf/lib/libm.a(lib_a-wf_sqrt.o)
                              /opt/ps3dev/psl1ght/ppu/lib/libtiny3d.a(matrix.o) (sqrtf)
/opt/ps3dev/ppu/lib/gcc/powerpc64-ps3-elf/4.7.0/../../../../powerpc64-ps3-elf/lib/libm.a(lib_a-ef_rem_pio2.o)
                              /opt/ps3dev/ppu/lib/gcc/powerpc64-ps3-elf/4.7.0/../../../../powerpc64-ps3-elf/lib/libm.a(lib_a-sf_cos.o) (__ieee754_rem_pio2f)
/opt/ps3dev/ppu/lib/gcc/powerpc64-ps3-elf/4.7.0/../../../../powerpc64-ps3-elf/lib/libm.a(lib_a-ef_sqrt.o)
                              /opt/ps3dev/ppu/lib/gcc/powerpc64-ps3-elf/4.7.0/../../../../powerpc64-ps3-elf/lib/libm.a(lib_a-wf_sqrt.o) (__ieee754_sqrtf)
/opt/ps3dev/ppu/lib/gcc/powerpc64-ps3-elf/4.7.0/../../../../powerpc64-ps3-elf/lib/libm.a(lib_a-kf_cos.o)
                              /opt/ps3dev/ppu/lib/gcc/powerpc64-ps3-elf/4.7.0/../../../../powerpc64-ps3-elf/lib/libm.a(lib_a-sf_cos.o) (__kernel_cosf)
/opt/ps3dev/ppu/lib/gcc/powerpc64-ps3-elf/4.7.0/../../../../powerpc64-ps3-elf/lib/libm.a(lib_a-kf_rem_pio2.o)
                              /opt/ps3dev/ppu/lib/gcc/powerpc64-ps3-elf/4.7.0/../../../../powerpc64-ps3-elf/lib/libm.a(lib_a-ef_rem_pio2.o) (__kernel_rem_pio2f)
/opt/ps3dev/ppu/lib/gcc/powerpc64-ps3-elf/4.7.0/../../../../powerpc64-ps3-elf/lib/libm.a(lib_a-kf_sin.o)
                              /opt/ps3dev/ppu/lib/gcc/powerpc64-ps3-elf/4.7.0/../../../../powerpc64-ps3-elf/lib/libm.a(lib_a-sf_cos.o) (__kernel_sinf)
/opt/ps3dev/ppu/lib/gcc/powerpc64-ps3-elf/4.7.0/../../../../powerpc64-ps3-elf/lib/libm.a(lib_a-kf_tan.o)
                              /opt/ps3dev/ppu/lib/gcc/powerpc64-ps3-elf/4.7.0/../../../../powerpc64-ps3-elf/lib/libm.a(lib_a-sf_tan.o) (__kernel_tanf)
/opt/ps3dev/ppu/lib/gcc/powerpc64-ps3-elf/4.7.0/../../../../powerpc64-ps3-elf/lib/libm.a(lib_a-sf_fabs.o)
                              /opt/ps3dev/ppu/lib/gcc/powerpc64-ps3-elf/4.7.0/../../../../powerpc64-ps3-elf/lib/libm.a(lib_a-ef_rem_pio2.o) (fabsf)
/opt/ps3dev/ppu/lib/gcc/powerpc64-ps3-elf/4.7.0/../../../../powerpc64-ps3-elf/lib/libm.a(lib_a-sf_floor.o)
                              /opt/ps3dev/ppu/lib/gcc/powerpc64-ps3-elf/4.7.0/../../../../powerpc64-ps3-elf/lib/libm.a(lib_a-kf_rem_pio2.o) (floorf)
/opt/ps3dev/ppu/lib/gcc/powerpc64-ps3-elf/4.7.0/../../../../powerpc64-ps3-elf/lib/libm.a(lib_a-sf_fpclassify.o)
                              /opt/ps3dev/ppu/lib/gcc/powerpc64-ps3-elf/4.7.0/../../../../powerpc64-ps3-elf/lib/libm.a(lib_a-wf_sqrt.o) (__fpclassifyf)
/opt/ps3dev/ppu/lib/gcc/powerpc64-ps3-elf/4.7.0/../../../../powerpc64-ps3-elf/lib/libm.a(lib_a-sf_scalbn.o)
                              /opt/ps3dev/ppu/lib/gcc/powerpc64-ps3-elf/4.7.0/../../../../powerpc64-ps3-elf/lib/libm.a(lib_a-kf_rem_pio2.o) (scalbnf)
/opt/ps3dev/ppu/lib/gcc/powerpc64-ps3-elf/4.7.0/../../../../powerpc64-ps3-elf/lib/libm.a(lib_a-s_lib_ver.o)
                              /opt/ps3dev/ppu/lib/gcc/powerpc64-ps3-elf/4.7.0/../../../../powerpc64-ps3-elf/lib/libm.a(lib_a-wf_sqrt.o) (__fdlib_version)
/opt/ps3dev/ppu/lib/gcc/powerpc64-ps3-elf/4.7.0/../../../../powerpc64-ps3-elf/lib/libm.a(lib_a-s_matherr.o)
                              /opt/ps3dev/ppu/lib/gcc/powerpc64-ps3-elf/4.7.0/../../../../powerpc64-ps3-elf/lib/libm.a(lib_a-wf_sqrt.o) (matherr)
/opt/ps3dev/ppu/lib/gcc/powerpc64-ps3-elf/4.7.0/../../../../powerpc64-ps3-elf/lib/libm.a(lib_a-sf_copysign.o)
                              /opt/ps3dev/ppu/lib/gcc/powerpc64-ps3-elf/4.7.0/../../../../powerpc64-ps3-elf/lib/libm.a(lib_a-sf_scalbn.o) (copysignf)
/opt/ps3dev/ppu/lib/gcc/powerpc64-ps3-elf/4.7.0/../../../../powerpc64-ps3-elf/lib/libsysbase.a(syscalls.o)
                              /opt/ps3dev/ppu/lib/gcc/powerpc64-ps3-elf/4.7.0/../../../../powerpc64-ps3-elf/lib/lv2-crt0.o (__syscalls)
/opt/ps3dev/ppu/lib/gcc/powerpc64-ps3-elf/4.7.0/../../../../powerpc64-ps3-elf/lib/libsysbase.a(sleep.o)
                              /opt/ps3dev/psl1ght/ppu/lib/libtiny3d.a(tiny3d.o) (usleep)
/opt/ps3dev/ppu/lib/gcc/powerpc64-ps3-elf/4.7.0/../../../../powerpc64-ps3-elf/lib/libc.a(lib_a-assert.o)
                              /opt/ps3dev/psl1ght/ppu/lib/libtiny3d.a(tiny3d.o) (__assert_func)
/opt/ps3dev/ppu/lib/gcc/powerpc64-ps3-elf/4.7.0/../../../../powerpc64-ps3-elf/lib/libc.a(lib_a-atexit.o)
                              main.o (atexit)
/opt/ps3dev/ppu/lib/gcc/powerpc64-ps3-elf/4.7.0/../../../../powerpc64-ps3-elf/lib/libc.a(lib_a-errno.o)
                              /opt/ps3dev/ppu/lib/gcc/powerpc64-ps3-elf/4.7.0/../../../../powerpc64-ps3-elf/lib/libm.a(lib_a-wf_sqrt.o) (__errno)
/opt/ps3dev/ppu/lib/gcc/powerpc64-ps3-elf/4.7.0/../../../../powerpc64-ps3-elf/lib/libc.a(lib_a-exit.o)
                              /opt/ps3dev/ppu/lib/gcc/powerpc64-ps3-elf/4.7.0/../../../../powerpc64-ps3-elf/lib/lv2-crt0.o (exit)
/opt/ps3dev/ppu/lib/gcc/powerpc64-ps3-elf/4.7.0/../../../../powerpc64-ps3-elf/lib/libc.a(lib_a-fiprintf.o)
                              /opt/ps3dev/ppu/lib/gcc/powerpc64-ps3-elf/4.7.0/../../../../powerpc64-ps3-elf/lib/libc.a(lib_a-assert.o) (fiprintf)
/opt/ps3dev/ppu/lib/gcc/powerpc64-ps3-elf/4.7.0/../../../../powerpc64-ps3-elf/lib/libc.a(lib_a-getreent.o)
                              /opt/ps3dev/ppu/lib/gcc/powerpc64-ps3-elf/4.7.0/../../../../powerpc64-ps3-elf/lib/libsysbase.a(sleep.o) (__getreent)
/opt/ps3dev/ppu/lib/gcc/powerpc64-ps3-elf/4.7.0/../../../../powerpc64-ps3-elf/lib/libc.a(lib_a-impure.o)
                              /opt/ps3dev/ppu/lib/gcc/powerpc64-ps3-elf/4.7.0/../../../../powerpc64-ps3-elf/lib/libc.a(lib_a-exit.o) (_global_impure_ptr)
/opt/ps3dev/ppu/lib/gcc/powerpc64-ps3-elf/4.7.0/../../../../powerpc64-ps3-elf/lib/libc.a(lib_a-malign.o)
                              /opt/ps3dev/psl1ght/ppu/lib/libtiny3d.a(rsxutil.o) (memalign)
/opt/ps3dev/ppu/lib/gcc/powerpc64-ps3-elf/4.7.0/../../../../powerpc64-ps3-elf/lib/libc.a(lib_a-malignr.o)
                              /opt/ps3dev/ppu/lib/gcc/powerpc64-ps3-elf/4.7.0/../../../../powerpc64-ps3-elf/lib/libc.a(lib_a-malign.o) (_memalign_r)
/opt/ps3dev/ppu/lib/gcc/powerpc64-ps3-elf/4.7.0/../../../../powerpc64-ps3-elf/lib/libc.a(lib_a-malloc.o)
                              /opt/ps3dev/psl1ght/ppu/lib/libtiny3d.a(tiny3d.o) (malloc)
/opt/ps3dev/ppu/lib/gcc/powerpc64-ps3-elf/4.7.0/../../../../powerpc64-ps3-elf/lib/libc.a(lib_a-mallocr.o)
                              /opt/ps3dev/ppu/lib/gcc/powerpc64-ps3-elf/4.7.0/../../../../powerpc64-ps3-elf/lib/libc.a(lib_a-malignr.o) (_malloc_r)
/opt/ps3dev/ppu/lib/gcc/powerpc64-ps3-elf/4.7.0/../../../../powerpc64-ps3-elf/lib/libc.a(lib_a-memcpy.o)
                              main.o (memcpy)
/opt/ps3dev/ppu/lib/gcc/powerpc64-ps3-elf/4.7.0/../../../../powerpc64-ps3-elf/lib/libc.a(lib_a-memset.o)
                              /opt/ps3dev/psl1ght/ppu/lib/libpngdec.a(pngdec.o) (memset)
/opt/ps3dev/ppu/lib/gcc/powerpc64-ps3-elf/4.7.0/../../../../powerpc64-ps3-elf/lib/libc.a(lib_a-mlock.o)
                              /opt/ps3dev/ppu/lib/gcc/powerpc64-ps3-elf/4.7.0/../../../../powerpc64-ps3-elf/lib/libc.a(lib_a-malignr.o) (__malloc_lock)
/opt/ps3dev/ppu/lib/gcc/powerpc64-ps3-elf/4.7.0/../../../../powerpc64-ps3-elf/lib/libc.a(lib_a-printf.o)
                              /opt/ps3dev/psl1ght/ppu/lib/libtiny3d.a(rsxutil.o) (printf)
/opt/ps3dev/ppu/lib/gcc/powerpc64-ps3-elf/4.7.0/../../../../powerpc64-ps3-elf/lib/libc.a(lib_a-rand.o)
                              main.o (rand)
/opt/ps3dev/ppu/lib/gcc/powerpc64-ps3-elf/4.7.0/../../../../powerpc64-ps3-elf/lib/libc.a(lib_a-strcasecmp.o)
                              /opt/ps3dev/psl1ght/ppu/lib/libtiny3d.a(realityVP.o) (strcasecmp)
/opt/ps3dev/ppu/lib/gcc/powerpc64-ps3-elf/4.7.0/../../../../powerpc64-ps3-elf/lib/libc.a(lib_a-vfiprintf.o)
                              /opt/ps3dev/ppu/lib/gcc/powerpc64-ps3-elf/4.7.0/../../../../powerpc64-ps3-elf/lib/libc.a(lib_a-fiprintf.o) (_vfiprintf_r)
/opt/ps3dev/ppu/lib/gcc/powerpc64-ps3-elf/4.7.0/../../../../powerpc64-ps3-elf/lib/libc.a(lib_a-vfprintf.o)
                              /opt/ps3dev/ppu/lib/gcc/powerpc64-ps3-elf/4.7.0/../../../../powerpc64-ps3-elf/lib/libc.a(lib_a-printf.o) (_vfprintf_r)
/opt/ps3dev/ppu/lib/gcc/powerpc64-ps3-elf/4.7.0/../../../../powerpc64-ps3-elf/lib/libc.a(lib_a-wsetup.o)
                              /opt/ps3dev/ppu/lib/gcc/powerpc64-ps3-elf/4.7.0/../../../../powerpc64-ps3-elf/lib/libc.a(lib_a-vfiprintf.o) (__swsetup_r)
/opt/ps3dev/ppu/lib/gcc/powerpc64-ps3-elf/4.7.0/../../../../powerpc64-ps3-elf/lib/libc.a(lib_a-abort.o)
                              /opt/ps3dev/ppu/lib/gcc/powerpc64-ps3-elf/4.7.0/../../../../powerpc64-ps3-elf/lib/libc.a(lib_a-assert.o) (abort)
/opt/ps3dev/ppu/lib/gcc/powerpc64-ps3-elf/4.7.0/../../../../powerpc64-ps3-elf/lib/libc.a(lib_a-__atexit.o)
                              /opt/ps3dev/ppu/lib/gcc/powerpc64-ps3-elf/4.7.0/../../../../powerpc64-ps3-elf/lib/libc.a(lib_a-atexit.o) (__register_exitproc)
/opt/ps3dev/ppu/lib/gcc/powerpc64-ps3-elf/4.7.0/../../../../powerpc64-ps3-elf/lib/libc.a(lib_a-__call_atexit.o)
                              /opt/ps3dev/ppu/lib/gcc/powerpc64-ps3-elf/4.7.0/../../../../powerpc64-ps3-elf/lib/libc.a(lib_a-exit.o) (__call_exitprocs)
/opt/ps3dev/ppu/lib/gcc/powerpc64-ps3-elf/4.7.0/../../../../powerpc64-ps3-elf/lib/libc.a(lib_a-ctype_.o)
                              /opt/ps3dev/ppu/lib/gcc/powerpc64-ps3-elf/4.7.0/../../../../powerpc64-ps3-elf/lib/libc.a(lib_a-strcasecmp.o) (__ctype_ptr__)
/opt/ps3dev/ppu/lib/gcc/powerpc64-ps3-elf/4.7.0/../../../../powerpc64-ps3-elf/lib/libc.a(lib_a-dtoa.o)
                              /opt/ps3dev/ppu/lib/gcc/powerpc64-ps3-elf/4.7.0/../../../../powerpc64-ps3-elf/lib/libc.a(lib_a-vfprintf.o) (_dtoa_r)
/opt/ps3dev/ppu/lib/gcc/powerpc64-ps3-elf/4.7.0/../../../../powerpc64-ps3-elf/lib/libc.a(lib_a-fflush.o)
                              /opt/ps3dev/ppu/lib/gcc/powerpc64-ps3-elf/4.7.0/../../../../powerpc64-ps3-elf/lib/libc.a(lib_a-vfiprintf.o) (_fflush_r)
/opt/ps3dev/ppu/lib/gcc/powerpc64-ps3-elf/4.7.0/../../../../powerpc64-ps3-elf/lib/libc.a(lib_a-findfp.o)
                              /opt/ps3dev/ppu/lib/gcc/powerpc64-ps3-elf/4.7.0/../../../../powerpc64-ps3-elf/lib/libc.a(lib_a-vfiprintf.o) (__sinit)
/opt/ps3dev/ppu/lib/gcc/powerpc64-ps3-elf/4.7.0/../../../../powerpc64-ps3-elf/lib/libc.a(lib_a-fputwc.o)
                              /opt/ps3dev/ppu/lib/gcc/powerpc64-ps3-elf/4.7.0/../../../../powerpc64-ps3-elf/lib/libc.a(lib_a-vfiprintf.o) (_fputwc_r)
/opt/ps3dev/ppu/lib/gcc/powerpc64-ps3-elf/4.7.0/../../../../powerpc64-ps3-elf/lib/libc.a(lib_a-freer.o)
                              /opt/ps3dev/ppu/lib/gcc/powerpc64-ps3-elf/4.7.0/../../../../powerpc64-ps3-elf/lib/libc.a(lib_a-malignr.o) (_free_r)
/opt/ps3dev/ppu/lib/gcc/powerpc64-ps3-elf/4.7.0/../../../../powerpc64-ps3-elf/lib/libc.a(lib_a-fvwrite.o)
                              /opt/ps3dev/ppu/lib/gcc/powerpc64-ps3-elf/4.7.0/../../../../powerpc64-ps3-elf/lib/libc.a(lib_a-vfiprintf.o) (__sfvwrite_r)
/opt/ps3dev/ppu/lib/gcc/powerpc64-ps3-elf/4.7.0/../../../../powerpc64-ps3-elf/lib/libc.a(lib_a-fwalk.o)
                              /opt/ps3dev/ppu/lib/gcc/powerpc64-ps3-elf/4.7.0/../../../../powerpc64-ps3-elf/lib/libc.a(lib_a-findfp.o) (_fwalk)
/opt/ps3dev/ppu/lib/gcc/powerpc64-ps3-elf/4.7.0/../../../../powerpc64-ps3-elf/lib/libc.a(lib_a-locale.o)
                              /opt/ps3dev/ppu/lib/gcc/powerpc64-ps3-elf/4.7.0/../../../../powerpc64-ps3-elf/lib/libc.a(lib_a-fputwc.o) (__locale_mb_cur_max)
/opt/ps3dev/ppu/lib/gcc/powerpc64-ps3-elf/4.7.0/../../../../powerpc64-ps3-elf/lib/libc.a(lib_a-lock_recursive.o)
                              /opt/ps3dev/ppu/lib/gcc/powerpc64-ps3-elf/4.7.0/../../../../powerpc64-ps3-elf/lib/libc.a(lib_a-vfiprintf.o) (__libc_lock_init_recursive)
/opt/ps3dev/ppu/lib/gcc/powerpc64-ps3-elf/4.7.0/../../../../powerpc64-ps3-elf/lib/libc.a(lib_a-makebuf.o)
                              /opt/ps3dev/ppu/lib/gcc/powerpc64-ps3-elf/4.7.0/../../../../powerpc64-ps3-elf/lib/libc.a(lib_a-wsetup.o) (__smakebuf_r)
/opt/ps3dev/ppu/lib/gcc/powerpc64-ps3-elf/4.7.0/../../../../powerpc64-ps3-elf/lib/libc.a(lib_a-memchr.o)
                              /opt/ps3dev/ppu/lib/gcc/powerpc64-ps3-elf/4.7.0/../../../../powerpc64-ps3-elf/lib/libc.a(lib_a-vfiprintf.o) (memchr)
/opt/ps3dev/ppu/lib/gcc/powerpc64-ps3-elf/4.7.0/../../../../powerpc64-ps3-elf/lib/libc.a(lib_a-memmove.o)
                              /opt/ps3dev/ppu/lib/gcc/powerpc64-ps3-elf/4.7.0/../../../../powerpc64-ps3-elf/lib/libc.a(lib_a-fvwrite.o) (memmove)
/opt/ps3dev/ppu/lib/gcc/powerpc64-ps3-elf/4.7.0/../../../../powerpc64-ps3-elf/lib/libc.a(lib_a-mprec.o)
                              /opt/ps3dev/ppu/lib/gcc/powerpc64-ps3-elf/4.7.0/../../../../powerpc64-ps3-elf/lib/libc.a(lib_a-dtoa.o) (_Balloc)
/opt/ps3dev/ppu/lib/gcc/powerpc64-ps3-elf/4.7.0/../../../../powerpc64-ps3-elf/lib/libc.a(lib_a-reallocr.o)
                              /opt/ps3dev/ppu/lib/gcc/powerpc64-ps3-elf/4.7.0/../../../../powerpc64-ps3-elf/lib/libc.a(lib_a-fvwrite.o) (_realloc_r)
/opt/ps3dev/ppu/lib/gcc/powerpc64-ps3-elf/4.7.0/../../../../powerpc64-ps3-elf/lib/libc.a(lib_a-s_fpclassify.o)
                              /opt/ps3dev/ppu/lib/gcc/powerpc64-ps3-elf/4.7.0/../../../../powerpc64-ps3-elf/lib/libc.a(lib_a-vfprintf.o) (__fpclassifyd)
/opt/ps3dev/ppu/lib/gcc/powerpc64-ps3-elf/4.7.0/../../../../powerpc64-ps3-elf/lib/libc.a(lib_a-signal.o)
                              /opt/ps3dev/ppu/lib/gcc/powerpc64-ps3-elf/4.7.0/../../../../powerpc64-ps3-elf/lib/libc.a(lib_a-abort.o) (raise)
/opt/ps3dev/ppu/lib/gcc/powerpc64-ps3-elf/4.7.0/../../../../powerpc64-ps3-elf/lib/libc.a(lib_a-stdio.o)
                              /opt/ps3dev/ppu/lib/gcc/powerpc64-ps3-elf/4.7.0/../../../../powerpc64-ps3-elf/lib/libc.a(lib_a-findfp.o) (__sread)
/opt/ps3dev/ppu/lib/gcc/powerpc64-ps3-elf/4.7.0/../../../../powerpc64-ps3-elf/lib/libc.a(lib_a-strcmp.o)
                              /opt/ps3dev/ppu/lib/gcc/powerpc64-ps3-elf/4.7.0/../../../../powerpc64-ps3-elf/lib/libc.a(lib_a-locale.o) (strcmp)
/opt/ps3dev/ppu/lib/gcc/powerpc64-ps3-elf/4.7.0/../../../../powerpc64-ps3-elf/lib/libc.a(lib_a-strlen.o)
                              /opt/ps3dev/ppu/lib/gcc/powerpc64-ps3-elf/4.7.0/../../../../powerpc64-ps3-elf/lib/libc.a(lib_a-vfiprintf.o) (strlen)
/opt/ps3dev/ppu/lib/gcc/powerpc64-ps3-elf/4.7.0/../../../../powerpc64-ps3-elf/lib/libc.a(lib_a-wbuf.o)
                              /opt/ps3dev/ppu/lib/gcc/powerpc64-ps3-elf/4.7.0/../../../../powerpc64-ps3-elf/lib/libc.a(lib_a-fputwc.o) (__swbuf_r)
/opt/ps3dev/ppu/lib/gcc/powerpc64-ps3-elf/4.7.0/../../../../powerpc64-ps3-elf/lib/libc.a(lib_a-wcrtomb.o)
                              /opt/ps3dev/ppu/lib/gcc/powerpc64-ps3-elf/4.7.0/../../../../powerpc64-ps3-elf/lib/libc.a(lib_a-fputwc.o) (_wcrtomb_r)
/opt/ps3dev/ppu/lib/gcc/powerpc64-ps3-elf/4.7.0/../../../../powerpc64-ps3-elf/lib/libc.a(lib_a-wctomb_r.o)
                              /opt/ps3dev/ppu/lib/gcc/powerpc64-ps3-elf/4.7.0/../../../../powerpc64-ps3-elf/lib/libc.a(lib_a-wcrtomb.o) (__wctomb)
/opt/ps3dev/ppu/lib/gcc/powerpc64-ps3-elf/4.7.0/../../../../powerpc64-ps3-elf/lib/libc.a(lib_a-callocr.o)
                              /opt/ps3dev/ppu/lib/gcc/powerpc64-ps3-elf/4.7.0/../../../../powerpc64-ps3-elf/lib/libc.a(lib_a-mprec.o) (_calloc_r)
/opt/ps3dev/ppu/lib/gcc/powerpc64-ps3-elf/4.7.0/../../../../powerpc64-ps3-elf/lib/libc.a(lib_a-fclose.o)
                              /opt/ps3dev/ppu/lib/gcc/powerpc64-ps3-elf/4.7.0/../../../../powerpc64-ps3-elf/lib/libc.a(lib_a-findfp.o) (fclose)
/opt/ps3dev/ppu/lib/gcc/powerpc64-ps3-elf/4.7.0/../../../../powerpc64-ps3-elf/lib/libc.a(lib_a-lock_internal.o)
                              /opt/ps3dev/ppu/lib/gcc/powerpc64-ps3-elf/4.7.0/../../../../powerpc64-ps3-elf/lib/libc.a(lib_a-lock_recursive.o) (__libc_auto_lock_allocate)
/opt/ps3dev/psl1ght/ppu/lib/librt.a(sbrk.o)
                              /opt/ps3dev/ppu/lib/gcc/powerpc64-ps3-elf/4.7.0/../../../../powerpc64-ps3-elf/lib/lv2-crt0.o (__librt_sbrk_r)
/opt/ps3dev/psl1ght/ppu/lib/librt.a(exit.o)
                              /opt/ps3dev/ppu/lib/gcc/powerpc64-ps3-elf/4.7.0/../../../../powerpc64-ps3-elf/lib/lv2-crt0.o (__librt_exit)
/opt/ps3dev/psl1ght/ppu/lib/librt.a(close.o)
                              /opt/ps3dev/ppu/lib/gcc/powerpc64-ps3-elf/4.7.0/../../../../powerpc64-ps3-elf/lib/lv2-crt0.o (__librt_close_r)
/opt/ps3dev/psl1ght/ppu/lib/librt.a(lseek.o)
                              /opt/ps3dev/ppu/lib/gcc/powerpc64-ps3-elf/4.7.0/../../../../powerpc64-ps3-elf/lib/lv2-crt0.o (__librt_lseek_r)
/opt/ps3dev/psl1ght/ppu/lib/librt.a(read.o)
                              /opt/ps3dev/ppu/lib/gcc/powerpc64-ps3-elf/4.7.0/../../../../powerpc64-ps3-elf/lib/lv2-crt0.o (__librt_read_r)
/opt/ps3dev/psl1ght/ppu/lib/librt.a(open.o)
                              /opt/ps3dev/ppu/lib/gcc/powerpc64-ps3-elf/4.7.0/../../../../powerpc64-ps3-elf/lib/lv2-crt0.o (__librt_open_r)
/opt/ps3dev/psl1ght/ppu/lib/librt.a(sleep.o)
                              /opt/ps3dev/ppu/lib/gcc/powerpc64-ps3-elf/4.7.0/../../../../powerpc64-ps3-elf/lib/lv2-crt0.o (__librt_usleep_r)
/opt/ps3dev/psl1ght/ppu/lib/librt.a(write.o)
                              /opt/ps3dev/ppu/lib/gcc/powerpc64-ps3-elf/4.7.0/../../../../powerpc64-ps3-elf/lib/lv2-crt0.o (__librt_write_r)
/opt/ps3dev/psl1ght/ppu/lib/librt.a(fstat.o)
                              /opt/ps3dev/ppu/lib/gcc/powerpc64-ps3-elf/4.7.0/../../../../powerpc64-ps3-elf/lib/lv2-crt0.o (__librt_fstat_r)
/opt/ps3dev/psl1ght/ppu/lib/librt.a(socket.o)
                              /opt/ps3dev/psl1ght/ppu/lib/librt.a(write.o) (send)
/opt/ps3dev/psl1ght/ppu/lib/librt.a(lock.o)
                              /opt/ps3dev/ppu/lib/gcc/powerpc64-ps3-elf/4.7.0/../../../../powerpc64-ps3-elf/lib/lv2-crt0.o (__librt_sys_lwmutex_create_r)
/opt/ps3dev/psl1ght/ppu/lib/librt.a(dirent.o)
                              /opt/ps3dev/ppu/lib/gcc/powerpc64-ps3-elf/4.7.0/../../../../powerpc64-ps3-elf/lib/lv2-crt0.o (__librt_opendir_r)
/opt/ps3dev/psl1ght/ppu/lib/librt.a(mkdir.o)
                              /opt/ps3dev/ppu/lib/gcc/powerpc64-ps3-elf/4.7.0/../../../../powerpc64-ps3-elf/lib/lv2-crt0.o (__librt_mkdir_r)
/opt/ps3dev/psl1ght/ppu/lib/librt.a(times.o)
                              /opt/ps3dev/ppu/lib/gcc/powerpc64-ps3-elf/4.7.0/../../../../powerpc64-ps3-elf/lib/lv2-crt0.o (__librt_times_r)
/opt/ps3dev/psl1ght/ppu/lib/librt.a(umask.o)
                              /opt/ps3dev/ppu/lib/gcc/powerpc64-ps3-elf/4.7.0/../../../../powerpc64-ps3-elf/lib/lv2-crt0.o (__librt_umask_r)
/opt/ps3dev/psl1ght/ppu/lib/librt.a(lv2errno.o)
                              /opt/ps3dev/psl1ght/ppu/lib/librt.a(socket.o) (lv2errno)
/opt/ps3dev/psl1ght/ppu/lib/librt.a(heap.o)
                              /opt/ps3dev/psl1ght/ppu/lib/librsx.a(mm.o) (heapInit)
/opt/ps3dev/psl1ght/ppu/lib/librt.a(chmod.o)
                              /opt/ps3dev/ppu/lib/gcc/powerpc64-ps3-elf/4.7.0/../../../../powerpc64-ps3-elf/lib/lv2-crt0.o (__librt_chmod_r)
/opt/ps3dev/psl1ght/ppu/lib/librt.a(rmdir.o)
                              /opt/ps3dev/ppu/lib/gcc/powerpc64-ps3-elf/4.7.0/../../../../powerpc64-ps3-elf/lib/lv2-crt0.o (__librt_rmdir_r)
/opt/ps3dev/psl1ght/ppu/lib/librt.a(isatty.o)
                              /opt/ps3dev/ppu/lib/gcc/powerpc64-ps3-elf/4.7.0/../../../../powerpc64-ps3-elf/lib/lv2-crt0.o (__librt_isatty_r)
/opt/ps3dev/psl1ght/ppu/lib/librt.a(gettod.o)
                              /opt/ps3dev/ppu/lib/gcc/powerpc64-ps3-elf/4.7.0/../../../../powerpc64-ps3-elf/lib/lv2-crt0.o (__librt_gettod_r)
/opt/ps3dev/psl1ght/ppu/lib/librt.a(settod.o)
                              /opt/ps3dev/ppu/lib/gcc/powerpc64-ps3-elf/4.7.0/../../../../powerpc64-ps3-elf/lib/lv2-crt0.o (__librt_settod_r)
/opt/ps3dev/psl1ght/ppu/lib/liblv2.a(sprx.o)
                              /opt/ps3dev/psl1ght/ppu/lib/librt.a(sbrk.o) (sysSpinlockInitialize)
/opt/ps3dev/ppu/lib/gcc/powerpc64-ps3-elf/4.7.0/../../../../powerpc64-ps3-elf/lib/libsysbase.a(close.o)
                              /opt/ps3dev/ppu/lib/gcc/powerpc64-ps3-elf/4.7.0/../../../../powerpc64-ps3-elf/lib/libc.a(lib_a-stdio.o) (_close_r)
/opt/ps3dev/ppu/lib/gcc/powerpc64-ps3-elf/4.7.0/../../../../powerpc64-ps3-elf/lib/libsysbase.a(sbrk.o)
                              /opt/ps3dev/ppu/lib/gcc/powerpc64-ps3-elf/4.7.0/../../../../powerpc64-ps3-elf/lib/libc.a(lib_a-mallocr.o) (_sbrk_r)
/opt/ps3dev/ppu/lib/gcc/powerpc64-ps3-elf/4.7.0/../../../../powerpc64-ps3-elf/lib/libsysbase.a(_exit.o)
                              /opt/ps3dev/ppu/lib/gcc/powerpc64-ps3-elf/4.7.0/../../../../powerpc64-ps3-elf/lib/libc.a(lib_a-exit.o) (_exit)
/opt/ps3dev/ppu/lib/gcc/powerpc64-ps3-elf/4.7.0/../../../../powerpc64-ps3-elf/lib/libsysbase.a(fstat.o)
                              /opt/ps3dev/ppu/lib/gcc/powerpc64-ps3-elf/4.7.0/../../../../powerpc64-ps3-elf/lib/libc.a(lib_a-makebuf.o) (_fstat_r)
/opt/ps3dev/ppu/lib/gcc/powerpc64-ps3-elf/4.7.0/../../../../powerpc64-ps3-elf/lib/libsysbase.a(isatty.o)
                              /opt/ps3dev/ppu/lib/gcc/powerpc64-ps3-elf/4.7.0/../../../../powerpc64-ps3-elf/lib/libc.a(lib_a-makebuf.o) (_isatty_r)
/opt/ps3dev/ppu/lib/gcc/powerpc64-ps3-elf/4.7.0/../../../../powerpc64-ps3-elf/lib/libsysbase.a(lseek.o)
                              /opt/ps3dev/ppu/lib/gcc/powerpc64-ps3-elf/4.7.0/../../../../powerpc64-ps3-elf/lib/libc.a(lib_a-stdio.o) (_lseek_r)
/opt/ps3dev/ppu/lib/gcc/powerpc64-ps3-elf/4.7.0/../../../../powerpc64-ps3-elf/lib/libsysbase.a(read.o)
                              /opt/ps3dev/ppu/lib/gcc/powerpc64-ps3-elf/4.7.0/../../../../powerpc64-ps3-elf/lib/libc.a(lib_a-stdio.o) (_read_r)
/opt/ps3dev/ppu/lib/gcc/powerpc64-ps3-elf/4.7.0/../../../../powerpc64-ps3-elf/lib/libsysbase.a(write.o)
                              /opt/ps3dev/ppu/lib/gcc/powerpc64-ps3-elf/4.7.0/../../../../powerpc64-ps3-elf/lib/libc.a(lib_a-stdio.o) (_write_r)
/opt/ps3dev/ppu/lib/gcc/powerpc64-ps3-elf/4.7.0/../../../../powerpc64-ps3-elf/lib/libsysbase.a(lock.o)
                              /opt/ps3dev/ppu/lib/gcc/powerpc64-ps3-elf/4.7.0/../../../../powerpc64-ps3-elf/lib/libc.a(lib_a-lock_recursive.o) (sys_lwmutex_create)
/opt/ps3dev/ppu/lib/gcc/powerpc64-ps3-elf/4.7.0/../../../../powerpc64-ps3-elf/lib/libsysbase.a(getpid.o)
                              /opt/ps3dev/ppu/lib/gcc/powerpc64-ps3-elf/4.7.0/../../../../powerpc64-ps3-elf/lib/libc.a(lib_a-signal.o) (_getpid_r)
/opt/ps3dev/ppu/lib/gcc/powerpc64-ps3-elf/4.7.0/../../../../powerpc64-ps3-elf/lib/libsysbase.a(kill.o)
                              /opt/ps3dev/ppu/lib/gcc/powerpc64-ps3-elf/4.7.0/../../../../powerpc64-ps3-elf/lib/libc.a(lib_a-signal.o) (_kill_r)
/opt/ps3dev/ppu/lib/gcc/powerpc64-ps3-elf/4.7.0/../../../../powerpc64-ps3-elf/lib/libc.a(lib_a-sscanf.o)
                              /opt/ps3dev/psl1ght/ppu/lib/librt.a(socket.o) (sscanf)
/opt/ps3dev/ppu/lib/gcc/powerpc64-ps3-elf/4.7.0/../../../../powerpc64-ps3-elf/lib/libc.a(lib_a-strncpy.o)
                              /opt/ps3dev/psl1ght/ppu/lib/librt.a(dirent.o) (strncpy)
/opt/ps3dev/ppu/lib/gcc/powerpc64-ps3-elf/4.7.0/../../../../powerpc64-ps3-elf/lib/libc.a(lib_a-svfscanf.o)
                              /opt/ps3dev/ppu/lib/gcc/powerpc64-ps3-elf/4.7.0/../../../../powerpc64-ps3-elf/lib/libc.a(lib_a-sscanf.o) (__ssvfscanf_r)
/opt/ps3dev/ppu/lib/gcc/powerpc64-ps3-elf/4.7.0/../../../../powerpc64-ps3-elf/lib/libc.a(lib_a-iswspace.o)
                              /opt/ps3dev/ppu/lib/gcc/powerpc64-ps3-elf/4.7.0/../../../../powerpc64-ps3-elf/lib/libc.a(lib_a-svfscanf.o) (iswspace)
/opt/ps3dev/ppu/lib/gcc/powerpc64-ps3-elf/4.7.0/../../../../powerpc64-ps3-elf/lib/libc.a(lib_a-mbrtowc.o)
                              /opt/ps3dev/ppu/lib/gcc/powerpc64-ps3-elf/4.7.0/../../../../powerpc64-ps3-elf/lib/libc.a(lib_a-svfscanf.o) (_mbrtowc_r)
/opt/ps3dev/ppu/lib/gcc/powerpc64-ps3-elf/4.7.0/../../../../powerpc64-ps3-elf/lib/libc.a(lib_a-mbtowc_r.o)
                              /opt/ps3dev/ppu/lib/gcc/powerpc64-ps3-elf/4.7.0/../../../../powerpc64-ps3-elf/lib/libc.a(lib_a-mbrtowc.o) (__mbtowc)
/opt/ps3dev/ppu/lib/gcc/powerpc64-ps3-elf/4.7.0/../../../../powerpc64-ps3-elf/lib/libc.a(lib_a-sccl.o)
                              /opt/ps3dev/ppu/lib/gcc/powerpc64-ps3-elf/4.7.0/../../../../powerpc64-ps3-elf/lib/libc.a(lib_a-svfscanf.o) (__sccl)
/opt/ps3dev/ppu/lib/gcc/powerpc64-ps3-elf/4.7.0/../../../../powerpc64-ps3-elf/lib/libc.a(lib_a-sf_nan.o)
                              /opt/ps3dev/ppu/lib/gcc/powerpc64-ps3-elf/4.7.0/../../../../powerpc64-ps3-elf/lib/libc.a(lib_a-svfscanf.o) (nanf)
/opt/ps3dev/ppu/lib/gcc/powerpc64-ps3-elf/4.7.0/../../../../powerpc64-ps3-elf/lib/libc.a(lib_a-sprintf.o)
                              /opt/ps3dev/ppu/lib/gcc/powerpc64-ps3-elf/4.7.0/../../../../powerpc64-ps3-elf/lib/libc.a(lib_a-svfscanf.o) (sprintf)
/opt/ps3dev/ppu/lib/gcc/powerpc64-ps3-elf/4.7.0/../../../../powerpc64-ps3-elf/lib/libc.a(lib_a-strtod.o)
                              /opt/ps3dev/ppu/lib/gcc/powerpc64-ps3-elf/4.7.0/../../../../powerpc64-ps3-elf/lib/libc.a(lib_a-svfscanf.o) (_strtod_r)
/opt/ps3dev/ppu/lib/gcc/powerpc64-ps3-elf/4.7.0/../../../../powerpc64-ps3-elf/lib/libc.a(lib_a-strtoll_r.o)
                              /opt/ps3dev/ppu/lib/gcc/powerpc64-ps3-elf/4.7.0/../../../../powerpc64-ps3-elf/lib/libc.a(lib_a-svfscanf.o) (_strtoll_r)
/opt/ps3dev/ppu/lib/gcc/powerpc64-ps3-elf/4.7.0/../../../../powerpc64-ps3-elf/lib/libc.a(lib_a-strtol.o)
                              /opt/ps3dev/ppu/lib/gcc/powerpc64-ps3-elf/4.7.0/../../../../powerpc64-ps3-elf/lib/libc.a(lib_a-svfscanf.o) (_strtol_r)
/opt/ps3dev/ppu/lib/gcc/powerpc64-ps3-elf/4.7.0/../../../../powerpc64-ps3-elf/lib/libc.a(lib_a-strtoull_r.o)
                              /opt/ps3dev/ppu/lib/gcc/powerpc64-ps3-elf/4.7.0/../../../../powerpc64-ps3-elf/lib/libc.a(lib_a-svfscanf.o) (_strtoull_r)
/opt/ps3dev/ppu/lib/gcc/powerpc64-ps3-elf/4.7.0/../../../../powerpc64-ps3-elf/lib/libc.a(lib_a-strtoul.o)
                              /opt/ps3dev/ppu/lib/gcc/powerpc64-ps3-elf/4.7.0/../../../../powerpc64-ps3-elf/lib/libc.a(lib_a-svfscanf.o) (_strtoul_r)
/opt/ps3dev/ppu/lib/gcc/powerpc64-ps3-elf/4.7.0/../../../../powerpc64-ps3-elf/lib/libc.a(lib_a-svfiscanf.o)
                              /opt/ps3dev/ppu/lib/gcc/powerpc64-ps3-elf/4.7.0/../../../../powerpc64-ps3-elf/lib/libc.a(lib_a-svfscanf.o) (_sungetc_r)
/opt/ps3dev/ppu/lib/gcc/powerpc64-ps3-elf/4.7.0/../../../../powerpc64-ps3-elf/lib/libc.a(lib_a-svfprintf.o)
                              /opt/ps3dev/ppu/lib/gcc/powerpc64-ps3-elf/4.7.0/../../../../powerpc64-ps3-elf/lib/libc.a(lib_a-sprintf.o) (_svfprintf_r)
/opt/ps3dev/ppu/lib/gcc/powerpc64-ps3-elf/4.7.0/../../../../powerpc64-ps3-elf/lib/libc.a(lib_a-ungetc.o)
                              /opt/ps3dev/ppu/lib/gcc/powerpc64-ps3-elf/4.7.0/../../../../powerpc64-ps3-elf/lib/libc.a(lib_a-svfiscanf.o) (__submore)
/opt/ps3dev/ppu/lib/gcc/powerpc64-ps3-elf/4.7.0/../../../../powerpc64-ps3-elf/lib/libc.a(lib_a-gdtoa-gethex.o)
                              /opt/ps3dev/ppu/lib/gcc/powerpc64-ps3-elf/4.7.0/../../../../powerpc64-ps3-elf/lib/libc.a(lib_a-strtod.o) (__gethex)
/opt/ps3dev/ppu/lib/gcc/powerpc64-ps3-elf/4.7.0/../../../../powerpc64-ps3-elf/lib/libc.a(lib_a-gdtoa-hexnan.o)
                              /opt/ps3dev/ppu/lib/gcc/powerpc64-ps3-elf/4.7.0/../../../../powerpc64-ps3-elf/lib/libc.a(lib_a-strtod.o) (__hexnan)
/opt/ps3dev/ppu/lib/gcc/powerpc64-ps3-elf/4.7.0/../../../../powerpc64-ps3-elf/lib/libc.a(lib_a-strncmp.o)
                              /opt/ps3dev/ppu/lib/gcc/powerpc64-ps3-elf/4.7.0/../../../../powerpc64-ps3-elf/lib/libc.a(lib_a-strtod.o) (strncmp)
/opt/ps3dev/ppu/lib/gcc/powerpc64-ps3-elf/4.7.0/../../../../powerpc64-ps3-elf/lib/libc.a(lib_a-svfiprintf.o)
                              /opt/ps3dev/ppu/lib/gcc/powerpc64-ps3-elf/4.7.0/../../../../powerpc64-ps3-elf/lib/libc.a(lib_a-svfprintf.o) (__ssprint_r)

Allocating common symbols
Common symbol       size              file

ghost               0x60              main.o
Video_buffer        0x10              /opt/ps3dev/psl1ght/ppu/lib/libtiny3d.a(rsxutil.o)
Video_aspect        0x1               /opt/ps3dev/psl1ght/ppu/lib/libtiny3d.a(rsxutil.o)
Video_pitch         0x4               /opt/ps3dev/psl1ght/ppu/lib/libtiny3d.a(rsxutil.o)
__hexdig            0x100             /opt/ps3dev/ppu/lib/gcc/powerpc64-ps3-elf/4.7.0/../../../../powerpc64-ps3-elf/lib/libc.a(lib_a-gdtoa-gethex.o)
context             0x8               /opt/ps3dev/psl1ght/ppu/lib/libtiny3d.a(rsxutil.o)
texture_ghost       0xc0              main.o
texture_ghost_offset
                    0x20              main.o
Video_Resolution    0x4               /opt/ps3dev/psl1ght/ppu/lib/libtiny3d.a(rsxutil.o)

Discarded input sections

 .note.GNU-stack
                0x0000000000000000        0x0 /opt/ps3dev/psl1ght/ppu/lib/libsysmodule.a(sprx.o)
 .note.GNU-stack
                0x0000000000000000        0x0 /opt/ps3dev/psl1ght/ppu/lib/libgcm_sys.a(sprx.o)
 .note.GNU-stack
                0x0000000000000000        0x0 /opt/ps3dev/psl1ght/ppu/lib/libsysutil.a(sprx.o)
 .note.GNU-stack
                0x0000000000000000        0x0 /opt/ps3dev/psl1ght/ppu/lib/libio.a(sprx.o)
 .note.GNU-stack
                0x0000000000000000        0x0 /opt/ps3dev/psl1ght/ppu/lib/libpngdec.a(sprx.o)
 .note.GNU-stack
                0x0000000000000000        0x0 /opt/ps3dev/psl1ght/ppu/lib/liblv2.a(sprx.o)

Memory Configuration

Name             Origin             Length             Attributes
*default*        0x0000000000000000 0xffffffffffffffff

Linker script and memory map

                0x0000000000010000                PROVIDE (__executable_start, 0x10000)
                0x0000000000010200                . = (0x10000 + SIZEOF_HEADERS)

.interp
 *(.interp)

.hash
 *(.hash)

.dynsym
 *(.dynsym)

.dynstr
 *(.dynstr)

.gnu.version
 *(.gnu.version)

.gnu.version_d
 *(.gnu.version_d)

.gnu.version_r
 *(.gnu.version_r)

.rel.dyn
 *(.rel.init)
 *(.rel.text .rel.text.* .rel.gnu.linkonce.t.*)
 *(.rel.fini)
 *(.rel.rodata .rel.rodata.* .rel.gnu.linkonce.r.*)
 *(.rel.data.rel.ro*)
 *(.rel.data .rel.data.* .rel.gnu.linkonce.d.*)
 *(.rel.tdata .rel.tdata.* .rel.gnu.linkonce.td.*)
 *(.rel.tbss .rel.tbss.* .rel.gnu.linkonce.tb.*)
 *(.rel.ctors)
 *(.rel.dtors)
 *(.rel.got)
 *(.rel.sdata .rel.sdata.* .rel.gnu.linkonce.s.*)
 *(.rel.sbss .rel.sbss.* .rel.gnu.linkonce.sb.*)
 *(.rel.sdata2 .rel.sdata2.* .rel.gnu.linkonce.s2.*)
 *(.rel.sbss2 .rel.sbss2.* .rel.gnu.linkonce.sb2.*)
 *(.rel.bss .rel.bss.* .rel.gnu.linkonce.b.*)

.rela.dyn       0x0000000000010200        0x0
 *(.rela.init)
 *(.rela.text .rela.text.* .rela.gnu.linkonce.t.*)
 *(.rela.fini)
 *(.rela.rodata .rela.rodata.* .rela.gnu.linkonce.r.*)
 *(.rela.data .rela.data.* .rela.gnu.linkonce.d.*)
 *(.rela.tdata .rela.tdata.* .rela.gnu.linkonce.td.*)
 *(.rela.tbss .rela.tbss.* .rela.gnu.linkonce.tb.*)
 *(.rela.ctors)
 *(.rela.dtors)
 *(.rela.got)
 *(.rela.toc)
 .rela.toc      0x0000000000000000        0x0 linker stubs
 *(.rela.sdata .rela.sdata.* .rela.gnu.linkonce.s.*)
 *(.rela.sbss .rela.sbss.* .rela.gnu.linkonce.sb.*)
 *(.rela.sdata2 .rela.sdata2.* .rela.gnu.linkonce.s2.*)
 *(.rela.sbss2 .rela.sbss2.* .rela.gnu.linkonce.sb2.*)
 *(.rela.bss .rela.bss.* .rela.gnu.linkonce.b.*)
 .rela.iplt     0x0000000000000000        0x0 linker stubs
 .rela.sys_proc_prx_param
                0x0000000000000000        0x0 linker stubs
 .rela.opd      0x0000000000000000        0x0 linker stubs

.rel.plt
 *(.rel.plt)

.rela.plt
 *(.rela.plt)

.rela.tocbss
 *(.rela.tocbss)

.init           0x0000000000010200       0x2c
 *(.init)
 .init          0x0000000000010200        0xc /opt/ps3dev/ppu/lib/gcc/powerpc64-ps3-elf/4.7.0/../../../../powerpc64-ps3-elf/lib/lv2-crti.o
                0x0000000000010200                ._init
 .init          0x000000000001020c        0x8 /opt/ps3dev/ppu/lib/gcc/powerpc64-ps3-elf/4.7.0/crtbegin.o
 .init          0x0000000000010214        0x8 /opt/ps3dev/ppu/lib/gcc/powerpc64-ps3-elf/4.7.0/crtend.o
 .init          0x000000000001021c       0x10 /opt/ps3dev/ppu/lib/gcc/powerpc64-ps3-elf/4.7.0/../../../../powerpc64-ps3-elf/lib/lv2-crtn.o

.text           0x0000000000010230    0x27fcc
 *(.text .stub .text.* .gnu.linkonce.t.*)
 .text          0x0000000000010230        0x0 /opt/ps3dev/ppu/lib/gcc/powerpc64-ps3-elf/4.7.0/../../../../powerpc64-ps3-elf/lib/lv2-crti.o
 .text          0x0000000000010230        0x0 /opt/ps3dev/ppu/lib/gcc/powerpc64-ps3-elf/4.7.0/crtbegin.o
 .text.deregister_tm_clones
                0x0000000000010230       0x5c /opt/ps3dev/ppu/lib/gcc/powerpc64-ps3-elf/4.7.0/crtbegin.o
 *fill*         0x000000000001028c        0x4 60000000
 .text.register_tm_clones
                0x0000000000010290       0x60 /opt/ps3dev/ppu/lib/gcc/powerpc64-ps3-elf/4.7.0/crtbegin.o
 .text.__do_global_dtors_aux
                0x00000000000102f0       0xcc /opt/ps3dev/ppu/lib/gcc/powerpc64-ps3-elf/4.7.0/crtbegin.o
 *fill*         0x00000000000103bc        0x4 60000000
 .text.frame_dummy
                0x00000000000103c0       0x70 /opt/ps3dev/ppu/lib/gcc/powerpc64-ps3-elf/4.7.0/crtbegin.o
 .text          0x0000000000010430       0x58 /opt/ps3dev/ppu/lib/gcc/powerpc64-ps3-elf/4.7.0/../../../../powerpc64-ps3-elf/lib/lv2-crt0.o
                0x0000000000010430                ._start
 .text.startup.__syscalls_init
                0x0000000000010488      0x12c /opt/ps3dev/ppu/lib/gcc/powerpc64-ps3-elf/4.7.0/../../../../powerpc64-ps3-elf/lib/lv2-crt0.o
 *fill*         0x00000000000105b4        0x4 60000000
 .text._initialize
                0x00000000000105b8       0x40 /opt/ps3dev/ppu/lib/gcc/powerpc64-ps3-elf/4.7.0/../../../../powerpc64-ps3-elf/lib/lv2-crt0.o
                0x00000000000105b8                ._initialize
 .text          0x00000000000105f8        0x0 /opt/ps3dev/ppu/lib/gcc/powerpc64-ps3-elf/4.7.0/../../../../powerpc64-ps3-elf/lib/lv2-sprx.o
 .text          0x00000000000105f8        0x0 ghost1_png.bin.o
 .text          0x00000000000105f8        0x0 ghost2_png.bin.o
 .text          0x00000000000105f8        0x0 ghost3_png.bin.o
 .text          0x00000000000105f8        0x0 ghost4_png.bin.o
 .text          0x00000000000105f8        0x0 ghost5_png.bin.o
 .text          0x00000000000105f8        0x0 ghost6_png.bin.o
 .text          0x00000000000105f8        0x0 ghost7_png.bin.o
 .text          0x00000000000105f8        0x0 ghost8_png.bin.o
 .text          0x00000000000105f8        0x0 main.o
 .text.exiting  0x00000000000105f8       0x34 main.o
                0x00000000000105f8                .exiting
 *fill*         0x000000000001062c        0x4 60000000
 .text.DrawBackground2D
                0x0000000000010630       0xdc main.o
                0x0000000000010630                .DrawBackground2D
 *fill*         0x000000000001070c        0x4 60000000
 .text.DrawSprites2D
                0x0000000000010710      0x148 main.o
                0x0000000000010710                .DrawSprites2D
 .text.DrawSpritesRot2D
                0x0000000000010858      0x278 main.o
                0x0000000000010858                .DrawSpritesRot2D
 .text.drawScene
                0x0000000000010ad0      0x31c main.o
                0x0000000000010ad0                .drawScene
 *fill*         0x0000000000010dec        0x4 60000000
 .text.Load_PNG
                0x0000000000010df0      0x134 main.o
                0x0000000000010df0                .Load_PNG
 *fill*         0x0000000000010f24        0x4 60000000
 .text.LoadTexture
                0x0000000000010f28       0xf0 main.o
                0x0000000000010f28                .LoadTexture
 .text.startup.main
                0x0000000000011018      0x1cc main.o
                0x0000000000011018                .main
 .text          0x00000000000111e4        0x0 /opt/ps3dev/psl1ght/ppu/lib/libtiny3d.a(matrix.o)
 *fill*         0x00000000000111e4        0x4 60000000
 .text.MatrixProjPerspective
                0x00000000000111e8      0x120 /opt/ps3dev/psl1ght/ppu/lib/libtiny3d.a(matrix.o)
                0x00000000000111e8                .MatrixProjPerspective
 .text.MatrixVectorMultiply
                0x0000000000011308       0xa4 /opt/ps3dev/psl1ght/ppu/lib/libtiny3d.a(matrix.o)
                0x0000000000011308                .MatrixVectorMultiply
 *fill*         0x00000000000113ac        0x4 60000000
 .text.MatrixVectorMultiply3x3
                0x00000000000113b0       0x8c /opt/ps3dev/psl1ght/ppu/lib/libtiny3d.a(matrix.o)
                0x00000000000113b0                .MatrixVectorMultiply3x3
 *fill*         0x000000000001143c        0x4 60000000
 .text.MatrixMultiply
                0x0000000000011440      0x2cc /opt/ps3dev/psl1ght/ppu/lib/libtiny3d.a(matrix.o)
                0x0000000000011440                .MatrixMultiply
 *fill*         0x000000000001170c        0x4 60000000
 .text.MatrixIdentity
                0x0000000000011710       0x54 /opt/ps3dev/psl1ght/ppu/lib/libtiny3d.a(matrix.o)
                0x0000000000011710                .MatrixIdentity
 *fill*         0x0000000000011764        0x4 60000000
 .text.MatrixTranslation
                0x0000000000011768       0x58 /opt/ps3dev/psl1ght/ppu/lib/libtiny3d.a(matrix.o)
                0x0000000000011768                .MatrixTranslation
 .text.MatrixTranspose
                0x00000000000117c0       0xd8 /opt/ps3dev/psl1ght/ppu/lib/libtiny3d.a(matrix.o)
                0x00000000000117c0                .MatrixTranspose
 .text.MatrixScale
                0x0000000000011898       0x60 /opt/ps3dev/psl1ght/ppu/lib/libtiny3d.a(matrix.o)
                0x0000000000011898                .MatrixScale
 .text.MatrixRotationX
                0x00000000000118f8       0xbc /opt/ps3dev/psl1ght/ppu/lib/libtiny3d.a(matrix.o)
                0x00000000000118f8                .MatrixRotationX
 *fill*         0x00000000000119b4        0x4 60000000
 .text.MatrixRotationY
                0x00000000000119b8       0xbc /opt/ps3dev/psl1ght/ppu/lib/libtiny3d.a(matrix.o)
                0x00000000000119b8                .MatrixRotationY
 *fill*         0x0000000000011a74        0x4 60000000
 .text.MatrixRotationZ
                0x0000000000011a78       0xbc /opt/ps3dev/psl1ght/ppu/lib/libtiny3d.a(matrix.o)
                0x0000000000011a78                .MatrixRotationZ
 *fill*         0x0000000000011b34        0x4 60000000
 .text.MatrixRotationAxis
                0x0000000000011b38      0x2a8 /opt/ps3dev/psl1ght/ppu/lib/libtiny3d.a(matrix.o)
                0x0000000000011b38                .MatrixRotationAxis
 .text.VectorToUnit
                0x0000000000011de0       0xbc /opt/ps3dev/psl1ght/ppu/lib/libtiny3d.a(matrix.o)
                0x0000000000011de0                .VectorToUnit
 *fill*         0x0000000000011e9c        0x4 60000000
 .text.VectorNormalPlane
                0x0000000000011ea0       0xdc /opt/ps3dev/psl1ght/ppu/lib/libtiny3d.a(matrix.o)
                0x0000000000011ea0                .VectorNormalPlane
 .text          0x0000000000011f7c        0x0 /opt/ps3dev/psl1ght/ppu/lib/libtiny3d.a(tiny3d.o)
 *fill*         0x0000000000011f7c        0x4 60000000
 .text.put_vertex
                0x0000000000011f80      0x22c /opt/ps3dev/psl1ght/ppu/lib/libtiny3d.a(tiny3d.o)
 *fill*         0x00000000000121ac        0x4 60000000
 .text.push_list_cmd
                0x00000000000121b0      0x15c /opt/ps3dev/psl1ght/ppu/lib/libtiny3d.a(tiny3d.o)
 *fill*         0x000000000001230c        0x4 60000000
 .text.tiny3d_callback
                0x0000000000012310      0x164 /opt/ps3dev/psl1ght/ppu/lib/libtiny3d.a(tiny3d.o)
 *fill*         0x0000000000012474        0x4 60000000
 .text.push_normal_list
                0x0000000000012478      0x1b4 /opt/ps3dev/psl1ght/ppu/lib/libtiny3d.a(tiny3d.o)
 *fill*         0x000000000001262c        0x4 60000000
 .text.push_position_list
                0x0000000000012630      0x1e8 /opt/ps3dev/psl1ght/ppu/lib/libtiny3d.a(tiny3d.o)
 .text.internal_reality_SetClearColor
                0x0000000000012818       0xd8 /opt/ps3dev/psl1ght/ppu/lib/libtiny3d.a(tiny3d.o)
                0x0000000000012818                .internal_reality_SetClearColor
 .text.internal_reality_SetClearDepthValue
                0x00000000000128f0       0xd8 /opt/ps3dev/psl1ght/ppu/lib/libtiny3d.a(tiny3d.o)
                0x00000000000128f0                .internal_reality_SetClearDepthValue
 .text.internal_reality_Nop
                0x00000000000129c8       0xd0 /opt/ps3dev/psl1ght/ppu/lib/libtiny3d.a(tiny3d.o)
                0x00000000000129c8                .internal_reality_Nop
 .text.internal_reality_ClearBuffers
                0x0000000000012a98       0xb8 /opt/ps3dev/psl1ght/ppu/lib/libtiny3d.a(tiny3d.o)
                0x0000000000012a98                .internal_reality_ClearBuffers
 .text.internal_reality_SetRenderSurface
                0x0000000000012b50       0xf0 /opt/ps3dev/psl1ght/ppu/lib/libtiny3d.a(tiny3d.o)
                0x0000000000012b50                .internal_reality_SetRenderSurface
 .text.internal_reality_SelectRenderTarget
                0x0000000000012c40      0x158 /opt/ps3dev/psl1ght/ppu/lib/libtiny3d.a(tiny3d.o)
                0x0000000000012c40                .internal_reality_SelectRenderTarget
 .text.internal_reality_Viewport
                0x0000000000012d98       0xb8 /opt/ps3dev/psl1ght/ppu/lib/libtiny3d.a(tiny3d.o)
                0x0000000000012d98                .internal_reality_Viewport
 .text.internal_reality_ViewportClip
                0x0000000000012e50       0xd0 /opt/ps3dev/psl1ght/ppu/lib/libtiny3d.a(tiny3d.o)
                0x0000000000012e50                .internal_reality_ViewportClip
 .text.internal_reality_VertexBegin
                0x0000000000012f20       0xd8 /opt/ps3dev/psl1ght/ppu/lib/libtiny3d.a(tiny3d.o)
                0x0000000000012f20                .internal_reality_VertexBegin
 .text.internal_reality_VertexEnd
                0x0000000000012ff8       0xd0 /opt/ps3dev/psl1ght/ppu/lib/libtiny3d.a(tiny3d.o)
                0x0000000000012ff8                .internal_reality_VertexEnd
 .text.internal_reality_Vertex4f
                0x00000000000130c8       0xc8 /opt/ps3dev/psl1ght/ppu/lib/libtiny3d.a(tiny3d.o)
                0x00000000000130c8                .internal_reality_Vertex4f
 .text.internal_reality_TexCoord2f
                0x0000000000013190       0xe8 /opt/ps3dev/psl1ght/ppu/lib/libtiny3d.a(tiny3d.o)
                0x0000000000013190                .internal_reality_TexCoord2f
 .text.internal_reality_LoadVertexProgram_old
                0x0000000000013278      0x164 /opt/ps3dev/psl1ght/ppu/lib/libtiny3d.a(tiny3d.o)
                0x0000000000013278                .internal_reality_LoadVertexProgram_old
 *fill*         0x00000000000133dc        0x4 60000000
 .text.internal_reality_SetVertexProgramConstant4f
                0x00000000000133e0       0xd0 /opt/ps3dev/psl1ght/ppu/lib/libtiny3d.a(tiny3d.o)
                0x00000000000133e0                .internal_reality_SetVertexProgramConstant4f
 .text.internal_reality_LoadVertexProgram
                0x00000000000134b0      0x1ec /opt/ps3dev/psl1ght/ppu/lib/libtiny3d.a(tiny3d.o)
                0x00000000000134b0                .internal_reality_LoadVertexProgram
 *fill*         0x000000000001369c        0x4 60000000
 .text.internal_reality_SetVertexProgramConstant4fBlock
                0x00000000000136a0       0x88 /opt/ps3dev/psl1ght/ppu/lib/libtiny3d.a(tiny3d.o)
                0x00000000000136a0                .internal_reality_SetVertexProgramConstant4fBlock
 .text.Update_With_Normal
                0x0000000000013728      0x2d8 /opt/ps3dev/psl1ght/ppu/lib/libtiny3d.a(tiny3d.o)
 .text.internal_reality_InstallFragmentProgram
                0x0000000000013a00       0x90 /opt/ps3dev/psl1ght/ppu/lib/libtiny3d.a(tiny3d.o)
                0x0000000000013a00                .internal_reality_InstallFragmentProgram
 .text.internal_reality_LoadFragmentProgram
                0x0000000000013a90       0xe0 /opt/ps3dev/psl1ght/ppu/lib/libtiny3d.a(tiny3d.o)
                0x0000000000013a90                .internal_reality_LoadFragmentProgram
 .text.internal_reality_SetTexture
                0x0000000000013b70      0x120 /opt/ps3dev/psl1ght/ppu/lib/libtiny3d.a(tiny3d.o)
                0x0000000000013b70                .internal_reality_SetTexture
 .text.internal_reality_ViewportTranslate
                0x0000000000013c90       0xc8 /opt/ps3dev/psl1ght/ppu/lib/libtiny3d.a(tiny3d.o)
                0x0000000000013c90                .internal_reality_ViewportTranslate
 .text.internal_reality_ViewportScale
                0x0000000000013d58       0xc8 /opt/ps3dev/psl1ght/ppu/lib/libtiny3d.a(tiny3d.o)
                0x0000000000013d58                .internal_reality_ViewportScale
 .text.internal_reality_CullFace
                0x0000000000013e20       0xd8 /opt/ps3dev/psl1ght/ppu/lib/libtiny3d.a(tiny3d.o)
                0x0000000000013e20                .internal_reality_CullFace
 .text.internal_reality_FrontFace
                0x0000000000013ef8       0xd8 /opt/ps3dev/psl1ght/ppu/lib/libtiny3d.a(tiny3d.o)
                0x0000000000013ef8                .internal_reality_FrontFace
 .text.internal_reality_CullEnable
                0x0000000000013fd0       0xd8 /opt/ps3dev/psl1ght/ppu/lib/libtiny3d.a(tiny3d.o)
                0x0000000000013fd0                .internal_reality_CullEnable
 .text.internal_reality_AlphaEnable
                0x00000000000140a8       0xd8 /opt/ps3dev/psl1ght/ppu/lib/libtiny3d.a(tiny3d.o)
                0x00000000000140a8                .internal_reality_AlphaEnable
 .text.internal_reality_AlphaRef
                0x0000000000014180       0xd8 /opt/ps3dev/psl1ght/ppu/lib/libtiny3d.a(tiny3d.o)
                0x0000000000014180                .internal_reality_AlphaRef
 .text.internal_reality_AlphaFunc
                0x0000000000014258       0xd8 /opt/ps3dev/psl1ght/ppu/lib/libtiny3d.a(tiny3d.o)
                0x0000000000014258                .internal_reality_AlphaFunc
 .text.internal_reality_BlendEnable
                0x0000000000014330       0xd8 /opt/ps3dev/psl1ght/ppu/lib/libtiny3d.a(tiny3d.o)
                0x0000000000014330                .internal_reality_BlendEnable
 .text.internal_reality_BlendEquation
                0x0000000000014408       0xd8 /opt/ps3dev/psl1ght/ppu/lib/libtiny3d.a(tiny3d.o)
                0x0000000000014408                .internal_reality_BlendEquation
 .text.internal_reality_BlendFunc
                0x00000000000144e0       0xe4 /opt/ps3dev/psl1ght/ppu/lib/libtiny3d.a(tiny3d.o)
                0x00000000000144e0                .internal_reality_BlendFunc
 *fill*         0x00000000000145c4        0x4 60000000
 .text.internal_reality_ZControl
                0x00000000000145c8       0xc8 /opt/ps3dev/psl1ght/ppu/lib/libtiny3d.a(tiny3d.o)
                0x00000000000145c8                .internal_reality_ZControl
 .text.internal_reality_BindVertexBufferAttribute
                0x0000000000014690      0x100 /opt/ps3dev/psl1ght/ppu/lib/libtiny3d.a(tiny3d.o)
                0x0000000000014690                .internal_reality_BindVertexBufferAttribute
 .text.internal_reality_DrawVertexBuffer
                0x0000000000014790      0x234 /opt/ps3dev/psl1ght/ppu/lib/libtiny3d.a(tiny3d.o)
                0x0000000000014790                .internal_reality_DrawVertexBuffer
 *fill*         0x00000000000149c4        0x4 60000000
 .text.internal_reality_DrawVertexBufferIndex
                0x00000000000149c8      0x264 /opt/ps3dev/psl1ght/ppu/lib/libtiny3d.a(tiny3d.o)
                0x00000000000149c8                .internal_reality_DrawVertexBufferIndex
 *fill*         0x0000000000014c2c        0x4 60000000
 .text.internal_reality_DepthTestEnable
                0x0000000000014c30       0xd8 /opt/ps3dev/psl1ght/ppu/lib/libtiny3d.a(tiny3d.o)
                0x0000000000014c30                .internal_reality_DepthTestEnable
 .text.internal_reality_DepthTestFunc
                0x0000000000014d08       0xd8 /opt/ps3dev/psl1ght/ppu/lib/libtiny3d.a(tiny3d.o)
                0x0000000000014d08                .internal_reality_DepthTestFunc
 .text.internal_reality_DepthWriteEnable
                0x0000000000014de0       0xd8 /opt/ps3dev/psl1ght/ppu/lib/libtiny3d.a(tiny3d.o)
                0x0000000000014de0                .internal_reality_DepthWriteEnable
 .text.tiny3d_RecordList
                0x0000000000014eb8       0x9c /opt/ps3dev/psl1ght/ppu/lib/libtiny3d.a(tiny3d.o)
                0x0000000000014eb8                .tiny3d_RecordList
 *fill*         0x0000000000014f54        0x4 60000000
 .text.tiny3d_StopList
                0x0000000000014f58      0x158 /opt/ps3dev/psl1ght/ppu/lib/libtiny3d.a(tiny3d.o)
                0x0000000000014f58                .tiny3d_StopList
 .text.tiny3d_FreeList
                0x00000000000150b0       0xcc /opt/ps3dev/psl1ght/ppu/lib/libtiny3d.a(tiny3d.o)
                0x00000000000150b0                .tiny3d_FreeList
 *fill*         0x000000000001517c        0x4 60000000
 .text.tiny3d_DynamicMatrixList
                0x0000000000015180       0xf0 /opt/ps3dev/psl1ght/ppu/lib/libtiny3d.a(tiny3d.o)
                0x0000000000015180                .tiny3d_DynamicMatrixList
 .text.tiny3d_ApplyMatrixList
                0x0000000000015270       0xb0 /opt/ps3dev/psl1ght/ppu/lib/libtiny3d.a(tiny3d.o)
                0x0000000000015270                .tiny3d_ApplyMatrixList
 .text.tiny3d_Init
                0x0000000000015320      0x4e4 /opt/ps3dev/psl1ght/ppu/lib/libtiny3d.a(tiny3d.o)
                0x0000000000015320                .tiny3d_Init
 *fill*         0x0000000000015804        0x4 60000000
 .text.tiny3d_SetPolygon
                0x0000000000015808      0x25c /opt/ps3dev/psl1ght/ppu/lib/libtiny3d.a(tiny3d.o)
                0x0000000000015808                .tiny3d_SetPolygon
 *fill*         0x0000000000015a64        0x4 60000000
 .text.tiny3d_VertexPos
                0x0000000000015a68       0xcc /opt/ps3dev/psl1ght/ppu/lib/libtiny3d.a(tiny3d.o)
                0x0000000000015a68                .tiny3d_VertexPos
 *fill*         0x0000000000015b34        0x4 60000000
 .text.tiny3d_VertexPos4
                0x0000000000015b38       0xd0 /opt/ps3dev/psl1ght/ppu/lib/libtiny3d.a(tiny3d.o)
                0x0000000000015b38                .tiny3d_VertexPos4
 .text.tiny3d_VertexPosVector
                0x0000000000015c08       0xe0 /opt/ps3dev/psl1ght/ppu/lib/libtiny3d.a(tiny3d.o)
                0x0000000000015c08                .tiny3d_VertexPosVector
 .text.tiny3d_VertexColor
                0x0000000000015ce8       0xb4 /opt/ps3dev/psl1ght/ppu/lib/libtiny3d.a(tiny3d.o)
                0x0000000000015ce8                .tiny3d_VertexColor
 *fill*         0x0000000000015d9c        0x4 60000000
 .text.tiny3d_VertexFcolor
                0x0000000000015da0      0x104 /opt/ps3dev/psl1ght/ppu/lib/libtiny3d.a(tiny3d.o)
                0x0000000000015da0                .tiny3d_VertexFcolor
 *fill*         0x0000000000015ea4        0x4 60000000
 .text.tiny3d_VertexTexture
                0x0000000000015ea8       0xbc /opt/ps3dev/psl1ght/ppu/lib/libtiny3d.a(tiny3d.o)
                0x0000000000015ea8                .tiny3d_VertexTexture
 *fill*         0x0000000000015f64        0x4 60000000
 .text.tiny3d_VertexTexture2
                0x0000000000015f68       0xcc /opt/ps3dev/psl1ght/ppu/lib/libtiny3d.a(tiny3d.o)
                0x0000000000015f68                .tiny3d_VertexTexture2
 *fill*         0x0000000000016034        0x4 60000000
 .text.tiny3d_Normal
                0x0000000000016038       0x48 /opt/ps3dev/psl1ght/ppu/lib/libtiny3d.a(tiny3d.o)
                0x0000000000016038                .tiny3d_Normal
 .text.tiny3d_NormalVector
                0x0000000000016080       0x58 /opt/ps3dev/psl1ght/ppu/lib/libtiny3d.a(tiny3d.o)
                0x0000000000016080                .tiny3d_NormalVector
 .text.tiny3d_End
                0x00000000000160d8      0xaac /opt/ps3dev/psl1ght/ppu/lib/libtiny3d.a(tiny3d.o)
                0x00000000000160d8                .tiny3d_End
 *fill*         0x0000000000016b84        0x4 60000000
 .text.tiny3d_SetMatrixModelView
                0x0000000000016b88      0x274 /opt/ps3dev/psl1ght/ppu/lib/libtiny3d.a(tiny3d.o)
                0x0000000000016b88                .tiny3d_SetMatrixModelView
 *fill*         0x0000000000016dfc        0x4 60000000
 .text.tiny3d_SetProjectionMatrix
                0x0000000000016e00       0xd8 /opt/ps3dev/psl1ght/ppu/lib/libtiny3d.a(tiny3d.o)
                0x0000000000016e00                .tiny3d_SetProjectionMatrix
 .text.tiny3d_Flip
                0x0000000000016ed8      0x118 /opt/ps3dev/psl1ght/ppu/lib/libtiny3d.a(tiny3d.o)
                0x0000000000016ed8                .tiny3d_Flip
 .text.tiny3d_UserViewport
                0x0000000000016ff0       0x48 /opt/ps3dev/psl1ght/ppu/lib/libtiny3d.a(tiny3d.o)
                0x0000000000016ff0                .tiny3d_UserViewport
 .text.tiny3d_Project2D
                0x0000000000017038      0x270 /opt/ps3dev/psl1ght/ppu/lib/libtiny3d.a(tiny3d.o)
                0x0000000000017038                .tiny3d_Project2D
 .text.tiny3d_Project3D
                0x00000000000172a8      0x1c4 /opt/ps3dev/psl1ght/ppu/lib/libtiny3d.a(tiny3d.o)
                0x00000000000172a8                .tiny3d_Project3D
 *fill*         0x000000000001746c        0x4 60000000
 .text.tiny3d_Clear
                0x0000000000017470      0x2d4 /opt/ps3dev/psl1ght/ppu/lib/libtiny3d.a(tiny3d.o)
                0x0000000000017470                .tiny3d_Clear
 *fill*         0x0000000000017744        0x4 60000000
 .text.tiny3d_ClearSurface
                0x0000000000017748      0x1e0 /opt/ps3dev/psl1ght/ppu/lib/libtiny3d.a(tiny3d.o)
                0x0000000000017748                .tiny3d_ClearSurface
 .text.tiny3d_AlphaTest
                0x0000000000017928       0x78 /opt/ps3dev/psl1ght/ppu/lib/libtiny3d.a(tiny3d.o)
                0x0000000000017928                .tiny3d_AlphaTest
 .text.tiny3d_BlendFunc
                0x00000000000179a0       0x74 /opt/ps3dev/psl1ght/ppu/lib/libtiny3d.a(tiny3d.o)
                0x00000000000179a0                .tiny3d_BlendFunc
 *fill*         0x0000000000017a14        0x4 60000000
 .text.tiny3d_SetTextureWrap
                0x0000000000017a18      0x264 /opt/ps3dev/psl1ght/ppu/lib/libtiny3d.a(tiny3d.o)
                0x0000000000017a18                .tiny3d_SetTextureWrap
 *fill*         0x0000000000017c7c        0x4 60000000
 .text.tiny3d_SetTexture
                0x0000000000017c80      0x1a0 /opt/ps3dev/psl1ght/ppu/lib/libtiny3d.a(tiny3d.o)
                0x0000000000017c80                .tiny3d_SetTexture
 .text.tiny3d_AllocTexture
                0x0000000000017e20       0x38 /opt/ps3dev/psl1ght/ppu/lib/libtiny3d.a(tiny3d.o)
                0x0000000000017e20                .tiny3d_AllocTexture
 .text.tiny3d_TextureOffset
                0x0000000000017e58       0x60 /opt/ps3dev/psl1ght/ppu/lib/libtiny3d.a(tiny3d.o)
                0x0000000000017e58                .tiny3d_TextureOffset
 .text.tiny3d_EmissiveMaterial
                0x0000000000017eb8       0xf4 /opt/ps3dev/psl1ght/ppu/lib/libtiny3d.a(tiny3d.o)
                0x0000000000017eb8                .tiny3d_EmissiveMaterial
 *fill*         0x0000000000017fac        0x4 60000000
 .text.tiny3d_AmbientMaterial
                0x0000000000017fb0       0xf4 /opt/ps3dev/psl1ght/ppu/lib/libtiny3d.a(tiny3d.o)
                0x0000000000017fb0                .tiny3d_AmbientMaterial
 *fill*         0x00000000000180a4        0x4 60000000
 .text.tiny3d_DiffuseMaterial
                0x00000000000180a8       0xf4 /opt/ps3dev/psl1ght/ppu/lib/libtiny3d.a(tiny3d.o)
                0x00000000000180a8                .tiny3d_DiffuseMaterial
 *fill*         0x000000000001819c        0x4 60000000
 .text.tiny3d_SpecularMaterial
                0x00000000000181a0       0xf4 /opt/ps3dev/psl1ght/ppu/lib/libtiny3d.a(tiny3d.o)
                0x00000000000181a0                .tiny3d_SpecularMaterial
 *fill*         0x0000000000018294        0x4 60000000
 .text.tiny3d_SetLightCameraPosition
                0x0000000000018298       0x38 /opt/ps3dev/psl1ght/ppu/lib/libtiny3d.a(tiny3d.o)
                0x0000000000018298                .tiny3d_SetLightCameraPosition
 .text.tiny3d_SetLight
                0x00000000000182d0       0x90 /opt/ps3dev/psl1ght/ppu/lib/libtiny3d.a(tiny3d.o)
                0x00000000000182d0                .tiny3d_SetLight
 .text.tiny3d_SetLightsOff
                0x0000000000018360       0x38 /opt/ps3dev/psl1ght/ppu/lib/libtiny3d.a(tiny3d.o)
                0x0000000000018360                .tiny3d_SetLightsOff
 .text.tiny3d_SetAmbientLight
                0x0000000000018398       0x38 /opt/ps3dev/psl1ght/ppu/lib/libtiny3d.a(tiny3d.o)
                0x0000000000018398                .tiny3d_SetAmbientLight
 .text.tiny3d_SelMultiTexturesMethod
                0x00000000000183d0       0xac /opt/ps3dev/psl1ght/ppu/lib/libtiny3d.a(tiny3d.o)
                0x00000000000183d0                .tiny3d_SelMultiTexturesMethod
 *fill*         0x000000000001847c        0x4 60000000
 .text.tiny3d_DrawList
                0x0000000000018480      0x654 /opt/ps3dev/psl1ght/ppu/lib/libtiny3d.a(tiny3d.o)
                0x0000000000018480                .tiny3d_DrawList
 *fill*         0x0000000000018ad4        0x4 60000000
 .text.tiny3d_MenuActive
                0x0000000000018ad8       0x1c /opt/ps3dev/psl1ght/ppu/lib/libtiny3d.a(tiny3d.o)
                0x0000000000018ad8                .tiny3d_MenuActive
 *fill*         0x0000000000018af4        0x4 60000000
 .text.tiny3d_Enable_YUV
                0x0000000000018af8       0x2c /opt/ps3dev/psl1ght/ppu/lib/libtiny3d.a(tiny3d.o)
                0x0000000000018af8                .tiny3d_Enable_YUV
 *fill*         0x0000000000018b24        0x4 60000000
 .text.tiny3d_Disable_YUV
                0x0000000000018b28       0x28 /opt/ps3dev/psl1ght/ppu/lib/libtiny3d.a(tiny3d.o)
                0x0000000000018b28                .tiny3d_Disable_YUV
 .text.tiny3d_Dirty_Status
                0x0000000000018b50       0x4c /opt/ps3dev/psl1ght/ppu/lib/libtiny3d.a(tiny3d.o)
                0x0000000000018b50                .tiny3d_Dirty_Status
 .text          0x0000000000018b9c        0x0 /opt/ps3dev/psl1ght/ppu/lib/libtiny3d.a(vshader_text_normal.vcg.o)
 .text          0x0000000000018b9c        0x0 /opt/ps3dev/psl1ght/ppu/lib/libtiny3d.a(realityVP.o)
 *fill*         0x0000000000018b9c        0x4 60000000
 .text.internal_reality_VertexProgramGetUCode
                0x0000000000018ba0       0x18 /opt/ps3dev/psl1ght/ppu/lib/libtiny3d.a(realityVP.o)
                0x0000000000018ba0                .internal_reality_VertexProgramGetUCode
 .text.internal_reality_VertexProgramGetInputMask
                0x0000000000018bb8       0x14 /opt/ps3dev/psl1ght/ppu/lib/libtiny3d.a(realityVP.o)
                0x0000000000018bb8                .internal_reality_VertexProgramGetInputMask
 *fill*         0x0000000000018bcc        0x4 60000000
 .text.internal_reality_VertexProgramGetOutputMask
                0x0000000000018bd0       0x14 /opt/ps3dev/psl1ght/ppu/lib/libtiny3d.a(realityVP.o)
                0x0000000000018bd0                .internal_reality_VertexProgramGetOutputMask
 *fill*         0x0000000000018be4        0x4 60000000
 .text.internal_reality_VertexProgramGetAttributes
                0x0000000000018be8       0x18 /opt/ps3dev/psl1ght/ppu/lib/libtiny3d.a(realityVP.o)
                0x0000000000018be8                .internal_reality_VertexProgramGetAttributes
 .text.internal_reality_VertexProgramGetInputAttribute
                0x0000000000018c00       0xe8 /opt/ps3dev/psl1ght/ppu/lib/libtiny3d.a(realityVP.o)
                0x0000000000018c00                .internal_reality_VertexProgramGetInputAttribute
 .text.internal_reality_VertexProgramGetConstants
                0x0000000000018ce8       0x18 /opt/ps3dev/psl1ght/ppu/lib/libtiny3d.a(realityVP.o)
                0x0000000000018ce8                .internal_reality_VertexProgramGetConstants
 .text.internal_reality_VertexProgramGetConstant
                0x0000000000018d00       0xe8 /opt/ps3dev/psl1ght/ppu/lib/libtiny3d.a(realityVP.o)
                0x0000000000018d00                .internal_reality_VertexProgramGetConstant
 .text          0x0000000000018de8        0x0 /opt/ps3dev/psl1ght/ppu/lib/libtiny3d.a(rsxutil.o)
 .text.waitFlip
                0x0000000000018de8       0x50 /opt/ps3dev/psl1ght/ppu/lib/libtiny3d.a(rsxutil.o)
                0x0000000000018de8                .waitFlip
 .text.flip     0x0000000000018e38       0x7c /opt/ps3dev/psl1ght/ppu/lib/libtiny3d.a(rsxutil.o)
                0x0000000000018e38                .flip
 *fill*         0x0000000000018eb4        0x4 60000000
 .text.init_screen
                0x0000000000018eb8      0x46c /opt/ps3dev/psl1ght/ppu/lib/libtiny3d.a(rsxutil.o)
                0x0000000000018eb8                .init_screen
 *fill*         0x0000000000019324        0x4 60000000
 .text.setupRenderTarget
                0x0000000000019328       0xb4 /opt/ps3dev/psl1ght/ppu/lib/libtiny3d.a(rsxutil.o)
                0x0000000000019328                .setupRenderTarget
 *fill*         0x00000000000193dc        0x4 60000000
 .text.setupRenderTarget2
                0x00000000000193e0       0xe8 /opt/ps3dev/psl1ght/ppu/lib/libtiny3d.a(rsxutil.o)
                0x00000000000193e0                .setupRenderTarget2
 .text          0x00000000000194c8        0x0 /opt/ps3dev/psl1ght/ppu/lib/libsysmodule.a(sprx.o)
 .text          0x00000000000194c8        0x0 /opt/ps3dev/psl1ght/ppu/lib/libgcm_sys.a(sprx.o)
 .text          0x00000000000194c8        0x0 /opt/ps3dev/psl1ght/ppu/lib/librsx.a(init.o)
 .text.rsxInit  0x00000000000194c8       0x70 /opt/ps3dev/psl1ght/ppu/lib/librsx.a(init.o)
                0x00000000000194c8                .rsxInit
 .text.rsxSetupContextData
                0x0000000000019538       0x38 /opt/ps3dev/psl1ght/ppu/lib/librsx.a(init.o)
                0x0000000000019538                .rsxSetupContextData
 .text          0x0000000000019570        0x0 /opt/ps3dev/psl1ght/ppu/lib/librsx.a(buffer.o)
 .text.rsxResetCommandBuffer
                0x0000000000019570       0x80 /opt/ps3dev/psl1ght/ppu/lib/librsx.a(buffer.o)
                0x0000000000019570                .rsxResetCommandBuffer
 .text.rsxFlushBuffer
                0x00000000000195f0       0x78 /opt/ps3dev/psl1ght/ppu/lib/librsx.a(buffer.o)
                0x00000000000195f0                .rsxFlushBuffer
 .text.rsxFinish
                0x0000000000019668       0x84 /opt/ps3dev/psl1ght/ppu/lib/librsx.a(buffer.o)
                0x0000000000019668                .rsxFinish
 .text          0x00000000000196ec        0x0 /opt/ps3dev/psl1ght/ppu/lib/librsx.a(commands.o)
 *fill*         0x00000000000196ec        0x4 60000000
 .text.rsxContextCallback
                0x00000000000196f0       0x50 /opt/ps3dev/psl1ght/ppu/lib/librsx.a(commands.o)
                0x00000000000196f0                .rsxContextCallback
 .text.rsxSetReturnCommand
                0x0000000000019740       0x7c /opt/ps3dev/psl1ght/ppu/lib/librsx.a(commands.o)
                0x0000000000019740                .rsxSetReturnCommand
 *fill*         0x00000000000197bc        0x4 60000000
 .text.rsxSetCallCommand
                0x00000000000197c0       0x84 /opt/ps3dev/psl1ght/ppu/lib/librsx.a(commands.o)
                0x00000000000197c0                .rsxSetCallCommand
 *fill*         0x0000000000019844        0x4 60000000
 .text.rsxSetJumpCommand
                0x0000000000019848       0x84 /opt/ps3dev/psl1ght/ppu/lib/librsx.a(commands.o)
                0x0000000000019848                .rsxSetJumpCommand
 *fill*         0x00000000000198cc        0x4 60000000
 .text.rsxSetNopCommand
                0x00000000000198d0       0xb8 /opt/ps3dev/psl1ght/ppu/lib/librsx.a(commands.o)
                0x00000000000198d0                .rsxSetNopCommand
 .text.rsxSetClearColor
                0x0000000000019988       0x8c /opt/ps3dev/psl1ght/ppu/lib/librsx.a(commands.o)
                0x0000000000019988                .rsxSetClearColor
 *fill*         0x0000000000019a14        0x4 60000000
 .text.rsxSetClearDepthValue
                0x0000000000019a18       0x8c /opt/ps3dev/psl1ght/ppu/lib/librsx.a(commands.o)
                0x0000000000019a18                .rsxSetClearDepthValue
 *fill*         0x0000000000019aa4        0x4 60000000
 .text.rsxSetReferenceCommand
                0x0000000000019aa8       0x8c /opt/ps3dev/psl1ght/ppu/lib/librsx.a(commands.o)
                0x0000000000019aa8                .rsxSetReferenceCommand
 *fill*         0x0000000000019b34        0x4 60000000
 .text.rsxSetWriteBackendLabel
                0x0000000000019b38       0xc4 /opt/ps3dev/psl1ght/ppu/lib/librsx.a(commands.o)
                0x0000000000019b38                .rsxSetWriteBackendLabel
 *fill*         0x0000000000019bfc        0x4 60000000
 .text.rsxSetWaitLabel
                0x0000000000019c00       0xa4 /opt/ps3dev/psl1ght/ppu/lib/librsx.a(commands.o)
                0x0000000000019c00                .rsxSetWaitLabel
 *fill*         0x0000000000019ca4        0x4 60000000
 .text.rsxSetWriteCommandLabel
                0x0000000000019ca8       0xa4 /opt/ps3dev/psl1ght/ppu/lib/librsx.a(commands.o)
                0x0000000000019ca8                .rsxSetWriteCommandLabel
 *fill*         0x0000000000019d4c        0x4 60000000
 .text.rsxSetSurface
                0x0000000000019d50      0x21c /opt/ps3dev/psl1ght/ppu/lib/librsx.a(commands.o)
                0x0000000000019d50                .rsxSetSurface
 *fill*         0x0000000000019f6c        0x4 60000000
 .text.rsxSetColorMask
                0x0000000000019f70       0x8c /opt/ps3dev/psl1ght/ppu/lib/librsx.a(commands.o)
                0x0000000000019f70                .rsxSetColorMask
 *fill*         0x0000000000019ffc        0x4 60000000
 .text.rsxSetColorMaskMRT
                0x000000000001a000       0x8c /opt/ps3dev/psl1ght/ppu/lib/librsx.a(commands.o)
                0x000000000001a000                .rsxSetColorMaskMRT
 *fill*         0x000000000001a08c        0x4 60000000
 .text.rsxSetShadeModel
                0x000000000001a090       0x8c /opt/ps3dev/psl1ght/ppu/lib/librsx.a(commands.o)
                0x000000000001a090                .rsxSetShadeModel
 *fill*         0x000000000001a11c        0x4 60000000
 .text.rsxSetViewport
                0x000000000001a120      0x1ac /opt/ps3dev/psl1ght/ppu/lib/librsx.a(commands.o)
                0x000000000001a120                .rsxSetViewport
 *fill*         0x000000000001a2cc        0x4 60000000
 .text.rsxSetViewportClip
                0x000000000001a2d0       0xb4 /opt/ps3dev/psl1ght/ppu/lib/librsx.a(commands.o)
                0x000000000001a2d0                .rsxSetViewportClip
 *fill*         0x000000000001a384        0x4 60000000
 .text.rsxSetUserClipPlaneControl
                0x000000000001a388       0xdc /opt/ps3dev/psl1ght/ppu/lib/librsx.a(commands.o)
                0x000000000001a388                .rsxSetUserClipPlaneControl
 *fill*         0x000000000001a464        0x4 60000000
 .text.rsxSetDepthTestEnable
                0x000000000001a468       0x8c /opt/ps3dev/psl1ght/ppu/lib/librsx.a(commands.o)
                0x000000000001a468                .rsxSetDepthTestEnable
 *fill*         0x000000000001a4f4        0x4 60000000
 .text.rsxSetDepthFunc
                0x000000000001a4f8       0x8c /opt/ps3dev/psl1ght/ppu/lib/librsx.a(commands.o)
                0x000000000001a4f8                .rsxSetDepthFunc
 *fill*         0x000000000001a584        0x4 60000000
 .text.rsxSetDepthWriteEnable
                0x000000000001a588       0x8c /opt/ps3dev/psl1ght/ppu/lib/librsx.a(commands.o)
                0x000000000001a588                .rsxSetDepthWriteEnable
 *fill*         0x000000000001a614        0x4 60000000
 .text.rsxSetCullFaceEnable
                0x000000000001a618       0x8c /opt/ps3dev/psl1ght/ppu/lib/librsx.a(commands.o)
                0x000000000001a618                .rsxSetCullFaceEnable
 *fill*         0x000000000001a6a4        0x4 60000000
 .text.rsxSetCullFace
                0x000000000001a6a8       0x8c /opt/ps3dev/psl1ght/ppu/lib/librsx.a(commands.o)
                0x000000000001a6a8                .rsxSetCullFace
 *fill*         0x000000000001a734        0x4 60000000
 .text.rsxSetFrontFace
                0x000000000001a738       0x8c /opt/ps3dev/psl1ght/ppu/lib/librsx.a(commands.o)
                0x000000000001a738                .rsxSetFrontFace
 *fill*         0x000000000001a7c4        0x4 60000000
 .text.rsxClearSurface
                0x000000000001a7c8       0xa4 /opt/ps3dev/psl1ght/ppu/lib/librsx.a(commands.o)
                0x000000000001a7c8                .rsxClearSurface
 *fill*         0x000000000001a86c        0x4 60000000
 .text.rsxLoadVertexProgramBlock
                0x000000000001a870      0x2fc /opt/ps3dev/psl1ght/ppu/lib/librsx.a(commands.o)
                0x000000000001a870                .rsxLoadVertexProgramBlock
 *fill*         0x000000000001ab6c        0x4 60000000
 .text.rsxLoadFragmentProgramLocation
                0x000000000001ab70      0x1c8 /opt/ps3dev/psl1ght/ppu/lib/librsx.a(commands.o)
                0x000000000001ab70                .rsxLoadFragmentProgramLocation
 .text.rsxLoadVertexProgramParameterBlock
                0x000000000001ad38      0x140 /opt/ps3dev/psl1ght/ppu/lib/librsx.a(commands.o)
                0x000000000001ad38                .rsxLoadVertexProgramParameterBlock
 .text.rsxLoadVertexProgram
                0x000000000001ae78       0xfc /opt/ps3dev/psl1ght/ppu/lib/librsx.a(commands.o)
                0x000000000001ae78                .rsxLoadVertexProgram
 *fill*         0x000000000001af74        0x4 60000000
 .text.rsxSetVertexProgramParameter
                0x000000000001af78       0x84 /opt/ps3dev/psl1ght/ppu/lib/librsx.a(commands.o)
                0x000000000001af78                .rsxSetVertexProgramParameter
 *fill*         0x000000000001affc        0x4 60000000
 .text.rsxDrawVertexBegin
                0x000000000001b000       0x8c /opt/ps3dev/psl1ght/ppu/lib/librsx.a(commands.o)
                0x000000000001b000                .rsxDrawVertexBegin
 *fill*         0x000000000001b08c        0x4 60000000
 .text.rsxDrawVertexEnd
                0x000000000001b090       0x84 /opt/ps3dev/psl1ght/ppu/lib/librsx.a(commands.o)
                0x000000000001b090                .rsxDrawVertexEnd
 *fill*         0x000000000001b114        0x4 60000000
 .text.rsxDrawVertex2f
                0x000000000001b118       0xbc /opt/ps3dev/psl1ght/ppu/lib/librsx.a(commands.o)
                0x000000000001b118                .rsxDrawVertex2f
 *fill*         0x000000000001b1d4        0x4 60000000
 .text.rsxDrawVertex3f
                0x000000000001b1d8       0xd4 /opt/ps3dev/psl1ght/ppu/lib/librsx.a(commands.o)
                0x000000000001b1d8                .rsxDrawVertex3f
 *fill*         0x000000000001b2ac        0x4 60000000
 .text.rsxDrawVertex4f
                0x000000000001b2b0       0xec /opt/ps3dev/psl1ght/ppu/lib/librsx.a(commands.o)
                0x000000000001b2b0                .rsxDrawVertex4f
 *fill*         0x000000000001b39c        0x4 60000000
 .text.rsxInvalidateTextureCache
                0x000000000001b3a0       0x8c /opt/ps3dev/psl1ght/ppu/lib/librsx.a(commands.o)
                0x000000000001b3a0                .rsxInvalidateTextureCache
 *fill*         0x000000000001b42c        0x4 60000000
 .text.rsxLoadTexture
                0x000000000001b430      0x14c /opt/ps3dev/psl1ght/ppu/lib/librsx.a(commands.o)
                0x000000000001b430                .rsxLoadTexture
 *fill*         0x000000000001b57c        0x4 60000000
 .text.rsxTextureControl
                0x000000000001b580       0xcc /opt/ps3dev/psl1ght/ppu/lib/librsx.a(commands.o)
                0x000000000001b580                .rsxTextureControl
 *fill*         0x000000000001b64c        0x4 60000000
 .text.rsxTextureFilter
                0x000000000001b650       0xbc /opt/ps3dev/psl1ght/ppu/lib/librsx.a(commands.o)
                0x000000000001b650                .rsxTextureFilter
 *fill*         0x000000000001b70c        0x4 60000000
 .text.rsxTextureWrapMode
                0x000000000001b710       0xec /opt/ps3dev/psl1ght/ppu/lib/librsx.a(commands.o)
                0x000000000001b710                .rsxTextureWrapMode
 *fill*         0x000000000001b7fc        0x4 60000000
 .text.rsxZControl
                0x000000000001b800       0xac /opt/ps3dev/psl1ght/ppu/lib/librsx.a(commands.o)
                0x000000000001b800                .rsxZControl
 *fill*         0x000000000001b8ac        0x4 60000000
 .text.rsxBindVertexArrayAttrib
                0x000000000001b8b0       0xec /opt/ps3dev/psl1ght/ppu/lib/librsx.a(commands.o)
                0x000000000001b8b0                .rsxBindVertexArrayAttrib
 *fill*         0x000000000001b99c        0x4 60000000
 .text.rsxDrawVertexArray
                0x000000000001b9a0      0x1f8 /opt/ps3dev/psl1ght/ppu/lib/librsx.a(commands.o)
                0x000000000001b9a0                .rsxDrawVertexArray
 .text.rsxDrawIndexArray
                0x000000000001bb98      0x220 /opt/ps3dev/psl1ght/ppu/lib/librsx.a(commands.o)
                0x000000000001bb98                .rsxDrawIndexArray
 .text.rsxSetScissor
                0x000000000001bdb8       0xbc /opt/ps3dev/psl1ght/ppu/lib/librsx.a(commands.o)
                0x000000000001bdb8                .rsxSetScissor
 *fill*         0x000000000001be74        0x4 60000000
 .text.rsxInlineTransfer
                0x000000000001be78      0x19c /opt/ps3dev/psl1ght/ppu/lib/librsx.a(commands.o)
                0x000000000001be78                .rsxInlineTransfer
 *fill*         0x000000000001c014        0x4 60000000
 .text.rsxSetFragmentProgramParameter
                0x000000000001c018      0x298 /opt/ps3dev/psl1ght/ppu/lib/librsx.a(commands.o)
                0x000000000001c018                .rsxSetFragmentProgramParameter
 .text.rsxSetBlendFunc
                0x000000000001c2b0       0xbc /opt/ps3dev/psl1ght/ppu/lib/librsx.a(commands.o)
                0x000000000001c2b0                .rsxSetBlendFunc
 *fill*         0x000000000001c36c        0x4 60000000
 .text.rsxSetBlendEquation
                0x000000000001c370       0x9c /opt/ps3dev/psl1ght/ppu/lib/librsx.a(commands.o)
                0x000000000001c370                .rsxSetBlendEquation
 *fill*         0x000000000001c40c        0x4 60000000
 .text.rsxSetBlendColor
                0x000000000001c410       0xa4 /opt/ps3dev/psl1ght/ppu/lib/librsx.a(commands.o)
                0x000000000001c410                .rsxSetBlendColor
 *fill*         0x000000000001c4b4        0x4 60000000
 .text.rsxSetBlendEnable
                0x000000000001c4b8       0x8c /opt/ps3dev/psl1ght/ppu/lib/librsx.a(commands.o)
                0x000000000001c4b8                .rsxSetBlendEnable
 *fill*         0x000000000001c544        0x4 60000000
 .text.rsxSetTransformBranchBits
                0x000000000001c548       0x8c /opt/ps3dev/psl1ght/ppu/lib/librsx.a(commands.o)
                0x000000000001c548                .rsxSetTransformBranchBits
 *fill*         0x000000000001c5d4        0x4 60000000
 .text.rsxSetTransferData
                0x000000000001c5d8      0x12c /opt/ps3dev/psl1ght/ppu/lib/librsx.a(commands.o)
                0x000000000001c5d8                .rsxSetTransferData
 *fill*         0x000000000001c704        0x4 60000000
 .text.rsxSetTransferDataMode
                0x000000000001c708       0xc4 /opt/ps3dev/psl1ght/ppu/lib/librsx.a(commands.o)
                0x000000000001c708                .rsxSetTransferDataMode
 *fill*         0x000000000001c7cc        0x4 60000000
 .text.rsxSetTransferDataOffset
                0x000000000001c7d0       0xac /opt/ps3dev/psl1ght/ppu/lib/librsx.a(commands.o)
                0x000000000001c7d0                .rsxSetTransferDataOffset
 *fill*         0x000000000001c87c        0x4 60000000
 .text.rsxSetTransferDataFormat
                0x000000000001c880       0xcc /opt/ps3dev/psl1ght/ppu/lib/librsx.a(commands.o)
                0x000000000001c880                .rsxSetTransferDataFormat
 *fill*         0x000000000001c94c        0x4 60000000
 .text.rsxSetTransferImage
                0x000000000001c950      0x28c /opt/ps3dev/psl1ght/ppu/lib/librsx.a(commands.o)
                0x000000000001c950                .rsxSetTransferImage
 *fill*         0x000000000001cbdc        0x4 60000000
 .text.rsxSetTransferScaleMode
                0x000000000001cbe0      0x18c /opt/ps3dev/psl1ght/ppu/lib/librsx.a(commands.o)
                0x000000000001cbe0                .rsxSetTransferScaleMode
 *fill*         0x000000000001cd6c        0x4 60000000
 .text.rsxSetTransferScaleSurface
                0x000000000001cd70      0x1a4 /opt/ps3dev/psl1ght/ppu/lib/librsx.a(commands.o)
                0x000000000001cd70                .rsxSetTransferScaleSurface
 *fill*         0x000000000001cf14        0x4 60000000
 .text.rsxSetTimeStamp
                0x000000000001cf18       0x94 /opt/ps3dev/psl1ght/ppu/lib/librsx.a(commands.o)
                0x000000000001cf18                .rsxSetTimeStamp
 .text          0x000000000001cfac        0x0 /opt/ps3dev/psl1ght/ppu/lib/librsx.a(mm.o)
 *fill*         0x000000000001cfac        0x4 60000000
 .text.rsxHeapInit
                0x000000000001cfb0       0x78 /opt/ps3dev/psl1ght/ppu/lib/librsx.a(mm.o)
                0x000000000001cfb0                .rsxHeapInit
 .text.rsxMemalign
                0x000000000001d028       0x54 /opt/ps3dev/psl1ght/ppu/lib/librsx.a(mm.o)
                0x000000000001d028                .rsxMemalign
 *fill*         0x000000000001d07c        0x4 60000000
 .text.rsxMalloc
                0x000000000001d080       0x54 /opt/ps3dev/psl1ght/ppu/lib/librsx.a(mm.o)
                0x000000000001d080                .rsxMalloc
 *fill*         0x000000000001d0d4        0x4 60000000
 .text.rsxFree  0x000000000001d0d8       0x48 /opt/ps3dev/psl1ght/ppu/lib/librsx.a(mm.o)
                0x000000000001d0d8                .rsxFree
 .text          0x000000000001d120        0x0 /opt/ps3dev/psl1ght/ppu/lib/librsx.a(vertex_program.o)
 .text.rsxVertexProgramGetUCode
                0x000000000001d120       0x18 /opt/ps3dev/psl1ght/ppu/lib/librsx.a(vertex_program.o)
                0x000000000001d120                .rsxVertexProgramGetUCode
 .text.rsxVertexProgramGetConsts
                0x000000000001d138       0x18 /opt/ps3dev/psl1ght/ppu/lib/librsx.a(vertex_program.o)
                0x000000000001d138                .rsxVertexProgramGetConsts
 .text.rsxVertexProgramGetConst
                0x000000000001d150       0xd4 /opt/ps3dev/psl1ght/ppu/lib/librsx.a(vertex_program.o)
                0x000000000001d150                .rsxVertexProgramGetConst
 *fill*         0x000000000001d224        0x4 60000000
 .text.rsxVertexProgramGetAttribs
                0x000000000001d228       0x18 /opt/ps3dev/psl1ght/ppu/lib/librsx.a(vertex_program.o)
                0x000000000001d228                .rsxVertexProgramGetAttribs
 .text.rsxVertexProgramGetAttrib
                0x000000000001d240       0xf0 /opt/ps3dev/psl1ght/ppu/lib/librsx.a(vertex_program.o)
                0x000000000001d240                .rsxVertexProgramGetAttrib
 .text          0x000000000001d330        0x0 /opt/ps3dev/psl1ght/ppu/lib/librsx.a(fragment_program.o)
 .text.rsxFragmentProgramGetUCode
                0x000000000001d330       0x24 /opt/ps3dev/psl1ght/ppu/lib/librsx.a(fragment_program.o)
                0x000000000001d330                .rsxFragmentProgramGetUCode
 *fill*         0x000000000001d354        0x4 60000000
 .text.rsxFragmentProgramGetConsts
                0x000000000001d358       0x18 /opt/ps3dev/psl1ght/ppu/lib/librsx.a(fragment_program.o)
                0x000000000001d358                .rsxFragmentProgramGetConsts
 .text.rsxFragmentProgramGetConst
                0x000000000001d370       0xd4 /opt/ps3dev/psl1ght/ppu/lib/librsx.a(fragment_program.o)
                0x000000000001d370                .rsxFragmentProgramGetConst
 *fill*         0x000000000001d444        0x4 60000000
 .text.rsxFragmentProgramGetAttribs
                0x000000000001d448       0x18 /opt/ps3dev/psl1ght/ppu/lib/librsx.a(fragment_program.o)
                0x000000000001d448                .rsxFragmentProgramGetAttribs
 .text.rsxFragmentProgramGetAttrib
                0x000000000001d460       0xf0 /opt/ps3dev/psl1ght/ppu/lib/librsx.a(fragment_program.o)
                0x000000000001d460                .rsxFragmentProgramGetAttrib
 .text.rsxFragmentProgramGetConstOffsetTable
                0x000000000001d550       0x14 /opt/ps3dev/psl1ght/ppu/lib/librsx.a(fragment_program.o)
                0x000000000001d550                .rsxFragmentProgramGetConstOffsetTable
 .text          0x000000000001d564        0x0 /opt/ps3dev/psl1ght/ppu/lib/libsysutil.a(sprx.o)
 .text          0x000000000001d564        0x0 /opt/ps3dev/psl1ght/ppu/lib/libsysutil.a(sysutil_wrapper.o)
 *fill*         0x000000000001d564        0x4 60000000
 .text.sysUtilRegisterCallback
                0x000000000001d568       0x34 /opt/ps3dev/psl1ght/ppu/lib/libsysutil.a(sysutil_wrapper.o)
                0x000000000001d568                .sysUtilRegisterCallback
 *fill*         0x000000000001d59c        0x4 60000000
 .text.msgDialogOpen
                0x000000000001d5a0       0x34 /opt/ps3dev/psl1ght/ppu/lib/libsysutil.a(sysutil_wrapper.o)
                0x000000000001d5a0                .msgDialogOpen
 *fill*         0x000000000001d5d4        0x4 60000000
 .text.msgDialogOpen2
                0x000000000001d5d8       0x34 /opt/ps3dev/psl1ght/ppu/lib/libsysutil.a(sysutil_wrapper.o)
                0x000000000001d5d8                .msgDialogOpen2
 *fill*         0x000000000001d60c        0x4 60000000
 .text.msgDialogOpenErrorCode
                0x000000000001d610       0x34 /opt/ps3dev/psl1ght/ppu/lib/libsysutil.a(sysutil_wrapper.o)
                0x000000000001d610                .msgDialogOpenErrorCode
 *fill*         0x000000000001d644        0x4 60000000
 .text.sysSaveListLoad2
                0x000000000001d648       0x3c /opt/ps3dev/psl1ght/ppu/lib/libsysutil.a(sysutil_wrapper.o)
                0x000000000001d648                .sysSaveListLoad2
 *fill*         0x000000000001d684        0x4 60000000
 .text.sysSaveListSave2
                0x000000000001d688       0x3c /opt/ps3dev/psl1ght/ppu/lib/libsysutil.a(sysutil_wrapper.o)
                0x000000000001d688                .sysSaveListSave2
 *fill*         0x000000000001d6c4        0x4 60000000
 .text.sysSaveListAutoLoad
                0x000000000001d6c8       0x44 /opt/ps3dev/psl1ght/ppu/lib/libsysutil.a(sysutil_wrapper.o)
                0x000000000001d6c8                .sysSaveListAutoLoad
 *fill*         0x000000000001d70c        0x4 60000000
 .text.sysSaveListAutoSave
                0x000000000001d710       0x44 /opt/ps3dev/psl1ght/ppu/lib/libsysutil.a(sysutil_wrapper.o)
                0x000000000001d710                .sysSaveListAutoSave
 *fill*         0x000000000001d754        0x4 60000000
 .text.sysSaveFixedLoad2
                0x000000000001d758       0x3c /opt/ps3dev/psl1ght/ppu/lib/libsysutil.a(sysutil_wrapper.o)
                0x000000000001d758                .sysSaveFixedLoad2
 *fill*         0x000000000001d794        0x4 60000000
 .text.sysSaveFixedSave2
                0x000000000001d798       0x3c /opt/ps3dev/psl1ght/ppu/lib/libsysutil.a(sysutil_wrapper.o)
                0x000000000001d798                .sysSaveFixedSave2
 *fill*         0x000000000001d7d4        0x4 60000000
 .text.sysSaveAutoLoad2
                0x000000000001d7d8       0x38 /opt/ps3dev/psl1ght/ppu/lib/libsysutil.a(sysutil_wrapper.o)
                0x000000000001d7d8                .sysSaveAutoLoad2
 .text.sysSaveAutoSave2
                0x000000000001d810       0x38 /opt/ps3dev/psl1ght/ppu/lib/libsysutil.a(sysutil_wrapper.o)
                0x000000000001d810                .sysSaveAutoSave2
 .text.sysGameThemeInstallFromBuffer
                0x000000000001d848       0x34 /opt/ps3dev/psl1ght/ppu/lib/libsysutil.a(sysutil_wrapper.o)
                0x000000000001d848                .sysGameThemeInstallFromBuffer
 *fill*         0x000000000001d87c        0x4 60000000
 .text.sysGameDiscRegisterDiscChangeCallback
                0x000000000001d880       0x38 /opt/ps3dev/psl1ght/ppu/lib/libsysutil.a(sysutil_wrapper.o)
                0x000000000001d880                .sysGameDiscRegisterDiscChangeCallback
 .text.sysDiscRegisterDiscChangeCallback
                0x000000000001d8b8       0x38 /opt/ps3dev/psl1ght/ppu/lib/libsysutil.a(sysutil_wrapper.o)
                0x000000000001d8b8                .sysDiscRegisterDiscChangeCallback
 .text          0x000000000001d8f0        0x0 /opt/ps3dev/psl1ght/ppu/lib/libio.a(sprx.o)
 .text          0x000000000001d8f0        0x0 /opt/ps3dev/psl1ght/ppu/lib/libpngdec.a(pngdec.o)
 .text.png_malloc
                0x000000000001d8f0       0x30 /opt/ps3dev/psl1ght/ppu/lib/libpngdec.a(pngdec.o)
 .text.png_free
                0x000000000001d920       0x30 /opt/ps3dev/psl1ght/ppu/lib/libpngdec.a(pngdec.o)
 .text.decodePNG
                0x000000000001d950      0x298 /opt/ps3dev/psl1ght/ppu/lib/libpngdec.a(pngdec.o)
 .text.pngLoadFromFile
                0x000000000001dbe8       0x60 /opt/ps3dev/psl1ght/ppu/lib/libpngdec.a(pngdec.o)
                0x000000000001dbe8                .pngLoadFromFile
 .text.pngLoadFromBuffer
                0x000000000001dc48       0x70 /opt/ps3dev/psl1ght/ppu/lib/libpngdec.a(pngdec.o)
                0x000000000001dc48                .pngLoadFromBuffer
 .text          0x000000000001dcb8        0x0 /opt/ps3dev/psl1ght/ppu/lib/libpngdec.a(sprx.o)
 .text          0x000000000001dcb8        0x0 /opt/ps3dev/ppu/lib/gcc/powerpc64-ps3-elf/4.7.0/../../../../powerpc64-ps3-elf/lib/libm.a(lib_a-sf_cos.o)
 .text.cosf     0x000000000001dcb8      0x10c /opt/ps3dev/ppu/lib/gcc/powerpc64-ps3-elf/4.7.0/../../../../powerpc64-ps3-elf/lib/libm.a(lib_a-sf_cos.o)
                0x000000000001dcb8                .cosf
 .text          0x000000000001ddc4        0x0 /opt/ps3dev/ppu/lib/gcc/powerpc64-ps3-elf/4.7.0/../../../../powerpc64-ps3-elf/lib/libm.a(lib_a-sf_sin.o)
 *fill*         0x000000000001ddc4        0x4 60000000
 .text.sinf     0x000000000001ddc8      0x114 /opt/ps3dev/ppu/lib/gcc/powerpc64-ps3-elf/4.7.0/../../../../powerpc64-ps3-elf/lib/libm.a(lib_a-sf_sin.o)
                0x000000000001ddc8                .sinf
 .text          0x000000000001dedc        0x0 /opt/ps3dev/ppu/lib/gcc/powerpc64-ps3-elf/4.7.0/../../../../powerpc64-ps3-elf/lib/libm.a(lib_a-sf_tan.o)
 *fill*         0x000000000001dedc        0x4 60000000
 .text.tanf     0x000000000001dee0       0xb8 /opt/ps3dev/ppu/lib/gcc/powerpc64-ps3-elf/4.7.0/../../../../powerpc64-ps3-elf/lib/libm.a(lib_a-sf_tan.o)
                0x000000000001dee0                .tanf
 .text          0x000000000001df98        0x0 /opt/ps3dev/ppu/lib/gcc/powerpc64-ps3-elf/4.7.0/../../../../powerpc64-ps3-elf/lib/libm.a(lib_a-wf_sqrt.o)
 .text.sqrtf    0x000000000001df98      0x150 /opt/ps3dev/ppu/lib/gcc/powerpc64-ps3-elf/4.7.0/../../../../powerpc64-ps3-elf/lib/libm.a(lib_a-wf_sqrt.o)
                0x000000000001df98                .sqrtf
 .text          0x000000000001e0e8        0x0 /opt/ps3dev/ppu/lib/gcc/powerpc64-ps3-elf/4.7.0/../../../../powerpc64-ps3-elf/lib/libm.a(lib_a-ef_rem_pio2.o)
 .text.__ieee754_rem_pio2f
                0x000000000001e0e8      0x498 /opt/ps3dev/ppu/lib/gcc/powerpc64-ps3-elf/4.7.0/../../../../powerpc64-ps3-elf/lib/libm.a(lib_a-ef_rem_pio2.o)
                0x000000000001e0e8                .__ieee754_rem_pio2f
 .text          0x000000000001e580        0x0 /opt/ps3dev/ppu/lib/gcc/powerpc64-ps3-elf/4.7.0/../../../../powerpc64-ps3-elf/lib/libm.a(lib_a-ef_sqrt.o)
 .text.__ieee754_sqrtf
                0x000000000001e580      0x178 /opt/ps3dev/ppu/lib/gcc/powerpc64-ps3-elf/4.7.0/../../../../powerpc64-ps3-elf/lib/libm.a(lib_a-ef_sqrt.o)
                0x000000000001e580                .__ieee754_sqrtf
 .text          0x000000000001e6f8        0x0 /opt/ps3dev/ppu/lib/gcc/powerpc64-ps3-elf/4.7.0/../../../../powerpc64-ps3-elf/lib/libm.a(lib_a-kf_cos.o)
 .text.__kernel_cosf
                0x000000000001e6f8      0x1b8 /opt/ps3dev/ppu/lib/gcc/powerpc64-ps3-elf/4.7.0/../../../../powerpc64-ps3-elf/lib/libm.a(lib_a-kf_cos.o)
                0x000000000001e6f8                .__kernel_cosf
 .text          0x000000000001e8b0        0x0 /opt/ps3dev/ppu/lib/gcc/powerpc64-ps3-elf/4.7.0/../../../../powerpc64-ps3-elf/lib/libm.a(lib_a-kf_rem_pio2.o)
 .text.__kernel_rem_pio2f
                0x000000000001e8b0      0xc44 /opt/ps3dev/ppu/lib/gcc/powerpc64-ps3-elf/4.7.0/../../../../powerpc64-ps3-elf/lib/libm.a(lib_a-kf_rem_pio2.o)
                0x000000000001e8b0                .__kernel_rem_pio2f
 .text          0x000000000001f4f4        0x0 /opt/ps3dev/ppu/lib/gcc/powerpc64-ps3-elf/4.7.0/../../../../powerpc64-ps3-elf/lib/libm.a(lib_a-kf_sin.o)
 *fill*         0x000000000001f4f4        0x4 60000000
 .text.__kernel_sinf
                0x000000000001f4f8       0xe0 /opt/ps3dev/ppu/lib/gcc/powerpc64-ps3-elf/4.7.0/../../../../powerpc64-ps3-elf/lib/libm.a(lib_a-kf_sin.o)
                0x000000000001f4f8                .__kernel_sinf
 .text          0x000000000001f5d8        0x0 /opt/ps3dev/ppu/lib/gcc/powerpc64-ps3-elf/4.7.0/../../../../powerpc64-ps3-elf/lib/libm.a(lib_a-kf_tan.o)
 .text.__kernel_tanf
                0x000000000001f5d8      0x340 /opt/ps3dev/ppu/lib/gcc/powerpc64-ps3-elf/4.7.0/../../../../powerpc64-ps3-elf/lib/libm.a(lib_a-kf_tan.o)
                0x000000000001f5d8                .__kernel_tanf
 .text          0x000000000001f918        0x0 /opt/ps3dev/ppu/lib/gcc/powerpc64-ps3-elf/4.7.0/../../../../powerpc64-ps3-elf/lib/libm.a(lib_a-sf_fabs.o)
 .text.fabsf    0x000000000001f918       0x24 /opt/ps3dev/ppu/lib/gcc/powerpc64-ps3-elf/4.7.0/../../../../powerpc64-ps3-elf/lib/libm.a(lib_a-sf_fabs.o)
                0x000000000001f918                .fabsf
 .text          0x000000000001f93c        0x0 /opt/ps3dev/ppu/lib/gcc/powerpc64-ps3-elf/4.7.0/../../../../powerpc64-ps3-elf/lib/libm.a(lib_a-sf_floor.o)
 *fill*         0x000000000001f93c        0x4 60000000
 .text.floorf   0x000000000001f940      0x11c /opt/ps3dev/ppu/lib/gcc/powerpc64-ps3-elf/4.7.0/../../../../powerpc64-ps3-elf/lib/libm.a(lib_a-sf_floor.o)
                0x000000000001f940                .floorf
 .text          0x000000000001fa5c        0x0 /opt/ps3dev/ppu/lib/gcc/powerpc64-ps3-elf/4.7.0/../../../../powerpc64-ps3-elf/lib/libm.a(lib_a-sf_fpclassify.o)
 *fill*         0x000000000001fa5c        0x4 60000000
 .text.__fpclassifyf
                0x000000000001fa60       0xa8 /opt/ps3dev/ppu/lib/gcc/powerpc64-ps3-elf/4.7.0/../../../../powerpc64-ps3-elf/lib/libm.a(lib_a-sf_fpclassify.o)
                0x000000000001fa60                .__fpclassifyf
 .text          0x000000000001fb08        0x0 /opt/ps3dev/ppu/lib/gcc/powerpc64-ps3-elf/4.7.0/../../../../powerpc64-ps3-elf/lib/libm.a(lib_a-sf_scalbn.o)
 .text.scalbnf  0x000000000001fb08      0x1a4 /opt/ps3dev/ppu/lib/gcc/powerpc64-ps3-elf/4.7.0/../../../../powerpc64-ps3-elf/lib/libm.a(lib_a-sf_scalbn.o)
                0x000000000001fb08                .scalbnf
 .text          0x000000000001fcac        0x0 /opt/ps3dev/ppu/lib/gcc/powerpc64-ps3-elf/4.7.0/../../../../powerpc64-ps3-elf/lib/libm.a(lib_a-s_lib_ver.o)
 .text          0x000000000001fcac        0x0 /opt/ps3dev/ppu/lib/gcc/powerpc64-ps3-elf/4.7.0/../../../../powerpc64-ps3-elf/lib/libm.a(lib_a-s_matherr.o)
 *fill*         0x000000000001fcac        0x4 60000000
 .text.matherr  0x000000000001fcb0       0x14 /opt/ps3dev/ppu/lib/gcc/powerpc64-ps3-elf/4.7.0/../../../../powerpc64-ps3-elf/lib/libm.a(lib_a-s_matherr.o)
                0x000000000001fcb0                .matherr
 .text          0x000000000001fcc4        0x0 /opt/ps3dev/ppu/lib/gcc/powerpc64-ps3-elf/4.7.0/../../../../powerpc64-ps3-elf/lib/libm.a(lib_a-sf_copysign.o)
 *fill*         0x000000000001fcc4        0x4 60000000
 .text.copysignf
                0x000000000001fcc8       0x34 /opt/ps3dev/ppu/lib/gcc/powerpc64-ps3-elf/4.7.0/../../../../powerpc64-ps3-elf/lib/libm.a(lib_a-sf_copysign.o)
                0x000000000001fcc8                .copysignf
 .text          0x000000000001fcfc        0x0 /opt/ps3dev/ppu/lib/gcc/powerpc64-ps3-elf/4.7.0/../../../../powerpc64-ps3-elf/lib/libsysbase.a(syscalls.o)
 .text          0x000000000001fcfc        0x0 /opt/ps3dev/ppu/lib/gcc/powerpc64-ps3-elf/4.7.0/../../../../powerpc64-ps3-elf/lib/libsysbase.a(sleep.o)
 *fill*         0x000000000001fcfc        0x4 60000000
 .text.usleep   0x000000000001fd00       0x80 /opt/ps3dev/ppu/lib/gcc/powerpc64-ps3-elf/4.7.0/../../../../powerpc64-ps3-elf/lib/libsysbase.a(sleep.o)
                0x000000000001fd00                .usleep
 .text.sleep    0x000000000001fd80       0x94 /opt/ps3dev/ppu/lib/gcc/powerpc64-ps3-elf/4.7.0/../../../../powerpc64-ps3-elf/lib/libsysbase.a(sleep.o)
                0x000000000001fd80                .sleep
 .text          0x000000000001fe14        0x0 /opt/ps3dev/ppu/lib/gcc/powerpc64-ps3-elf/4.7.0/../../../../powerpc64-ps3-elf/lib/libc.a(lib_a-assert.o)
 *fill*         0x000000000001fe14        0x4 60000000
 .text.__assert_func
                0x000000000001fe18       0x80 /opt/ps3dev/ppu/lib/gcc/powerpc64-ps3-elf/4.7.0/../../../../powerpc64-ps3-elf/lib/libc.a(lib_a-assert.o)
                0x000000000001fe18                .__assert_func
 .text.__assert
                0x000000000001fe98       0x24 /opt/ps3dev/ppu/lib/gcc/powerpc64-ps3-elf/4.7.0/../../../../powerpc64-ps3-elf/lib/libc.a(lib_a-assert.o)
                0x000000000001fe98                .__assert
 .text          0x000000000001febc        0x0 /opt/ps3dev/ppu/lib/gcc/powerpc64-ps3-elf/4.7.0/../../../../powerpc64-ps3-elf/lib/libc.a(lib_a-atexit.o)
 *fill*         0x000000000001febc        0x4 60000000
 .text.atexit   0x000000000001fec0       0x40 /opt/ps3dev/ppu/lib/gcc/powerpc64-ps3-elf/4.7.0/../../../../powerpc64-ps3-elf/lib/libc.a(lib_a-atexit.o)
                0x000000000001fec0                .atexit
 .text          0x000000000001ff00        0x0 /opt/ps3dev/ppu/lib/gcc/powerpc64-ps3-elf/4.7.0/../../../../powerpc64-ps3-elf/lib/libc.a(lib_a-errno.o)
 .text.__errno  0x000000000001ff00       0x30 /opt/ps3dev/ppu/lib/gcc/powerpc64-ps3-elf/4.7.0/../../../../powerpc64-ps3-elf/lib/libc.a(lib_a-errno.o)
                0x000000000001ff00                .__errno
 .text          0x000000000001ff30        0x0 /opt/ps3dev/ppu/lib/gcc/powerpc64-ps3-elf/4.7.0/../../../../powerpc64-ps3-elf/lib/libc.a(lib_a-exit.o)
 .text.exit     0x000000000001ff30       0x68 /opt/ps3dev/ppu/lib/gcc/powerpc64-ps3-elf/4.7.0/../../../../powerpc64-ps3-elf/lib/libc.a(lib_a-exit.o)
                0x000000000001ff30                .exit
 .text          0x000000000001ff98        0x0 /opt/ps3dev/ppu/lib/gcc/powerpc64-ps3-elf/4.7.0/../../../../powerpc64-ps3-elf/lib/libc.a(lib_a-fiprintf.o)
 .text._fiprintf_r
                0x000000000001ff98       0x50 /opt/ps3dev/ppu/lib/gcc/powerpc64-ps3-elf/4.7.0/../../../../powerpc64-ps3-elf/lib/libc.a(lib_a-fiprintf.o)
                0x000000000001ff98                ._fiprintf_r
 .text.fiprintf
                0x000000000001ffe8       0x7c /opt/ps3dev/ppu/lib/gcc/powerpc64-ps3-elf/4.7.0/../../../../powerpc64-ps3-elf/lib/libc.a(lib_a-fiprintf.o)
                0x000000000001ffe8                .fiprintf
 .text          0x0000000000020064        0x0 /opt/ps3dev/ppu/lib/gcc/powerpc64-ps3-elf/4.7.0/../../../../powerpc64-ps3-elf/lib/libc.a(lib_a-getreent.o)
 *fill*         0x0000000000020064        0x4 60000000
 .text.__getreent
                0x0000000000020068      0x1f0 /opt/ps3dev/ppu/lib/gcc/powerpc64-ps3-elf/4.7.0/../../../../powerpc64-ps3-elf/lib/libc.a(lib_a-getreent.o)
                0x0000000000020068                .__getreent
 .text          0x0000000000020258        0x0 /opt/ps3dev/ppu/lib/gcc/powerpc64-ps3-elf/4.7.0/../../../../powerpc64-ps3-elf/lib/libc.a(lib_a-impure.o)
 .text          0x0000000000020258        0x0 /opt/ps3dev/ppu/lib/gcc/powerpc64-ps3-elf/4.7.0/../../../../powerpc64-ps3-elf/lib/libc.a(lib_a-malign.o)
 .text.memalign
                0x0000000000020258       0x58 /opt/ps3dev/ppu/lib/gcc/powerpc64-ps3-elf/4.7.0/../../../../powerpc64-ps3-elf/lib/libc.a(lib_a-malign.o)
                0x0000000000020258                .memalign
 .text          0x00000000000202b0        0x0 /opt/ps3dev/ppu/lib/gcc/powerpc64-ps3-elf/4.7.0/../../../../powerpc64-ps3-elf/lib/libc.a(lib_a-malignr.o)
 .text._memalign_r
                0x00000000000202b0      0x214 /opt/ps3dev/ppu/lib/gcc/powerpc64-ps3-elf/4.7.0/../../../../powerpc64-ps3-elf/lib/libc.a(lib_a-malignr.o)
                0x00000000000202b0                ._memalign_r
 .text          0x00000000000204c4        0x0 /opt/ps3dev/ppu/lib/gcc/powerpc64-ps3-elf/4.7.0/../../../../powerpc64-ps3-elf/lib/libc.a(lib_a-malloc.o)
 *fill*         0x00000000000204c4        0x4 60000000
 .text.malloc   0x00000000000204c8       0x48 /opt/ps3dev/ppu/lib/gcc/powerpc64-ps3-elf/4.7.0/../../../../powerpc64-ps3-elf/lib/libc.a(lib_a-malloc.o)
                0x00000000000204c8                .malloc
 .text.free     0x0000000000020510       0x48 /opt/ps3dev/ppu/lib/gcc/powerpc64-ps3-elf/4.7.0/../../../../powerpc64-ps3-elf/lib/libc.a(lib_a-malloc.o)
                0x0000000000020510                .free
 .text          0x0000000000020558        0x0 /opt/ps3dev/ppu/lib/gcc/powerpc64-ps3-elf/4.7.0/../../../../powerpc64-ps3-elf/lib/libc.a(lib_a-mallocr.o)
 .text._malloc_r
                0x0000000000020558      0xa10 /opt/ps3dev/ppu/lib/gcc/powerpc64-ps3-elf/4.7.0/../../../../powerpc64-ps3-elf/lib/libc.a(lib_a-mallocr.o)
                0x0000000000020558                ._malloc_r
 .text          0x0000000000020f68        0x0 /opt/ps3dev/ppu/lib/gcc/powerpc64-ps3-elf/4.7.0/../../../../powerpc64-ps3-elf/lib/libc.a(lib_a-memcpy.o)
 .text.memcpy   0x0000000000020f68      0x108 /opt/ps3dev/ppu/lib/gcc/powerpc64-ps3-elf/4.7.0/../../../../powerpc64-ps3-elf/lib/libc.a(lib_a-memcpy.o)
                0x0000000000020f68                .memcpy
 .text          0x0000000000021070        0x0 /opt/ps3dev/ppu/lib/gcc/powerpc64-ps3-elf/4.7.0/../../../../powerpc64-ps3-elf/lib/libc.a(lib_a-memset.o)
 .text.memset   0x0000000000021070      0x148 /opt/ps3dev/ppu/lib/gcc/powerpc64-ps3-elf/4.7.0/../../../../powerpc64-ps3-elf/lib/libc.a(lib_a-memset.o)
                0x0000000000021070                .memset
 .text          0x00000000000211b8        0x0 /opt/ps3dev/ppu/lib/gcc/powerpc64-ps3-elf/4.7.0/../../../../powerpc64-ps3-elf/lib/libc.a(lib_a-mlock.o)
 .text.__malloc_lock
                0x00000000000211b8       0x34 /opt/ps3dev/ppu/lib/gcc/powerpc64-ps3-elf/4.7.0/../../../../powerpc64-ps3-elf/lib/libc.a(lib_a-mlock.o)
                0x00000000000211b8                .__malloc_lock
 *fill*         0x00000000000211ec        0x4 60000000
 .text.__malloc_unlock
                0x00000000000211f0       0x34 /opt/ps3dev/ppu/lib/gcc/powerpc64-ps3-elf/4.7.0/../../../../powerpc64-ps3-elf/lib/libc.a(lib_a-mlock.o)
                0x00000000000211f0                .__malloc_unlock
 .text          0x0000000000021224        0x0 /opt/ps3dev/ppu/lib/gcc/powerpc64-ps3-elf/4.7.0/../../../../powerpc64-ps3-elf/lib/libc.a(lib_a-printf.o)
 *fill*         0x0000000000021224        0x4 60000000
 .text._printf_r
                0x0000000000021228       0x60 /opt/ps3dev/ppu/lib/gcc/powerpc64-ps3-elf/4.7.0/../../../../powerpc64-ps3-elf/lib/libc.a(lib_a-printf.o)
                0x0000000000021228                ._printf_r
 .text.printf   0x0000000000021288       0x74 /opt/ps3dev/ppu/lib/gcc/powerpc64-ps3-elf/4.7.0/../../../../powerpc64-ps3-elf/lib/libc.a(lib_a-printf.o)
                0x0000000000021288                .printf
 .text          0x00000000000212fc        0x0 /opt/ps3dev/ppu/lib/gcc/powerpc64-ps3-elf/4.7.0/../../../../powerpc64-ps3-elf/lib/libc.a(lib_a-rand.o)
 *fill*         0x00000000000212fc        0x4 60000000
 .text.srand    0x0000000000021300       0x40 /opt/ps3dev/ppu/lib/gcc/powerpc64-ps3-elf/4.7.0/../../../../powerpc64-ps3-elf/lib/libc.a(lib_a-rand.o)
                0x0000000000021300                .srand
 .text.rand     0x0000000000021340       0x78 /opt/ps3dev/ppu/lib/gcc/powerpc64-ps3-elf/4.7.0/../../../../powerpc64-ps3-elf/lib/libc.a(lib_a-rand.o)
                0x0000000000021340                .rand
 .text          0x00000000000213b8        0x0 /opt/ps3dev/ppu/lib/gcc/powerpc64-ps3-elf/4.7.0/../../../../powerpc64-ps3-elf/lib/libc.a(lib_a-strcasecmp.o)
 .text.strcasecmp
                0x00000000000213b8       0xb8 /opt/ps3dev/ppu/lib/gcc/powerpc64-ps3-elf/4.7.0/../../../../powerpc64-ps3-elf/lib/libc.a(lib_a-strcasecmp.o)
                0x00000000000213b8                .strcasecmp
 .text          0x0000000000021470        0x0 /opt/ps3dev/ppu/lib/gcc/powerpc64-ps3-elf/4.7.0/../../../../powerpc64-ps3-elf/lib/libc.a(lib_a-vfiprintf.o)
 .text.__sprint_r
                0x0000000000021470      0x170 /opt/ps3dev/ppu/lib/gcc/powerpc64-ps3-elf/4.7.0/../../../../powerpc64-ps3-elf/lib/libc.a(lib_a-vfiprintf.o)
                0x0000000000021470                .__sprint_r
 .text._vfiprintf_r
                0x00000000000215e0     0x11a4 /opt/ps3dev/ppu/lib/gcc/powerpc64-ps3-elf/4.7.0/../../../../powerpc64-ps3-elf/lib/libc.a(lib_a-vfiprintf.o)
                0x00000000000215e0                ._vfiprintf_r
 *fill*         0x0000000000022784        0x4 60000000
 .text.vfiprintf
                0x0000000000022788       0x60 /opt/ps3dev/ppu/lib/gcc/powerpc64-ps3-elf/4.7.0/../../../../powerpc64-ps3-elf/lib/libc.a(lib_a-vfiprintf.o)
                0x0000000000022788                .vfiprintf
 .text          0x00000000000227e8        0x0 /opt/ps3dev/ppu/lib/gcc/powerpc64-ps3-elf/4.7.0/../../../../powerpc64-ps3-elf/lib/libc.a(lib_a-vfprintf.o)
 .text._vfprintf_r
                0x00000000000227e8     0x2184 /opt/ps3dev/ppu/lib/gcc/powerpc64-ps3-elf/4.7.0/../../../../powerpc64-ps3-elf/lib/libc.a(lib_a-vfprintf.o)
                0x00000000000227e8                ._vfprintf_r
 *fill*         0x000000000002496c        0x4 60000000
 .text.vfprintf
                0x0000000000024970       0x60 /opt/ps3dev/ppu/lib/gcc/powerpc64-ps3-elf/4.7.0/../../../../powerpc64-ps3-elf/lib/libc.a(lib_a-vfprintf.o)
                0x0000000000024970                .vfprintf
 .text          0x00000000000249d0        0x0 /opt/ps3dev/ppu/lib/gcc/powerpc64-ps3-elf/4.7.0/../../../../powerpc64-ps3-elf/lib/libc.a(lib_a-wsetup.o)
 .text.__swsetup_r
                0x00000000000249d0      0x1fc /opt/ps3dev/ppu/lib/gcc/powerpc64-ps3-elf/4.7.0/../../../../powerpc64-ps3-elf/lib/libc.a(lib_a-wsetup.o)
                0x00000000000249d0                .__swsetup_r
 .text          0x0000000000024bcc        0x0 /opt/ps3dev/ppu/lib/gcc/powerpc64-ps3-elf/4.7.0/../../../../powerpc64-ps3-elf/lib/libc.a(lib_a-abort.o)
 *fill*         0x0000000000024bcc        0x4 60000000
 .text.abort    0x0000000000024bd0       0x30 /opt/ps3dev/ppu/lib/gcc/powerpc64-ps3-elf/4.7.0/../../../../powerpc64-ps3-elf/lib/libc.a(lib_a-abort.o)
                0x0000000000024bd0                .abort
 .text          0x0000000000024c00        0x0 /opt/ps3dev/ppu/lib/gcc/powerpc64-ps3-elf/4.7.0/../../../../powerpc64-ps3-elf/lib/libc.a(lib_a-__atexit.o)
 .text.__register_exitproc
                0x0000000000024c00      0x1b8 /opt/ps3dev/ppu/lib/gcc/powerpc64-ps3-elf/4.7.0/../../../../powerpc64-ps3-elf/lib/libc.a(lib_a-__atexit.o)
                0x0000000000024c00                .__register_exitproc
 .text          0x0000000000024db8        0x0 /opt/ps3dev/ppu/lib/gcc/powerpc64-ps3-elf/4.7.0/../../../../powerpc64-ps3-elf/lib/libc.a(lib_a-__call_atexit.o)
 .text.__call_exitprocs
                0x0000000000024db8      0x24c /opt/ps3dev/ppu/lib/gcc/powerpc64-ps3-elf/4.7.0/../../../../powerpc64-ps3-elf/lib/libc.a(lib_a-__call_atexit.o)
                0x0000000000024db8                .__call_exitprocs
 .text          0x0000000000025004        0x0 /opt/ps3dev/ppu/lib/gcc/powerpc64-ps3-elf/4.7.0/../../../../powerpc64-ps3-elf/lib/libc.a(lib_a-ctype_.o)
 .text          0x0000000000025004        0x0 /opt/ps3dev/ppu/lib/gcc/powerpc64-ps3-elf/4.7.0/../../../../powerpc64-ps3-elf/lib/libc.a(lib_a-dtoa.o)
 *fill*         0x0000000000025004        0x4 60000000
 .text.quorem   0x0000000000025008      0x258 /opt/ps3dev/ppu/lib/gcc/powerpc64-ps3-elf/4.7.0/../../../../powerpc64-ps3-elf/lib/libc.a(lib_a-dtoa.o)
 .text._dtoa_r  0x0000000000025260     0x1350 /opt/ps3dev/ppu/lib/gcc/powerpc64-ps3-elf/4.7.0/../../../../powerpc64-ps3-elf/lib/libc.a(lib_a-dtoa.o)
                0x0000000000025260                ._dtoa_r
 .text          0x00000000000265b0        0x0 /opt/ps3dev/ppu/lib/gcc/powerpc64-ps3-elf/4.7.0/../../../../powerpc64-ps3-elf/lib/libc.a(lib_a-fflush.o)
 .text.__sflush_r
                0x00000000000265b0      0x360 /opt/ps3dev/ppu/lib/gcc/powerpc64-ps3-elf/4.7.0/../../../../powerpc64-ps3-elf/lib/libc.a(lib_a-fflush.o)
                0x00000000000265b0                .__sflush_r
 .text._fflush_r
                0x0000000000026910      0x120 /opt/ps3dev/ppu/lib/gcc/powerpc64-ps3-elf/4.7.0/../../../../powerpc64-ps3-elf/lib/libc.a(lib_a-fflush.o)
                0x0000000000026910                ._fflush_r
 .text.fflush   0x0000000000026a30       0x74 /opt/ps3dev/ppu/lib/gcc/powerpc64-ps3-elf/4.7.0/../../../../powerpc64-ps3-elf/lib/libc.a(lib_a-fflush.o)
                0x0000000000026a30                .fflush
 .text          0x0000000000026aa4        0x0 /opt/ps3dev/ppu/lib/gcc/powerpc64-ps3-elf/4.7.0/../../../../powerpc64-ps3-elf/lib/libc.a(lib_a-findfp.o)
 *fill*         0x0000000000026aa4        0x4 60000000
 .text._cleanup_r
                0x0000000000026aa8       0x34 /opt/ps3dev/ppu/lib/gcc/powerpc64-ps3-elf/4.7.0/../../../../powerpc64-ps3-elf/lib/libc.a(lib_a-findfp.o)
                0x0000000000026aa8                ._cleanup_r
 *fill*         0x0000000000026adc        0x4 60000000
 .text.__fp_unlock
                0x0000000000026ae0       0x58 /opt/ps3dev/ppu/lib/gcc/powerpc64-ps3-elf/4.7.0/../../../../powerpc64-ps3-elf/lib/libc.a(lib_a-findfp.o)
 .text.__fp_lock
                0x0000000000026b38       0x58 /opt/ps3dev/ppu/lib/gcc/powerpc64-ps3-elf/4.7.0/../../../../powerpc64-ps3-elf/lib/libc.a(lib_a-findfp.o)
 .text.std.isra.0
                0x0000000000026b90       0xa0 /opt/ps3dev/ppu/lib/gcc/powerpc64-ps3-elf/4.7.0/../../../../powerpc64-ps3-elf/lib/libc.a(lib_a-findfp.o)
 .text.__sfmoreglue
                0x0000000000026c30       0x94 /opt/ps3dev/ppu/lib/gcc/powerpc64-ps3-elf/4.7.0/../../../../powerpc64-ps3-elf/lib/libc.a(lib_a-findfp.o)
                0x0000000000026c30                .__sfmoreglue
 *fill*         0x0000000000026cc4        0x4 60000000
 .text._cleanup
                0x0000000000026cc8       0x18 /opt/ps3dev/ppu/lib/gcc/powerpc64-ps3-elf/4.7.0/../../../../powerpc64-ps3-elf/lib/libc.a(lib_a-findfp.o)
                0x0000000000026cc8                ._cleanup
 .text.__sfp_lock_acquire
                0x0000000000026ce0       0x34 /opt/ps3dev/ppu/lib/gcc/powerpc64-ps3-elf/4.7.0/../../../../powerpc64-ps3-elf/lib/libc.a(lib_a-findfp.o)
                0x0000000000026ce0                .__sfp_lock_acquire
 *fill*         0x0000000000026d14        0x4 60000000
 .text.__sfp_lock_release
                0x0000000000026d18       0x34 /opt/ps3dev/ppu/lib/gcc/powerpc64-ps3-elf/4.7.0/../../../../powerpc64-ps3-elf/lib/libc.a(lib_a-findfp.o)
                0x0000000000026d18                .__sfp_lock_release
 *fill*         0x0000000000026d4c        0x4 60000000
 .text.__sinit_lock_acquire
                0x0000000000026d50       0x34 /opt/ps3dev/ppu/lib/gcc/powerpc64-ps3-elf/4.7.0/../../../../powerpc64-ps3-elf/lib/libc.a(lib_a-findfp.o)
                0x0000000000026d50                .__sinit_lock_acquire
 *fill*         0x0000000000026d84        0x4 60000000
 .text.__sinit_lock_release
                0x0000000000026d88       0x34 /opt/ps3dev/ppu/lib/gcc/powerpc64-ps3-elf/4.7.0/../../../../powerpc64-ps3-elf/lib/libc.a(lib_a-findfp.o)
                0x0000000000026d88                .__sinit_lock_release
 *fill*         0x0000000000026dbc        0x4 60000000
 .text.__sinit  0x0000000000026dc0       0x9c /opt/ps3dev/ppu/lib/gcc/powerpc64-ps3-elf/4.7.0/../../../../powerpc64-ps3-elf/lib/libc.a(lib_a-findfp.o)
                0x0000000000026dc0                .__sinit
 *fill*         0x0000000000026e5c        0x4 60000000
 .text.__sfp    0x0000000000026e60      0x16c /opt/ps3dev/ppu/lib/gcc/powerpc64-ps3-elf/4.7.0/../../../../powerpc64-ps3-elf/lib/libc.a(lib_a-findfp.o)
                0x0000000000026e60                .__sfp
 *fill*         0x0000000000026fcc        0x4 60000000
 .text.__fp_lock_all
                0x0000000000026fd0       0x40 /opt/ps3dev/ppu/lib/gcc/powerpc64-ps3-elf/4.7.0/../../../../powerpc64-ps3-elf/lib/libc.a(lib_a-findfp.o)
                0x0000000000026fd0                .__fp_lock_all
 .text.__fp_unlock_all
                0x0000000000027010       0x3c /opt/ps3dev/ppu/lib/gcc/powerpc64-ps3-elf/4.7.0/../../../../powerpc64-ps3-elf/lib/libc.a(lib_a-findfp.o)
                0x0000000000027010                .__fp_unlock_all
 .text          0x000000000002704c        0x0 /opt/ps3dev/ppu/lib/gcc/powerpc64-ps3-elf/4.7.0/../../../../powerpc64-ps3-elf/lib/libc.a(lib_a-fputwc.o)
 *fill*         0x000000000002704c        0x4 60000000
 .text._fputwc_r
                0x0000000000027050      0x238 /opt/ps3dev/ppu/lib/gcc/powerpc64-ps3-elf/4.7.0/../../../../powerpc64-ps3-elf/lib/libc.a(lib_a-fputwc.o)
                0x0000000000027050                ._fputwc_r
 .text.fputwc   0x0000000000027288       0xac /opt/ps3dev/ppu/lib/gcc/powerpc64-ps3-elf/4.7.0/../../../../powerpc64-ps3-elf/lib/libc.a(lib_a-fputwc.o)
                0x0000000000027288                .fputwc
 .text          0x0000000000027334        0x0 /opt/ps3dev/ppu/lib/gcc/powerpc64-ps3-elf/4.7.0/../../../../powerpc64-ps3-elf/lib/libc.a(lib_a-freer.o)
 *fill*         0x0000000000027334        0x4 60000000
 .text._malloc_trim_r
                0x0000000000027338      0x15c /opt/ps3dev/ppu/lib/gcc/powerpc64-ps3-elf/4.7.0/../../../../powerpc64-ps3-elf/lib/libc.a(lib_a-freer.o)
                0x0000000000027338                ._malloc_trim_r
 *fill*         0x0000000000027494        0x4 60000000
 .text._free_r  0x0000000000027498      0x348 /opt/ps3dev/ppu/lib/gcc/powerpc64-ps3-elf/4.7.0/../../../../powerpc64-ps3-elf/lib/libc.a(lib_a-freer.o)
                0x0000000000027498                ._free_r
 .text          0x00000000000277e0        0x0 /opt/ps3dev/ppu/lib/gcc/powerpc64-ps3-elf/4.7.0/../../../../powerpc64-ps3-elf/lib/libc.a(lib_a-fvwrite.o)
 .text.__sfvwrite_r
                0x00000000000277e0      0x66c /opt/ps3dev/ppu/lib/gcc/powerpc64-ps3-elf/4.7.0/../../../../powerpc64-ps3-elf/lib/libc.a(lib_a-fvwrite.o)
                0x00000000000277e0                .__sfvwrite_r
 .text          0x0000000000027e4c        0x0 /opt/ps3dev/ppu/lib/gcc/powerpc64-ps3-elf/4.7.0/../../../../powerpc64-ps3-elf/lib/libc.a(lib_a-fwalk.o)
 *fill*         0x0000000000027e4c        0x4 60000000
 .text._fwalk   0x0000000000027e50      0x120 /opt/ps3dev/ppu/lib/gcc/powerpc64-ps3-elf/4.7.0/../../../../powerpc64-ps3-elf/lib/libc.a(lib_a-fwalk.o)
                0x0000000000027e50                ._fwalk
 .text._fwalk_reent
                0x0000000000027f70      0x130 /opt/ps3dev/ppu/lib/gcc/powerpc64-ps3-elf/4.7.0/../../../../powerpc64-ps3-elf/lib/libc.a(lib_a-fwalk.o)
                0x0000000000027f70                ._fwalk_reent
 .text          0x00000000000280a0        0x0 /opt/ps3dev/ppu/lib/gcc/powerpc64-ps3-elf/4.7.0/../../../../powerpc64-ps3-elf/lib/libc.a(lib_a-locale.o)
 .text._setlocale_r
                0x00000000000280a0       0xb4 /opt/ps3dev/ppu/lib/gcc/powerpc64-ps3-elf/4.7.0/../../../../powerpc64-ps3-elf/lib/libc.a(lib_a-locale.o)
                0x00000000000280a0                ._setlocale_r
 *fill*         0x0000000000028154        0x4 60000000
 .text.__locale_charset
                0x0000000000028158       0x14 /opt/ps3dev/ppu/lib/gcc/powerpc64-ps3-elf/4.7.0/../../../../powerpc64-ps3-elf/lib/libc.a(lib_a-locale.o)
                0x0000000000028158                .__locale_charset
 *fill*         0x000000000002816c        0x4 60000000
 .text.__locale_mb_cur_max
                0x0000000000028170       0x1c /opt/ps3dev/ppu/lib/gcc/powerpc64-ps3-elf/4.7.0/../../../../powerpc64-ps3-elf/lib/libc.a(lib_a-locale.o)
                0x0000000000028170                .__locale_mb_cur_max
 *fill*         0x000000000002818c        0x4 60000000
 .text.__locale_msgcharset
                0x0000000000028190       0x14 /opt/ps3dev/ppu/lib/gcc/powerpc64-ps3-elf/4.7.0/../../../../powerpc64-ps3-elf/lib/libc.a(lib_a-locale.o)
                0x0000000000028190                .__locale_msgcharset
 *fill*         0x00000000000281a4        0x4 60000000
 .text.__locale_cjk_lang
                0x00000000000281a8       0x14 /opt/ps3dev/ppu/lib/gcc/powerpc64-ps3-elf/4.7.0/../../../../powerpc64-ps3-elf/lib/libc.a(lib_a-locale.o)
                0x00000000000281a8                .__locale_cjk_lang
 *fill*         0x00000000000281bc        0x4 60000000
 .text._localeconv_r
                0x00000000000281c0       0x14 /opt/ps3dev/ppu/lib/gcc/powerpc64-ps3-elf/4.7.0/../../../../powerpc64-ps3-elf/lib/libc.a(lib_a-locale.o)
                0x00000000000281c0                ._localeconv_r
 *fill*         0x00000000000281d4        0x4 60000000
 .text.setlocale
                0x00000000000281d8       0x50 /opt/ps3dev/ppu/lib/gcc/powerpc64-ps3-elf/4.7.0/../../../../powerpc64-ps3-elf/lib/libc.a(lib_a-locale.o)
                0x00000000000281d8                .setlocale
 .text.localeconv
                0x0000000000028228       0x34 /opt/ps3dev/ppu/lib/gcc/powerpc64-ps3-elf/4.7.0/../../../../powerpc64-ps3-elf/lib/libc.a(lib_a-locale.o)
                0x0000000000028228                .localeconv
 .text          0x000000000002825c        0x0 /opt/ps3dev/ppu/lib/gcc/powerpc64-ps3-elf/4.7.0/../../../../powerpc64-ps3-elf/lib/libc.a(lib_a-lock_recursive.o)
 *fill*         0x000000000002825c        0x4 60000000
 .text.__libc_lock_init_recursive
                0x0000000000028260       0x34 /opt/ps3dev/ppu/lib/gcc/powerpc64-ps3-elf/4.7.0/../../../../powerpc64-ps3-elf/lib/libc.a(lib_a-lock_recursive.o)
                0x0000000000028260                .__libc_lock_init_recursive
 *fill*         0x0000000000028294        0x4 60000000
 .text.__libc_lock_close_recursive
                0x0000000000028298       0x30 /opt/ps3dev/ppu/lib/gcc/powerpc64-ps3-elf/4.7.0/../../../../powerpc64-ps3-elf/lib/libc.a(lib_a-lock_recursive.o)
                0x0000000000028298                .__libc_lock_close_recursive
 .text.__libc_lock_acquire_recursive
                0x00000000000282c8       0x58 /opt/ps3dev/ppu/lib/gcc/powerpc64-ps3-elf/4.7.0/../../../../powerpc64-ps3-elf/lib/libc.a(lib_a-lock_recursive.o)
                0x00000000000282c8                .__libc_lock_acquire_recursive
 .text.__libc_lock_try_acquire_recursive
                0x0000000000028320       0x54 /opt/ps3dev/ppu/lib/gcc/powerpc64-ps3-elf/4.7.0/../../../../powerpc64-ps3-elf/lib/libc.a(lib_a-lock_recursive.o)
                0x0000000000028320                .__libc_lock_try_acquire_recursive
 *fill*         0x0000000000028374        0x4 60000000
 .text.__libc_lock_release_recursive
                0x0000000000028378       0x54 /opt/ps3dev/ppu/lib/gcc/powerpc64-ps3-elf/4.7.0/../../../../powerpc64-ps3-elf/lib/libc.a(lib_a-lock_recursive.o)
                0x0000000000028378                .__libc_lock_release_recursive
 .text          0x00000000000283cc        0x0 /opt/ps3dev/ppu/lib/gcc/powerpc64-ps3-elf/4.7.0/../../../../powerpc64-ps3-elf/lib/libc.a(lib_a-makebuf.o)
 *fill*         0x00000000000283cc        0x4 60000000
 .text.__smakebuf_r
                0x00000000000283d0      0x214 /opt/ps3dev/ppu/lib/gcc/powerpc64-ps3-elf/4.7.0/../../../../powerpc64-ps3-elf/lib/libc.a(lib_a-makebuf.o)
                0x00000000000283d0                .__smakebuf_r
 .text          0x00000000000285e4        0x0 /opt/ps3dev/ppu/lib/gcc/powerpc64-ps3-elf/4.7.0/../../../../powerpc64-ps3-elf/lib/libc.a(lib_a-memchr.o)
 *fill*         0x00000000000285e4        0x4 60000000
 .text.memchr   0x00000000000285e8      0x130 /opt/ps3dev/ppu/lib/gcc/powerpc64-ps3-elf/4.7.0/../../../../powerpc64-ps3-elf/lib/libc.a(lib_a-memchr.o)
                0x00000000000285e8                .memchr
 .text          0x0000000000028718        0x0 /opt/ps3dev/ppu/lib/gcc/powerpc64-ps3-elf/4.7.0/../../../../powerpc64-ps3-elf/lib/libc.a(lib_a-memmove.o)
 .text.memmove  0x0000000000028718      0x158 /opt/ps3dev/ppu/lib/gcc/powerpc64-ps3-elf/4.7.0/../../../../powerpc64-ps3-elf/lib/libc.a(lib_a-memmove.o)
                0x0000000000028718                .memmove
 .text          0x0000000000028870        0x0 /opt/ps3dev/ppu/lib/gcc/powerpc64-ps3-elf/4.7.0/../../../../powerpc64-ps3-elf/lib/libc.a(lib_a-mprec.o)
 .text._Balloc  0x0000000000028870       0xd8 /opt/ps3dev/ppu/lib/gcc/powerpc64-ps3-elf/4.7.0/../../../../powerpc64-ps3-elf/lib/libc.a(lib_a-mprec.o)
                0x0000000000028870                ._Balloc
 .text._Bfree   0x0000000000028948       0x34 /opt/ps3dev/ppu/lib/gcc/powerpc64-ps3-elf/4.7.0/../../../../powerpc64-ps3-elf/lib/libc.a(lib_a-mprec.o)
                0x0000000000028948                ._Bfree
 *fill*         0x000000000002897c        0x4 60000000
 .text.__multadd
                0x0000000000028980      0x16c /opt/ps3dev/ppu/lib/gcc/powerpc64-ps3-elf/4.7.0/../../../../powerpc64-ps3-elf/lib/libc.a(lib_a-mprec.o)
                0x0000000000028980                .__multadd
 *fill*         0x0000000000028aec        0x4 60000000
 .text.__s2b    0x0000000000028af0      0x180 /opt/ps3dev/ppu/lib/gcc/powerpc64-ps3-elf/4.7.0/../../../../powerpc64-ps3-elf/lib/libc.a(lib_a-mprec.o)
                0x0000000000028af0                .__s2b
 .text.__hi0bits
                0x0000000000028c70       0x98 /opt/ps3dev/ppu/lib/gcc/powerpc64-ps3-elf/4.7.0/../../../../powerpc64-ps3-elf/lib/libc.a(lib_a-mprec.o)
                0x0000000000028c70                .__hi0bits
 .text.__lo0bits
                0x0000000000028d08       0xec /opt/ps3dev/ppu/lib/gcc/powerpc64-ps3-elf/4.7.0/../../../../powerpc64-ps3-elf/lib/libc.a(lib_a-mprec.o)
                0x0000000000028d08                .__lo0bits
 *fill*         0x0000000000028df4        0x4 60000000
 .text.__i2b    0x0000000000028df8       0x48 /opt/ps3dev/ppu/lib/gcc/powerpc64-ps3-elf/4.7.0/../../../../powerpc64-ps3-elf/lib/libc.a(lib_a-mprec.o)
                0x0000000000028df8                .__i2b
 .text.__multiply
                0x0000000000028e40      0x28c /opt/ps3dev/ppu/lib/gcc/powerpc64-ps3-elf/4.7.0/../../../../powerpc64-ps3-elf/lib/libc.a(lib_a-mprec.o)
                0x0000000000028e40                .__multiply
 *fill*         0x00000000000290cc        0x4 60000000
 .text.__pow5mult
                0x00000000000290d0      0x15c /opt/ps3dev/ppu/lib/gcc/powerpc64-ps3-elf/4.7.0/../../../../powerpc64-ps3-elf/lib/libc.a(lib_a-mprec.o)
                0x00000000000290d0                .__pow5mult
 *fill*         0x000000000002922c        0x4 60000000
 .text.__lshift
                0x0000000000029230      0x1c4 /opt/ps3dev/ppu/lib/gcc/powerpc64-ps3-elf/4.7.0/../../../../powerpc64-ps3-elf/lib/libc.a(lib_a-mprec.o)
                0x0000000000029230                .__lshift
 *fill*         0x00000000000293f4        0x4 60000000
 .text.__mcmp   0x00000000000293f8       0x84 /opt/ps3dev/ppu/lib/gcc/powerpc64-ps3-elf/4.7.0/../../../../powerpc64-ps3-elf/lib/libc.a(lib_a-mprec.o)
                0x00000000000293f8                .__mcmp
 *fill*         0x000000000002947c        0x4 60000000
 .text.__mdiff  0x0000000000029480      0x1fc /opt/ps3dev/ppu/lib/gcc/powerpc64-ps3-elf/4.7.0/../../../../powerpc64-ps3-elf/lib/libc.a(lib_a-mprec.o)
                0x0000000000029480                .__mdiff
 *fill*         0x000000000002967c        0x4 60000000
 .text.__ulp    0x0000000000029680       0xb0 /opt/ps3dev/ppu/lib/gcc/powerpc64-ps3-elf/4.7.0/../../../../powerpc64-ps3-elf/lib/libc.a(lib_a-mprec.o)
                0x0000000000029680                .__ulp
 .text.__b2d    0x0000000000029730      0x1a0 /opt/ps3dev/ppu/lib/gcc/powerpc64-ps3-elf/4.7.0/../../../../powerpc64-ps3-elf/lib/libc.a(lib_a-mprec.o)
                0x0000000000029730                .__b2d
 .text.__d2b    0x00000000000298d0      0x1a4 /opt/ps3dev/ppu/lib/gcc/powerpc64-ps3-elf/4.7.0/../../../../powerpc64-ps3-elf/lib/libc.a(lib_a-mprec.o)
                0x00000000000298d0                .__d2b
 *fill*         0x0000000000029a74        0x4 60000000
 .text.__ratio  0x0000000000029a78       0xf8 /opt/ps3dev/ppu/lib/gcc/powerpc64-ps3-elf/4.7.0/../../../../powerpc64-ps3-elf/lib/libc.a(lib_a-mprec.o)
                0x0000000000029a78                .__ratio
 .text._mprec_log10
                0x0000000000029b70       0x54 /opt/ps3dev/ppu/lib/gcc/powerpc64-ps3-elf/4.7.0/../../../../powerpc64-ps3-elf/lib/libc.a(lib_a-mprec.o)
                0x0000000000029b70                ._mprec_log10
 *fill*         0x0000000000029bc4        0x4 60000000
 .text.__copybits
                0x0000000000029bc8       0x98 /opt/ps3dev/ppu/lib/gcc/powerpc64-ps3-elf/4.7.0/../../../../powerpc64-ps3-elf/lib/libc.a(lib_a-mprec.o)
                0x0000000000029bc8                .__copybits
 .text.__any_on
                0x0000000000029c60       0xcc /opt/ps3dev/ppu/lib/gcc/powerpc64-ps3-elf/4.7.0/../../../../powerpc64-ps3-elf/lib/libc.a(lib_a-mprec.o)
                0x0000000000029c60                .__any_on
 .text          0x0000000000029d2c        0x0 /opt/ps3dev/ppu/lib/gcc/powerpc64-ps3-elf/4.7.0/../../../../powerpc64-ps3-elf/lib/libc.a(lib_a-reallocr.o)
 *fill*         0x0000000000029d2c        0x4 60000000
 .text._realloc_r
                0x0000000000029d30      0x70c /opt/ps3dev/ppu/lib/gcc/powerpc64-ps3-elf/4.7.0/../../../../powerpc64-ps3-elf/lib/libc.a(lib_a-reallocr.o)
                0x0000000000029d30                ._realloc_r
 .text          0x000000000002a43c        0x0 /opt/ps3dev/ppu/lib/gcc/powerpc64-ps3-elf/4.7.0/../../../../powerpc64-ps3-elf/lib/libc.a(lib_a-s_fpclassify.o)
 *fill*         0x000000000002a43c        0x4 60000000
 .text.__fpclassifyd
                0x000000000002a440       0xc0 /opt/ps3dev/ppu/lib/gcc/powerpc64-ps3-elf/4.7.0/../../../../powerpc64-ps3-elf/lib/libc.a(lib_a-s_fpclassify.o)
                0x000000000002a440                .__fpclassifyd
 .text          0x000000000002a500        0x0 /opt/ps3dev/ppu/lib/gcc/powerpc64-ps3-elf/4.7.0/../../../../powerpc64-ps3-elf/lib/libc.a(lib_a-signal.o)
 .text._init_signal_r
                0x000000000002a500       0x90 /opt/ps3dev/ppu/lib/gcc/powerpc64-ps3-elf/4.7.0/../../../../powerpc64-ps3-elf/lib/libc.a(lib_a-signal.o)
                0x000000000002a500                ._init_signal_r
 .text._signal_r
                0x000000000002a590       0x9c /opt/ps3dev/ppu/lib/gcc/powerpc64-ps3-elf/4.7.0/../../../../powerpc64-ps3-elf/lib/libc.a(lib_a-signal.o)
                0x000000000002a590                ._signal_r
 *fill*         0x000000000002a62c        0x4 60000000
 .text._raise_r
                0x000000000002a630      0x10c /opt/ps3dev/ppu/lib/gcc/powerpc64-ps3-elf/4.7.0/../../../../powerpc64-ps3-elf/lib/libc.a(lib_a-signal.o)
                0x000000000002a630                ._raise_r
 *fill*         0x000000000002a73c        0x4 60000000
 .text.__sigtramp_r
                0x000000000002a740       0xd8 /opt/ps3dev/ppu/lib/gcc/powerpc64-ps3-elf/4.7.0/../../../../powerpc64-ps3-elf/lib/libc.a(lib_a-signal.o)
                0x000000000002a740                .__sigtramp_r
 .text.raise    0x000000000002a818       0x40 /opt/ps3dev/ppu/lib/gcc/powerpc64-ps3-elf/4.7.0/../../../../powerpc64-ps3-elf/lib/libc.a(lib_a-signal.o)
                0x000000000002a818                .raise
 .text.signal   0x000000000002a858       0x50 /opt/ps3dev/ppu/lib/gcc/powerpc64-ps3-elf/4.7.0/../../../../powerpc64-ps3-elf/lib/libc.a(lib_a-signal.o)
                0x000000000002a858                .signal
 .text._init_signal
                0x000000000002a8a8       0x30 /opt/ps3dev/ppu/lib/gcc/powerpc64-ps3-elf/4.7.0/../../../../powerpc64-ps3-elf/lib/libc.a(lib_a-signal.o)
                0x000000000002a8a8                ._init_signal
 .text.__sigtramp
                0x000000000002a8d8       0x40 /opt/ps3dev/ppu/lib/gcc/powerpc64-ps3-elf/4.7.0/../../../../powerpc64-ps3-elf/lib/libc.a(lib_a-signal.o)
                0x000000000002a8d8                .__sigtramp
 .text          0x000000000002a918        0x0 /opt/ps3dev/ppu/lib/gcc/powerpc64-ps3-elf/4.7.0/../../../../powerpc64-ps3-elf/lib/libc.a(lib_a-stdio.o)
 .text.__sread  0x000000000002a918       0x80 /opt/ps3dev/ppu/lib/gcc/powerpc64-ps3-elf/4.7.0/../../../../powerpc64-ps3-elf/lib/libc.a(lib_a-stdio.o)
                0x000000000002a918                .__sread
 .text.__seofread
                0x000000000002a998       0x14 /opt/ps3dev/ppu/lib/gcc/powerpc64-ps3-elf/4.7.0/../../../../powerpc64-ps3-elf/lib/libc.a(lib_a-stdio.o)
                0x000000000002a998                .__seofread
 *fill*         0x000000000002a9ac        0x4 60000000
 .text.__swrite
                0x000000000002a9b0       0xb8 /opt/ps3dev/ppu/lib/gcc/powerpc64-ps3-elf/4.7.0/../../../../powerpc64-ps3-elf/lib/libc.a(lib_a-stdio.o)
                0x000000000002a9b0                .__swrite
 .text.__sseek  0x000000000002aa68       0x7c /opt/ps3dev/ppu/lib/gcc/powerpc64-ps3-elf/4.7.0/../../../../powerpc64-ps3-elf/lib/libc.a(lib_a-stdio.o)
                0x000000000002aa68                .__sseek
 *fill*         0x000000000002aae4        0x4 60000000
 .text.__sclose
                0x000000000002aae8       0x38 /opt/ps3dev/ppu/lib/gcc/powerpc64-ps3-elf/4.7.0/../../../../powerpc64-ps3-elf/lib/libc.a(lib_a-stdio.o)
                0x000000000002aae8                .__sclose
 .text          0x000000000002ab20        0x0 /opt/ps3dev/ppu/lib/gcc/powerpc64-ps3-elf/4.7.0/../../../../powerpc64-ps3-elf/lib/libc.a(lib_a-strcmp.o)
 .text.strcmp   0x000000000002ab20       0xe4 /opt/ps3dev/ppu/lib/gcc/powerpc64-ps3-elf/4.7.0/../../../../powerpc64-ps3-elf/lib/libc.a(lib_a-strcmp.o)
                0x000000000002ab20                .strcmp
 .text          0x000000000002ac04        0x0 /opt/ps3dev/ppu/lib/gcc/powerpc64-ps3-elf/4.7.0/../../../../powerpc64-ps3-elf/lib/libc.a(lib_a-strlen.o)
 *fill*         0x000000000002ac04        0x4 60000000
 .text.strlen   0x000000000002ac08       0xd8 /opt/ps3dev/ppu/lib/gcc/powerpc64-ps3-elf/4.7.0/../../../../powerpc64-ps3-elf/lib/libc.a(lib_a-strlen.o)
                0x000000000002ac08                .strlen
 .text          0x000000000002ace0        0x0 /opt/ps3dev/ppu/lib/gcc/powerpc64-ps3-elf/4.7.0/../../../../powerpc64-ps3-elf/lib/libc.a(lib_a-wbuf.o)
 .text.__swbuf_r
                0x000000000002ace0      0x1d8 /opt/ps3dev/ppu/lib/gcc/powerpc64-ps3-elf/4.7.0/../../../../powerpc64-ps3-elf/lib/libc.a(lib_a-wbuf.o)
                0x000000000002ace0                .__swbuf_r
 .text.__swbuf  0x000000000002aeb8       0x50 /opt/ps3dev/ppu/lib/gcc/powerpc64-ps3-elf/4.7.0/../../../../powerpc64-ps3-elf/lib/libc.a(lib_a-wbuf.o)
                0x000000000002aeb8                .__swbuf
 .text          0x000000000002af08        0x0 /opt/ps3dev/ppu/lib/gcc/powerpc64-ps3-elf/4.7.0/../../../../powerpc64-ps3-elf/lib/libc.a(lib_a-wcrtomb.o)
 .text._wcrtomb_r
                0x000000000002af08       0xf8 /opt/ps3dev/ppu/lib/gcc/powerpc64-ps3-elf/4.7.0/../../../../powerpc64-ps3-elf/lib/libc.a(lib_a-wcrtomb.o)
                0x000000000002af08                ._wcrtomb_r
 .text.wcrtomb  0x000000000002b000      0x15c /opt/ps3dev/ppu/lib/gcc/powerpc64-ps3-elf/4.7.0/../../../../powerpc64-ps3-elf/lib/libc.a(lib_a-wcrtomb.o)
                0x000000000002b000                .wcrtomb
 .text          0x000000000002b15c        0x0 /opt/ps3dev/ppu/lib/gcc/powerpc64-ps3-elf/4.7.0/../../../../powerpc64-ps3-elf/lib/libc.a(lib_a-wctomb_r.o)
 *fill*         0x000000000002b15c        0x4 60000000
 .text.__ascii_wctomb
                0x000000000002b160       0x54 /opt/ps3dev/ppu/lib/gcc/powerpc64-ps3-elf/4.7.0/../../../../powerpc64-ps3-elf/lib/libc.a(lib_a-wctomb_r.o)
                0x000000000002b160                .__ascii_wctomb
 *fill*         0x000000000002b1b4        0x4 60000000
 .text._wctomb_r
                0x000000000002b1b8       0x90 /opt/ps3dev/ppu/lib/gcc/powerpc64-ps3-elf/4.7.0/../../../../powerpc64-ps3-elf/lib/libc.a(lib_a-wctomb_r.o)
                0x000000000002b1b8                ._wctomb_r
 .text          0x000000000002b248        0x0 /opt/ps3dev/ppu/lib/gcc/powerpc64-ps3-elf/4.7.0/../../../../powerpc64-ps3-elf/lib/libc.a(lib_a-callocr.o)
 .text._calloc_r
                0x000000000002b248       0xe0 /opt/ps3dev/ppu/lib/gcc/powerpc64-ps3-elf/4.7.0/../../../../powerpc64-ps3-elf/lib/libc.a(lib_a-callocr.o)
                0x000000000002b248                ._calloc_r
 .text          0x000000000002b328        0x0 /opt/ps3dev/ppu/lib/gcc/powerpc64-ps3-elf/4.7.0/../../../../powerpc64-ps3-elf/lib/libc.a(lib_a-fclose.o)
 .text._fclose_r
                0x000000000002b328      0x20c /opt/ps3dev/ppu/lib/gcc/powerpc64-ps3-elf/4.7.0/../../../../powerpc64-ps3-elf/lib/libc.a(lib_a-fclose.o)
                0x000000000002b328                ._fclose_r
 *fill*         0x000000000002b534        0x4 60000000
 .text.fclose   0x000000000002b538       0x40 /opt/ps3dev/ppu/lib/gcc/powerpc64-ps3-elf/4.7.0/../../../../powerpc64-ps3-elf/lib/libc.a(lib_a-fclose.o)
                0x000000000002b538                .fclose
 .text          0x000000000002b578        0x0 /opt/ps3dev/ppu/lib/gcc/powerpc64-ps3-elf/4.7.0/../../../../powerpc64-ps3-elf/lib/libc.a(lib_a-lock_internal.o)
 .text.startup.init_metalock
                0x000000000002b578       0x48 /opt/ps3dev/ppu/lib/gcc/powerpc64-ps3-elf/4.7.0/../../../../powerpc64-ps3-elf/lib/libc.a(lib_a-lock_internal.o)
 .text.__libc_auto_lock_allocate
                0x000000000002b5c0       0x9c /opt/ps3dev/ppu/lib/gcc/powerpc64-ps3-elf/4.7.0/../../../../powerpc64-ps3-elf/lib/libc.a(lib_a-lock_internal.o)
                0x000000000002b5c0                .__libc_auto_lock_allocate
 .text          0x000000000002b65c        0x0 /opt/ps3dev/psl1ght/ppu/lib/librt.a(sbrk.o)
 *fill*         0x000000000002b65c        0x4 60000000
 .text.startup.sbrk_init
                0x000000000002b660       0xb4 /opt/ps3dev/psl1ght/ppu/lib/librt.a(sbrk.o)
 *fill*         0x000000000002b714        0x4 60000000
 .text.sbrk_deinit
                0x000000000002b718       0xc8 /opt/ps3dev/psl1ght/ppu/lib/librt.a(sbrk.o)
 .text.__librt_sbrk_r
                0x000000000002b7e0      0x29c /opt/ps3dev/psl1ght/ppu/lib/librt.a(sbrk.o)
                0x000000000002b7e0                .__librt_sbrk_r
 .text          0x000000000002ba7c        0x0 /opt/ps3dev/psl1ght/ppu/lib/librt.a(exit.o)
 *fill*         0x000000000002ba7c        0x4 60000000
 .text.__librt_exit
                0x000000000002ba80       0x30 /opt/ps3dev/psl1ght/ppu/lib/librt.a(exit.o)
                0x000000000002ba80                .__librt_exit
 .text          0x000000000002bab0        0x0 /opt/ps3dev/psl1ght/ppu/lib/librt.a(close.o)
 .text.__librt_close_r
                0x000000000002bab0       0x88 /opt/ps3dev/psl1ght/ppu/lib/librt.a(close.o)
                0x000000000002bab0                .__librt_close_r
 .text          0x000000000002bb38        0x0 /opt/ps3dev/psl1ght/ppu/lib/librt.a(lseek.o)
 .text.__librt_lseek_r
                0x000000000002bb38       0x8c /opt/ps3dev/psl1ght/ppu/lib/librt.a(lseek.o)
                0x000000000002bb38                .__librt_lseek_r
 *fill*         0x000000000002bbc4        0x4 60000000
 .text.__librt_lseek64_r
                0x000000000002bbc8       0x8c /opt/ps3dev/psl1ght/ppu/lib/librt.a(lseek.o)
                0x000000000002bbc8                .__librt_lseek64_r
 .text          0x000000000002bc54        0x0 /opt/ps3dev/psl1ght/ppu/lib/librt.a(read.o)
 *fill*         0x000000000002bc54        0x4 60000000
 .text.__librt_read_r
                0x000000000002bc58      0x110 /opt/ps3dev/psl1ght/ppu/lib/librt.a(read.o)
                0x000000000002bc58                .__librt_read_r
 .text          0x000000000002bd68        0x0 /opt/ps3dev/psl1ght/ppu/lib/librt.a(open.o)
 .text.__librt_open_r
                0x000000000002bd68      0x180 /opt/ps3dev/psl1ght/ppu/lib/librt.a(open.o)
                0x000000000002bd68                .__librt_open_r
 .text          0x000000000002bee8        0x0 /opt/ps3dev/psl1ght/ppu/lib/librt.a(sleep.o)
 .text.__librt_usleep_r
                0x000000000002bee8       0x50 /opt/ps3dev/psl1ght/ppu/lib/librt.a(sleep.o)
                0x000000000002bee8                .__librt_usleep_r
 .text.__librt_sleep_r
                0x000000000002bf38       0x8c /opt/ps3dev/psl1ght/ppu/lib/librt.a(sleep.o)
                0x000000000002bf38                .__librt_sleep_r
 .text          0x000000000002bfc4        0x0 /opt/ps3dev/psl1ght/ppu/lib/librt.a(write.o)
 *fill*         0x000000000002bfc4        0x4 60000000
 .text.__librt_write_r
                0x000000000002bfc8      0x124 /opt/ps3dev/psl1ght/ppu/lib/librt.a(write.o)
                0x000000000002bfc8                .__librt_write_r
 .text          0x000000000002c0ec        0x0 /opt/ps3dev/psl1ght/ppu/lib/librt.a(fstat.o)
 *fill*         0x000000000002c0ec        0x4 60000000
 .text.convertLv2Stat
                0x000000000002c0f0      0x234 /opt/ps3dev/psl1ght/ppu/lib/librt.a(fstat.o)
 *fill*         0x000000000002c324        0x4 60000000
 .text.__librt_fstat_r
                0x000000000002c328       0x88 /opt/ps3dev/psl1ght/ppu/lib/librt.a(fstat.o)
                0x000000000002c328                .__librt_fstat_r
 .text.__librt_fstat64_r
                0x000000000002c3b0       0x88 /opt/ps3dev/psl1ght/ppu/lib/librt.a(fstat.o)
                0x000000000002c3b0                .__librt_fstat64_r
 .text.__librt_stat_r
                0x000000000002c438       0x88 /opt/ps3dev/psl1ght/ppu/lib/librt.a(fstat.o)
                0x000000000002c438                .__librt_stat_r
 .text.__librt_stat64_r
                0x000000000002c4c0       0x88 /opt/ps3dev/psl1ght/ppu/lib/librt.a(fstat.o)
                0x000000000002c4c0                .__librt_stat64_r
 .text          0x000000000002c548        0x0 /opt/ps3dev/psl1ght/ppu/lib/librt.a(socket.o)
 .text.accept   0x000000000002c548       0xac /opt/ps3dev/psl1ght/ppu/lib/librt.a(socket.o)
                0x000000000002c548                .accept
 *fill*         0x000000000002c5f4        0x4 60000000
 .text.bind     0x000000000002c5f8       0x48 /opt/ps3dev/psl1ght/ppu/lib/librt.a(socket.o)
                0x000000000002c5f8                .bind
 .text.connect  0x000000000002c640       0x48 /opt/ps3dev/psl1ght/ppu/lib/librt.a(socket.o)
                0x000000000002c640                .connect
 .text.listen   0x000000000002c688       0x48 /opt/ps3dev/psl1ght/ppu/lib/librt.a(socket.o)
                0x000000000002c688                .listen
 .text.socket   0x000000000002c6d0       0x54 /opt/ps3dev/psl1ght/ppu/lib/librt.a(socket.o)
                0x000000000002c6d0                .socket
 *fill*         0x000000000002c724        0x4 60000000
 .text.send     0x000000000002c728       0x50 /opt/ps3dev/psl1ght/ppu/lib/librt.a(socket.o)
                0x000000000002c728                .send
 .text.sendto   0x000000000002c778       0x48 /opt/ps3dev/psl1ght/ppu/lib/librt.a(socket.o)
                0x000000000002c778                .sendto
 .text.recv     0x000000000002c7c0       0x50 /opt/ps3dev/psl1ght/ppu/lib/librt.a(socket.o)
                0x000000000002c7c0                .recv
 .text.recvfrom
                0x000000000002c810       0xa0 /opt/ps3dev/psl1ght/ppu/lib/librt.a(socket.o)
                0x000000000002c810                .recvfrom
 .text.shutdown
                0x000000000002c8b0       0x48 /opt/ps3dev/psl1ght/ppu/lib/librt.a(socket.o)
                0x000000000002c8b0                .shutdown
 .text.inet_aton
                0x000000000002c8f8       0xbc /opt/ps3dev/psl1ght/ppu/lib/librt.a(socket.o)
                0x000000000002c8f8                .inet_aton
 *fill*         0x000000000002c9b4        0x4 60000000
 .text.inet_pton
                0x000000000002c9b8       0x48 /opt/ps3dev/psl1ght/ppu/lib/librt.a(socket.o)
                0x000000000002c9b8                .inet_pton
 .text.select   0x000000000002ca00       0x3c /opt/ps3dev/psl1ght/ppu/lib/librt.a(socket.o)
                0x000000000002ca00                .select
 *fill*         0x000000000002ca3c        0x4 60000000
 .text.closesocket
                0x000000000002ca40       0x48 /opt/ps3dev/psl1ght/ppu/lib/librt.a(socket.o)
                0x000000000002ca40                .closesocket
 .text          0x000000000002ca88        0x0 /opt/ps3dev/psl1ght/ppu/lib/librt.a(lock.o)
 .text.__librt_sys_lwmutex_create_r
                0x000000000002ca88       0x38 /opt/ps3dev/psl1ght/ppu/lib/librt.a(lock.o)
                0x000000000002ca88                .__librt_sys_lwmutex_create_r
 .text.__librt_sys_lwmutex_destroy_r
                0x000000000002cac0       0x34 /opt/ps3dev/psl1ght/ppu/lib/librt.a(lock.o)
                0x000000000002cac0                .__librt_sys_lwmutex_destroy_r
 *fill*         0x000000000002caf4        0x4 60000000
 .text.__librt_sys_lwmutex_lock_r
                0x000000000002caf8       0x38 /opt/ps3dev/psl1ght/ppu/lib/librt.a(lock.o)
                0x000000000002caf8                .__librt_sys_lwmutex_lock_r
 .text.__librt_sys_lwmutex_trylock_r
                0x000000000002cb30       0x34 /opt/ps3dev/psl1ght/ppu/lib/librt.a(lock.o)
                0x000000000002cb30                .__librt_sys_lwmutex_trylock_r
 *fill*         0x000000000002cb64        0x4 60000000
 .text.__librt_sys_lwmutex_unlock_r
                0x000000000002cb68       0x34 /opt/ps3dev/psl1ght/ppu/lib/librt.a(lock.o)
                0x000000000002cb68                .__librt_sys_lwmutex_unlock_r
 .text          0x000000000002cb9c        0x0 /opt/ps3dev/psl1ght/ppu/lib/librt.a(dirent.o)
 *fill*         0x000000000002cb9c        0x4 60000000
 .text.readdir_i
                0x000000000002cba0      0x10c /opt/ps3dev/psl1ght/ppu/lib/librt.a(dirent.o)
 *fill*         0x000000000002ccac        0x4 60000000
 .text.__librt_opendir_r
                0x000000000002ccb0      0x13c /opt/ps3dev/psl1ght/ppu/lib/librt.a(dirent.o)
                0x000000000002ccb0                .__librt_opendir_r
 *fill*         0x000000000002cdec        0x4 60000000
 .text.__librt_readdir_r
                0x000000000002cdf0       0x80 /opt/ps3dev/psl1ght/ppu/lib/librt.a(dirent.o)
                0x000000000002cdf0                .__librt_readdir_r
 .text.__librt_readdir_r_r
                0x000000000002ce70       0x54 /opt/ps3dev/psl1ght/ppu/lib/librt.a(dirent.o)
                0x000000000002ce70                .__librt_readdir_r_r
 *fill*         0x000000000002cec4        0x4 60000000
 .text.__librt_closedir_r
                0x000000000002cec8       0x84 /opt/ps3dev/psl1ght/ppu/lib/librt.a(dirent.o)
                0x000000000002cec8                .__librt_closedir_r
 *fill*         0x000000000002cf4c        0x4 60000000
 .text.__librt_telldir_r
                0x000000000002cf50       0x2c /opt/ps3dev/psl1ght/ppu/lib/librt.a(dirent.o)
                0x000000000002cf50                .__librt_telldir_r
 *fill*         0x000000000002cf7c        0x4 60000000
 .text.__librt_rewinddir_r
                0x000000000002cf80       0x18 /opt/ps3dev/psl1ght/ppu/lib/librt.a(dirent.o)
                0x000000000002cf80                .__librt_rewinddir_r
 .text.__librt_seekdir_r
                0x000000000002cf98       0x18 /opt/ps3dev/psl1ght/ppu/lib/librt.a(dirent.o)
                0x000000000002cf98                .__librt_seekdir_r
 .text          0x000000000002cfb0        0x0 /opt/ps3dev/psl1ght/ppu/lib/librt.a(mkdir.o)
 .text.__librt_mkdir_r
                0x000000000002cfb0       0x60 /opt/ps3dev/psl1ght/ppu/lib/librt.a(mkdir.o)
                0x000000000002cfb0                .__librt_mkdir_r
 .text          0x000000000002d010        0x0 /opt/ps3dev/psl1ght/ppu/lib/librt.a(times.o)
 .text.__librt_times_r
                0x000000000002d010       0x1c /opt/ps3dev/psl1ght/ppu/lib/librt.a(times.o)
                0x000000000002d010                .__librt_times_r
 .text          0x000000000002d02c        0x0 /opt/ps3dev/psl1ght/ppu/lib/librt.a(umask.o)
 *fill*         0x000000000002d02c        0x4 60000000
 .text.__librt_umask_r
                0x000000000002d030       0x20 /opt/ps3dev/psl1ght/ppu/lib/librt.a(umask.o)
                0x000000000002d030                .__librt_umask_r
 .text          0x000000000002d050        0x0 /opt/ps3dev/psl1ght/ppu/lib/librt.a(lv2errno.o)
 .text.lv2error
                0x000000000002d050      0x3f8 /opt/ps3dev/psl1ght/ppu/lib/librt.a(lv2errno.o)
                0x000000000002d050                .lv2error
 .text.lv2errno
                0x000000000002d448       0x68 /opt/ps3dev/psl1ght/ppu/lib/librt.a(lv2errno.o)
                0x000000000002d448                .lv2errno
 .text.lv2errno_r
                0x000000000002d4b0       0x58 /opt/ps3dev/psl1ght/ppu/lib/librt.a(lv2errno.o)
                0x000000000002d4b0                .lv2errno_r
 .text          0x000000000002d508        0x0 /opt/ps3dev/psl1ght/ppu/lib/librt.a(heap.o)
 .text.heapInit
                0x000000000002d508       0xe8 /opt/ps3dev/psl1ght/ppu/lib/librt.a(heap.o)
                0x000000000002d508                .heapInit
 .text.heapAllocate
                0x000000000002d5f0      0x17c /opt/ps3dev/psl1ght/ppu/lib/librt.a(heap.o)
                0x000000000002d5f0                .heapAllocate
 *fill*         0x000000000002d76c        0x4 60000000
 .text.heapAllocateAligned
                0x000000000002d770      0x21c /opt/ps3dev/psl1ght/ppu/lib/librt.a(heap.o)
                0x000000000002d770                .heapAllocateAligned
 *fill*         0x000000000002d98c        0x4 60000000
 .text.heapFree
                0x000000000002d990      0x230 /opt/ps3dev/psl1ght/ppu/lib/librt.a(heap.o)
                0x000000000002d990                .heapFree
 .text          0x000000000002dbc0        0x0 /opt/ps3dev/psl1ght/ppu/lib/librt.a(chmod.o)
 .text.__librt_chmod_r
                0x000000000002dbc0       0x54 /opt/ps3dev/psl1ght/ppu/lib/librt.a(chmod.o)
                0x000000000002dbc0                .__librt_chmod_r
 .text          0x000000000002dc14        0x0 /opt/ps3dev/psl1ght/ppu/lib/librt.a(rmdir.o)
 *fill*         0x000000000002dc14        0x4 60000000
 .text.__librt_rmdir_r
                0x000000000002dc18       0x50 /opt/ps3dev/psl1ght/ppu/lib/librt.a(rmdir.o)
                0x000000000002dc18                .__librt_rmdir_r
 .text          0x000000000002dc68        0x0 /opt/ps3dev/psl1ght/ppu/lib/librt.a(isatty.o)
 .text.__librt_isatty_r
                0x000000000002dc68       0x2c /opt/ps3dev/psl1ght/ppu/lib/librt.a(isatty.o)
                0x000000000002dc68                .__librt_isatty_r
 .text          0x000000000002dc94        0x0 /opt/ps3dev/psl1ght/ppu/lib/librt.a(gettod.o)
 *fill*         0x000000000002dc94        0x4 60000000
 .text.__librt_gettod_r
                0x000000000002dc98       0xb8 /opt/ps3dev/psl1ght/ppu/lib/librt.a(gettod.o)
                0x000000000002dc98                .__librt_gettod_r
 .text          0x000000000002dd50        0x0 /opt/ps3dev/psl1ght/ppu/lib/librt.a(settod.o)
 .text.__librt_settod_r
                0x000000000002dd50       0x58 /opt/ps3dev/psl1ght/ppu/lib/librt.a(settod.o)
                0x000000000002dd50                .__librt_settod_r
 .text          0x000000000002dda8        0x0 /opt/ps3dev/psl1ght/ppu/lib/liblv2.a(sprx.o)
 .text          0x000000000002dda8        0x0 /opt/ps3dev/ppu/lib/gcc/powerpc64-ps3-elf/4.7.0/../../../../powerpc64-ps3-elf/lib/libsysbase.a(close.o)
 .text._close_r
                0x000000000002dda8       0x68 /opt/ps3dev/ppu/lib/gcc/powerpc64-ps3-elf/4.7.0/../../../../powerpc64-ps3-elf/lib/libsysbase.a(close.o)
                0x000000000002dda8                ._close_r
 .text          0x000000000002de10        0x0 /opt/ps3dev/ppu/lib/gcc/powerpc64-ps3-elf/4.7.0/../../../../powerpc64-ps3-elf/lib/libsysbase.a(sbrk.o)
 .text._sbrk_r  0x000000000002de10       0x68 /opt/ps3dev/ppu/lib/gcc/powerpc64-ps3-elf/4.7.0/../../../../powerpc64-ps3-elf/lib/libsysbase.a(sbrk.o)
                0x000000000002de10                ._sbrk_r
 .text          0x000000000002de78        0x0 /opt/ps3dev/ppu/lib/gcc/powerpc64-ps3-elf/4.7.0/../../../../powerpc64-ps3-elf/lib/libsysbase.a(_exit.o)
 .text._exit    0x000000000002de78       0x48 /opt/ps3dev/ppu/lib/gcc/powerpc64-ps3-elf/4.7.0/../../../../powerpc64-ps3-elf/lib/libsysbase.a(_exit.o)
                0x000000000002de78                ._exit
 .text          0x000000000002dec0        0x0 /opt/ps3dev/ppu/lib/gcc/powerpc64-ps3-elf/4.7.0/../../../../powerpc64-ps3-elf/lib/libsysbase.a(fstat.o)
 .text._fstat_r
                0x000000000002dec0       0x68 /opt/ps3dev/ppu/lib/gcc/powerpc64-ps3-elf/4.7.0/../../../../powerpc64-ps3-elf/lib/libsysbase.a(fstat.o)
                0x000000000002dec0                ._fstat_r
 .text          0x000000000002df28        0x0 /opt/ps3dev/ppu/lib/gcc/powerpc64-ps3-elf/4.7.0/../../../../powerpc64-ps3-elf/lib/libsysbase.a(isatty.o)
 .text._isatty_r
                0x000000000002df28       0x68 /opt/ps3dev/ppu/lib/gcc/powerpc64-ps3-elf/4.7.0/../../../../powerpc64-ps3-elf/lib/libsysbase.a(isatty.o)
                0x000000000002df28                ._isatty_r
 .text          0x000000000002df90        0x0 /opt/ps3dev/ppu/lib/gcc/powerpc64-ps3-elf/4.7.0/../../../../powerpc64-ps3-elf/lib/libsysbase.a(lseek.o)
 .text._lseek_r
                0x000000000002df90       0x68 /opt/ps3dev/ppu/lib/gcc/powerpc64-ps3-elf/4.7.0/../../../../powerpc64-ps3-elf/lib/libsysbase.a(lseek.o)
                0x000000000002df90                ._lseek_r
 .text          0x000000000002dff8        0x0 /opt/ps3dev/ppu/lib/gcc/powerpc64-ps3-elf/4.7.0/../../../../powerpc64-ps3-elf/lib/libsysbase.a(read.o)
 .text._read_r  0x000000000002dff8       0x68 /opt/ps3dev/ppu/lib/gcc/powerpc64-ps3-elf/4.7.0/../../../../powerpc64-ps3-elf/lib/libsysbase.a(read.o)
                0x000000000002dff8                ._read_r
 .text          0x000000000002e060        0x0 /opt/ps3dev/ppu/lib/gcc/powerpc64-ps3-elf/4.7.0/../../../../powerpc64-ps3-elf/lib/libsysbase.a(write.o)
 .text._write_r
                0x000000000002e060       0x68 /opt/ps3dev/ppu/lib/gcc/powerpc64-ps3-elf/4.7.0/../../../../powerpc64-ps3-elf/lib/libsysbase.a(write.o)
                0x000000000002e060                ._write_r
 .text          0x000000000002e0c8        0x0 /opt/ps3dev/ppu/lib/gcc/powerpc64-ps3-elf/4.7.0/../../../../powerpc64-ps3-elf/lib/libsysbase.a(lock.o)
 .text.sys_lwmutex_create
                0x000000000002e0c8       0x90 /opt/ps3dev/ppu/lib/gcc/powerpc64-ps3-elf/4.7.0/../../../../powerpc64-ps3-elf/lib/libsysbase.a(lock.o)
                0x000000000002e0c8                .sys_lwmutex_create
 .text.sys_lwmutex_destroy
                0x000000000002e158       0x80 /opt/ps3dev/ppu/lib/gcc/powerpc64-ps3-elf/4.7.0/../../../../powerpc64-ps3-elf/lib/libsysbase.a(lock.o)
                0x000000000002e158                .sys_lwmutex_destroy
 .text.sys_lwmutex_lock
                0x000000000002e1d8       0x90 /opt/ps3dev/ppu/lib/gcc/powerpc64-ps3-elf/4.7.0/../../../../powerpc64-ps3-elf/lib/libsysbase.a(lock.o)
                0x000000000002e1d8                .sys_lwmutex_lock
 .text.sys_lwmutex_trylock
                0x000000000002e268       0x80 /opt/ps3dev/ppu/lib/gcc/powerpc64-ps3-elf/4.7.0/../../../../powerpc64-ps3-elf/lib/libsysbase.a(lock.o)
                0x000000000002e268                .sys_lwmutex_trylock
 .text.sys_lwmutex_unlock
                0x000000000002e2e8       0x80 /opt/ps3dev/ppu/lib/gcc/powerpc64-ps3-elf/4.7.0/../../../../powerpc64-ps3-elf/lib/libsysbase.a(lock.o)
                0x000000000002e2e8                .sys_lwmutex_unlock
 .text          0x000000000002e368        0x0 /opt/ps3dev/ppu/lib/gcc/powerpc64-ps3-elf/4.7.0/../../../../powerpc64-ps3-elf/lib/libsysbase.a(getpid.o)
 .text._getpid_r
                0x000000000002e368       0x68 /opt/ps3dev/ppu/lib/gcc/powerpc64-ps3-elf/4.7.0/../../../../powerpc64-ps3-elf/lib/libsysbase.a(getpid.o)
                0x000000000002e368                ._getpid_r
 .text          0x000000000002e3d0        0x0 /opt/ps3dev/ppu/lib/gcc/powerpc64-ps3-elf/4.7.0/../../../../powerpc64-ps3-elf/lib/libsysbase.a(kill.o)
 .text._kill_r  0x000000000002e3d0       0x1c /opt/ps3dev/ppu/lib/gcc/powerpc64-ps3-elf/4.7.0/../../../../powerpc64-ps3-elf/lib/libsysbase.a(kill.o)
                0x000000000002e3d0                ._kill_r
 .text          0x000000000002e3ec        0x0 /opt/ps3dev/ppu/lib/gcc/powerpc64-ps3-elf/4.7.0/../../../../powerpc64-ps3-elf/lib/libc.a(lib_a-sscanf.o)
 *fill*         0x000000000002e3ec        0x4 60000000
 .text.sscanf   0x000000000002e3f0       0xb0 /opt/ps3dev/ppu/lib/gcc/powerpc64-ps3-elf/4.7.0/../../../../powerpc64-ps3-elf/lib/libc.a(lib_a-sscanf.o)
                0x000000000002e3f0                .sscanf
 .text._sscanf_r
                0x000000000002e4a0       0xb0 /opt/ps3dev/ppu/lib/gcc/powerpc64-ps3-elf/4.7.0/../../../../powerpc64-ps3-elf/lib/libc.a(lib_a-sscanf.o)
                0x000000000002e4a0                ._sscanf_r
 .text          0x000000000002e550        0x0 /opt/ps3dev/ppu/lib/gcc/powerpc64-ps3-elf/4.7.0/../../../../powerpc64-ps3-elf/lib/libc.a(lib_a-strncpy.o)
 .text.strncpy  0x000000000002e550      0x11c /opt/ps3dev/ppu/lib/gcc/powerpc64-ps3-elf/4.7.0/../../../../powerpc64-ps3-elf/lib/libc.a(lib_a-strncpy.o)
                0x000000000002e550                .strncpy
 .text          0x000000000002e66c        0x0 /opt/ps3dev/ppu/lib/gcc/powerpc64-ps3-elf/4.7.0/../../../../powerpc64-ps3-elf/lib/libc.a(lib_a-svfscanf.o)
 *fill*         0x000000000002e66c        0x4 60000000
 .text.__ssvfscanf_r
                0x000000000002e670     0x1800 /opt/ps3dev/ppu/lib/gcc/powerpc64-ps3-elf/4.7.0/../../../../powerpc64-ps3-elf/lib/libc.a(lib_a-svfscanf.o)
                0x000000000002e670                .__ssvfscanf_r
 .text          0x000000000002fe70        0x0 /opt/ps3dev/ppu/lib/gcc/powerpc64-ps3-elf/4.7.0/../../../../powerpc64-ps3-elf/lib/libc.a(lib_a-iswspace.o)
 .text.iswspace
                0x000000000002fe70       0x3c /opt/ps3dev/ppu/lib/gcc/powerpc64-ps3-elf/4.7.0/../../../../powerpc64-ps3-elf/lib/libc.a(lib_a-iswspace.o)
                0x000000000002fe70                .iswspace
 .text          0x000000000002feac        0x0 /opt/ps3dev/ppu/lib/gcc/powerpc64-ps3-elf/4.7.0/../../../../powerpc64-ps3-elf/lib/libc.a(lib_a-mbrtowc.o)
 *fill*         0x000000000002feac        0x4 60000000
 .text._mbrtowc_r
                0x000000000002feb0      0x104 /opt/ps3dev/ppu/lib/gcc/powerpc64-ps3-elf/4.7.0/../../../../powerpc64-ps3-elf/lib/libc.a(lib_a-mbrtowc.o)
                0x000000000002feb0                ._mbrtowc_r
 *fill*         0x000000000002ffb4        0x4 60000000
 .text.mbrtowc  0x000000000002ffb8      0x170 /opt/ps3dev/ppu/lib/gcc/powerpc64-ps3-elf/4.7.0/../../../../powerpc64-ps3-elf/lib/libc.a(lib_a-mbrtowc.o)
                0x000000000002ffb8                .mbrtowc
 .text          0x0000000000030128        0x0 /opt/ps3dev/ppu/lib/gcc/powerpc64-ps3-elf/4.7.0/../../../../powerpc64-ps3-elf/lib/libc.a(lib_a-mbtowc_r.o)
 .text.__ascii_mbtowc
                0x0000000000030128       0x5c /opt/ps3dev/ppu/lib/gcc/powerpc64-ps3-elf/4.7.0/../../../../powerpc64-ps3-elf/lib/libc.a(lib_a-mbtowc_r.o)
                0x0000000000030128                .__ascii_mbtowc
 *fill*         0x0000000000030184        0x4 60000000
 .text._mbtowc_r
                0x0000000000030188       0x98 /opt/ps3dev/ppu/lib/gcc/powerpc64-ps3-elf/4.7.0/../../../../powerpc64-ps3-elf/lib/libc.a(lib_a-mbtowc_r.o)
                0x0000000000030188                ._mbtowc_r
 .text          0x0000000000030220        0x0 /opt/ps3dev/ppu/lib/gcc/powerpc64-ps3-elf/4.7.0/../../../../powerpc64-ps3-elf/lib/libc.a(lib_a-sccl.o)
 .text.__sccl   0x0000000000030220      0x120 /opt/ps3dev/ppu/lib/gcc/powerpc64-ps3-elf/4.7.0/../../../../powerpc64-ps3-elf/lib/libc.a(lib_a-sccl.o)
                0x0000000000030220                .__sccl
 .text          0x0000000000030340        0x0 /opt/ps3dev/ppu/lib/gcc/powerpc64-ps3-elf/4.7.0/../../../../powerpc64-ps3-elf/lib/libc.a(lib_a-sf_nan.o)
 .text.nanf     0x0000000000030340       0x18 /opt/ps3dev/ppu/lib/gcc/powerpc64-ps3-elf/4.7.0/../../../../powerpc64-ps3-elf/lib/libc.a(lib_a-sf_nan.o)
                0x0000000000030340                .nanf
 .text          0x0000000000030358        0x0 /opt/ps3dev/ppu/lib/gcc/powerpc64-ps3-elf/4.7.0/../../../../powerpc64-ps3-elf/lib/libc.a(lib_a-sprintf.o)
 .text._sprintf_r
                0x0000000000030358       0x8c /opt/ps3dev/ppu/lib/gcc/powerpc64-ps3-elf/4.7.0/../../../../powerpc64-ps3-elf/lib/libc.a(lib_a-sprintf.o)
                0x0000000000030358                ._sprintf_r
 *fill*         0x00000000000303e4        0x4 60000000
 .text.sprintf  0x00000000000303e8       0xa4 /opt/ps3dev/ppu/lib/gcc/powerpc64-ps3-elf/4.7.0/../../../../powerpc64-ps3-elf/lib/libc.a(lib_a-sprintf.o)
                0x00000000000303e8                .sprintf
 .text          0x000000000003048c        0x0 /opt/ps3dev/ppu/lib/gcc/powerpc64-ps3-elf/4.7.0/../../../../powerpc64-ps3-elf/lib/libc.a(lib_a-strtod.o)
 *fill*         0x000000000003048c        0x4 60000000
 .text._strtod_r
                0x0000000000030490     0x15fc /opt/ps3dev/ppu/lib/gcc/powerpc64-ps3-elf/4.7.0/../../../../powerpc64-ps3-elf/lib/libc.a(lib_a-strtod.o)
                0x0000000000030490                ._strtod_r
 *fill*         0x0000000000031a8c        0x4 60000000
 .text.strtod   0x0000000000031a90       0x50 /opt/ps3dev/ppu/lib/gcc/powerpc64-ps3-elf/4.7.0/../../../../powerpc64-ps3-elf/lib/libc.a(lib_a-strtod.o)
                0x0000000000031a90                .strtod
 .text.strtof   0x0000000000031ae0       0x98 /opt/ps3dev/ppu/lib/gcc/powerpc64-ps3-elf/4.7.0/../../../../powerpc64-ps3-elf/lib/libc.a(lib_a-strtod.o)
                0x0000000000031ae0                .strtof
 .text          0x0000000000031b78        0x0 /opt/ps3dev/ppu/lib/gcc/powerpc64-ps3-elf/4.7.0/../../../../powerpc64-ps3-elf/lib/libc.a(lib_a-strtoll_r.o)
 .text._strtoll_r
                0x0000000000031b78      0x264 /opt/ps3dev/ppu/lib/gcc/powerpc64-ps3-elf/4.7.0/../../../../powerpc64-ps3-elf/lib/libc.a(lib_a-strtoll_r.o)
                0x0000000000031b78                ._strtoll_r
 .text          0x0000000000031ddc        0x0 /opt/ps3dev/ppu/lib/gcc/powerpc64-ps3-elf/4.7.0/../../../../powerpc64-ps3-elf/lib/libc.a(lib_a-strtol.o)
 *fill*         0x0000000000031ddc        0x4 60000000
 .text._strtol_r
                0x0000000000031de0      0x264 /opt/ps3dev/ppu/lib/gcc/powerpc64-ps3-elf/4.7.0/../../../../powerpc64-ps3-elf/lib/libc.a(lib_a-strtol.o)
                0x0000000000031de0                ._strtol_r
 *fill*         0x0000000000032044        0x4 60000000
 .text.strtol   0x0000000000032048       0x60 /opt/ps3dev/ppu/lib/gcc/powerpc64-ps3-elf/4.7.0/../../../../powerpc64-ps3-elf/lib/libc.a(lib_a-strtol.o)
                0x0000000000032048                .strtol
 .text          0x00000000000320a8        0x0 /opt/ps3dev/ppu/lib/gcc/powerpc64-ps3-elf/4.7.0/../../../../powerpc64-ps3-elf/lib/libc.a(lib_a-strtoull_r.o)
 .text._strtoull_r
                0x00000000000320a8      0x260 /opt/ps3dev/ppu/lib/gcc/powerpc64-ps3-elf/4.7.0/../../../../powerpc64-ps3-elf/lib/libc.a(lib_a-strtoull_r.o)
                0x00000000000320a8                ._strtoull_r
 .text          0x0000000000032308        0x0 /opt/ps3dev/ppu/lib/gcc/powerpc64-ps3-elf/4.7.0/../../../../powerpc64-ps3-elf/lib/libc.a(lib_a-strtoul.o)
 .text._strtoul_r
                0x0000000000032308      0x260 /opt/ps3dev/ppu/lib/gcc/powerpc64-ps3-elf/4.7.0/../../../../powerpc64-ps3-elf/lib/libc.a(lib_a-strtoul.o)
                0x0000000000032308                ._strtoul_r
 .text.strtoul  0x0000000000032568       0x60 /opt/ps3dev/ppu/lib/gcc/powerpc64-ps3-elf/4.7.0/../../../../powerpc64-ps3-elf/lib/libc.a(lib_a-strtoul.o)
                0x0000000000032568                .strtoul
 .text          0x00000000000325c8        0x0 /opt/ps3dev/ppu/lib/gcc/powerpc64-ps3-elf/4.7.0/../../../../powerpc64-ps3-elf/lib/libc.a(lib_a-svfiscanf.o)
 .text._sungetc_r
                0x00000000000325c8      0x140 /opt/ps3dev/ppu/lib/gcc/powerpc64-ps3-elf/4.7.0/../../../../powerpc64-ps3-elf/lib/libc.a(lib_a-svfiscanf.o)
                0x00000000000325c8                ._sungetc_r
 .text.__ssrefill_r
                0x0000000000032708       0xa0 /opt/ps3dev/ppu/lib/gcc/powerpc64-ps3-elf/4.7.0/../../../../powerpc64-ps3-elf/lib/libc.a(lib_a-svfiscanf.o)
                0x0000000000032708                .__ssrefill_r
 .text._sfread_r
                0x00000000000327a8      0x190 /opt/ps3dev/ppu/lib/gcc/powerpc64-ps3-elf/4.7.0/../../../../powerpc64-ps3-elf/lib/libc.a(lib_a-svfiscanf.o)
                0x00000000000327a8                ._sfread_r
 .text.__ssvfiscanf_r
                0x0000000000032938     0x115c /opt/ps3dev/ppu/lib/gcc/powerpc64-ps3-elf/4.7.0/../../../../powerpc64-ps3-elf/lib/libc.a(lib_a-svfiscanf.o)
                0x0000000000032938                .__ssvfiscanf_r
 .text          0x0000000000033a94        0x0 /opt/ps3dev/ppu/lib/gcc/powerpc64-ps3-elf/4.7.0/../../../../powerpc64-ps3-elf/lib/libc.a(lib_a-svfprintf.o)
 *fill*         0x0000000000033a94        0x4 60000000
 .text._svfprintf_r
                0x0000000000033a98     0x1fd4 /opt/ps3dev/ppu/lib/gcc/powerpc64-ps3-elf/4.7.0/../../../../powerpc64-ps3-elf/lib/libc.a(lib_a-svfprintf.o)
                0x0000000000033a98                ._svfprintf_r
 .text          0x0000000000035a6c        0x0 /opt/ps3dev/ppu/lib/gcc/powerpc64-ps3-elf/4.7.0/../../../../powerpc64-ps3-elf/lib/libc.a(lib_a-ungetc.o)
 *fill*         0x0000000000035a6c        0x4 60000000
 .text.__submore
                0x0000000000035a70      0x124 /opt/ps3dev/ppu/lib/gcc/powerpc64-ps3-elf/4.7.0/../../../../powerpc64-ps3-elf/lib/libc.a(lib_a-ungetc.o)
                0x0000000000035a70                .__submore
 *fill*         0x0000000000035b94        0x4 60000000
 .text._ungetc_r
                0x0000000000035b98      0x310 /opt/ps3dev/ppu/lib/gcc/powerpc64-ps3-elf/4.7.0/../../../../powerpc64-ps3-elf/lib/libc.a(lib_a-ungetc.o)
                0x0000000000035b98                ._ungetc_r
 .text.ungetc   0x0000000000035ea8       0x50 /opt/ps3dev/ppu/lib/gcc/powerpc64-ps3-elf/4.7.0/../../../../powerpc64-ps3-elf/lib/libc.a(lib_a-ungetc.o)
                0x0000000000035ea8                .ungetc
 .text          0x0000000000035ef8        0x0 /opt/ps3dev/ppu/lib/gcc/powerpc64-ps3-elf/4.7.0/../../../../powerpc64-ps3-elf/lib/libc.a(lib_a-gdtoa-gethex.o)
 .text.rshift   0x0000000000035ef8      0x158 /opt/ps3dev/ppu/lib/gcc/powerpc64-ps3-elf/4.7.0/../../../../powerpc64-ps3-elf/lib/libc.a(lib_a-gdtoa-gethex.o)
 .text.__hexdig_init
                0x0000000000036050       0x88 /opt/ps3dev/ppu/lib/gcc/powerpc64-ps3-elf/4.7.0/../../../../powerpc64-ps3-elf/lib/libc.a(lib_a-gdtoa-gethex.o)
                0x0000000000036050                .__hexdig_init
 .text.__gethex
                0x00000000000360d8      0x954 /opt/ps3dev/ppu/lib/gcc/powerpc64-ps3-elf/4.7.0/../../../../powerpc64-ps3-elf/lib/libc.a(lib_a-gdtoa-gethex.o)
                0x00000000000360d8                .__gethex
 .text          0x0000000000036a2c        0x0 /opt/ps3dev/ppu/lib/gcc/powerpc64-ps3-elf/4.7.0/../../../../powerpc64-ps3-elf/lib/libc.a(lib_a-gdtoa-hexnan.o)
 *fill*         0x0000000000036a2c        0x4 60000000
 .text.__hexnan
                0x0000000000036a30      0x374 /opt/ps3dev/ppu/lib/gcc/powerpc64-ps3-elf/4.7.0/../../../../powerpc64-ps3-elf/lib/libc.a(lib_a-gdtoa-hexnan.o)
                0x0000000000036a30                .__hexnan
 .text          0x0000000000036da4        0x0 /opt/ps3dev/ppu/lib/gcc/powerpc64-ps3-elf/4.7.0/../../../../powerpc64-ps3-elf/lib/libc.a(lib_a-strncmp.o)
 *fill*         0x0000000000036da4        0x4 60000000
 .text.strncmp  0x0000000000036da8      0x168 /opt/ps3dev/ppu/lib/gcc/powerpc64-ps3-elf/4.7.0/../../../../powerpc64-ps3-elf/lib/libc.a(lib_a-strncmp.o)
                0x0000000000036da8                .strncmp
 .text          0x0000000000036f10        0x0 /opt/ps3dev/ppu/lib/gcc/powerpc64-ps3-elf/4.7.0/../../../../powerpc64-ps3-elf/lib/libc.a(lib_a-svfiprintf.o)
 .text.__ssprint_r
                0x0000000000036f10      0x2e8 /opt/ps3dev/ppu/lib/gcc/powerpc64-ps3-elf/4.7.0/../../../../powerpc64-ps3-elf/lib/libc.a(lib_a-svfiprintf.o)
                0x0000000000036f10                .__ssprint_r
 .text._svfiprintf_r
                0x00000000000371f8      0xfa4 /opt/ps3dev/ppu/lib/gcc/powerpc64-ps3-elf/4.7.0/../../../../powerpc64-ps3-elf/lib/libc.a(lib_a-svfiprintf.o)
                0x00000000000371f8                ._svfiprintf_r
 .text          0x000000000003819c        0x0 /opt/ps3dev/ppu/lib/gcc/powerpc64-ps3-elf/4.7.0/crtend.o
 *fill*         0x000000000003819c        0x4 60000000
 .text.__do_global_ctors_aux
                0x00000000000381a0       0x5c /opt/ps3dev/ppu/lib/gcc/powerpc64-ps3-elf/4.7.0/crtend.o
 .text          0x00000000000381fc        0x0 /opt/ps3dev/ppu/lib/gcc/powerpc64-ps3-elf/4.7.0/../../../../powerpc64-ps3-elf/lib/lv2-crtn.o
 *(.text.*personality*)
 *(.gnu.warning)
 *(.sfpr .glink)
 .sfpr          0x0000000000000000        0x0 linker stubs
 *fill*         0x00000000000381fc        0x0 60000000
 .glink         0x0000000000000000        0x0 linker stubs

.fini           0x00000000000381fc       0x2c
 *(.fini)
 .fini          0x00000000000381fc        0xc /opt/ps3dev/ppu/lib/gcc/powerpc64-ps3-elf/4.7.0/../../../../powerpc64-ps3-elf/lib/lv2-crti.o
                0x00000000000381fc                ._fini
 .fini          0x0000000000038208        0x8 /opt/ps3dev/ppu/lib/gcc/powerpc64-ps3-elf/4.7.0/crtbegin.o
 .fini          0x0000000000038210        0x8 /opt/ps3dev/psl1ght/ppu/lib/librt.a(sbrk.o)
 .fini          0x0000000000038218       0x10 /opt/ps3dev/ppu/lib/gcc/powerpc64-ps3-elf/4.7.0/../../../../powerpc64-ps3-elf/lib/lv2-crtn.o

.sceStub.text   0x0000000000038228     0x5d00
 *(.sceStub.text)
 .sceStub.text  0x0000000000038228      0x200 /opt/ps3dev/psl1ght/ppu/lib/libsysmodule.a(sprx.o)
                0x0000000000038228                __sysModuleInitialize
                0x0000000000038268                __sysModuleFinalize
                0x00000000000382a8                __sysModuleLoad
                0x00000000000382a8                .sysModuleLoad
                0x00000000000382e8                .sysModuleUnload
                0x00000000000382e8                __sysModuleUnload
                0x0000000000038328                __sysModuleIsLoaded
                0x0000000000038368                __sysModuleGetImagesize
                0x00000000000383a8                __sysModuleFetchImage
                0x00000000000383e8                __sysModuleSetMemcontainer
 .sceStub.text  0x0000000000038428     0x1640 /opt/ps3dev/psl1ght/ppu/lib/libgcm_sys.a(sprx.o)
                0x0000000000038428                .gcmInitBody
                0x0000000000038428                __gcmInitBody
                0x0000000000038468                .gcmSetDisplayBuffer
                0x0000000000038468                __gcmSetDisplayBuffer
                0x00000000000384a8                .gcmGetControlRegister
                0x00000000000384a8                __gcmGetControlRegister
                0x00000000000384e8                __gcmAddressToOffset
                0x00000000000384e8                .gcmAddressToOffset
                0x0000000000038528                .gcmGetConfiguration
                0x0000000000038528                __gcmGetConfiguration
                0x0000000000038568                __gcmGetCurrentField
                0x00000000000385a8                .gcmSetFlipMode
                0x00000000000385a8                __gcmSetFlipMode
                0x00000000000385e8                .gcmGetFlipStatus
                0x00000000000385e8                __gcmGetFlipStatus
                0x0000000000038628                __gcmGetLastFlipTime
                0x0000000000038668                __gcmGetVBlankCount
                0x00000000000386a8                __gcmSetWaitFlip
                0x00000000000386a8                .gcmSetWaitFlip
                0x00000000000386e8                __gcmSetFlipStatus
                0x0000000000038728                __gcmResetFlipStatus
                0x0000000000038728                .gcmResetFlipStatus
                0x0000000000038768                __gcmSetFlip
                0x0000000000038768                .gcmSetFlip
                0x00000000000387a8                __gcmSetFlipImmediate
                0x00000000000387e8                __gcmFunc15
                0x0000000000038828                __gcmFunc3
                0x0000000000038868                __gcmFunc1
                0x00000000000388a8                __gcmFunc2
                0x00000000000388e8                __gcmFunc4
                0x0000000000038928                __gcmFunc12
                0x0000000000038968                __gcmFunc13
                0x00000000000389a8                __gcmGetReport
                0x00000000000389e8                __gcmSetTile
                0x0000000000038a28                __gcmBindTile
                0x0000000000038a68                __gcmUnbindTile
                0x0000000000038aa8                __gcmSetZcull
                0x0000000000038ae8                __gcmBindZcull
                0x0000000000038b28                __gcmUnbindZcull
                0x0000000000038b68                __gcmGetTimeStamp
                0x0000000000038ba8                __gcmSetVBlankFrequency
                0x0000000000038be8                __gcmSetSecondVFrequency
                0x0000000000038c28                __gcmSetDebugOutputLevel
                0x0000000000038c68                __gcmGetLabelAddress
                0x0000000000038ca8                __gcmSetVBlankHandlerEx
                0x0000000000038ce8                __gcmSetFlipHandlerEx
                0x0000000000038d28                __gcmSetSecondVHandlerEx
                0x0000000000038d68                __gcmSetGraphicsHandlerEx
                0x0000000000038da8                __gcmTerminate
                0x0000000000038de8                __gcmMapMainMemory
                0x0000000000038e28                __gcmMapEaIoAddress
                0x0000000000038e68                __gcmUnmapEaIoAddress
                0x0000000000038ea8                __gcmUnmapIoAddress
                0x0000000000038ee8                __gcmIoOffsetToAddress
                0x0000000000038f28                __gcmSetDefaultCommandBuffer
                0x0000000000038f68                __gcmSetTileInfo
                0x0000000000038fa8                __gcmGetTiledPitchSize
                0x0000000000038fe8                __gcmSetInvalidateTile
                0x0000000000039028                __gcmSetUserCommandEx
                0x0000000000039068                __gcmSetUserHandlerEx
                0x00000000000390a8                __gcmSetQueueHandlerEx
                0x00000000000390e8                __gcmSetPrepareFlip
                0x0000000000039128                __gcmGetOffsetTable
                0x0000000000039168                __gcmGetLastSecondVTime
                0x00000000000391a8                __gcmSortRemapEaIoAddress
                0x00000000000391e8                __gcmGetDisplayBufferByFlipIndex
                0x0000000000039228                __gcmGcmGetDefaultCommandWordSize
                0x0000000000039268                __gcmGcmGetDefaultSegmentWordSize
                0x00000000000392a8                __gcmSetDefaultCommandBufferAndSegmentWordSize
                0x00000000000392e8                __gcmGetDisplayInfo
                0x0000000000039328                __gcmDumpGraphicsError
                0x0000000000039368                __gcmFunc38
                0x00000000000393a8                __gcmGetCurrentDisplayBufferId
                0x00000000000393e8                __gcmGetDefaultCommandWordSize
                0x0000000000039428                __gcmGetDefaultSegmentWordSize
                0x0000000000039468                __gcmGetMaxIoMapSize
                0x00000000000394a8                __gcmGetNotifyDataAddress
                0x00000000000394e8                __gcmGetReportDataAddress
                0x0000000000039528                __gcmGetReportDataAddressLocation
                0x0000000000039568                __gcmGetReportDataLocation
                0x00000000000395a8                __gcmGetTileInfo
                0x00000000000395e8                __gcmGetTimeStampLocation
                0x0000000000039628                __gcmGetZcullInfo
                0x0000000000039668                __gcmInitCursor
                0x00000000000396a8                __gcmInitDefaultFifoMode
                0x00000000000396e8                __gcmInitSystemMode
                0x0000000000039728                __gcmMapEaIoAddressWithFlags
                0x0000000000039768                __gcmMapLocalMemory
                0x00000000000397a8                __gcmReserveIoMapSize
                0x00000000000397e8                __gcmSetCursorDisable
                0x0000000000039828                __gcmSetCursorEnable
                0x0000000000039868                __gcmSetCursorImageOffset
                0x00000000000398a8                __gcmSetCursorPosition
                0x00000000000398e8                __gcmSetDefaultFifoSize
                0x0000000000039928                __gcmSetFlipCommand
                0x0000000000039968                __gcmSetFlipCommandWithWaitLabel
                0x00000000000399a8                __gcmSysGetLastVBlankTime
                0x00000000000399e8                __gcmUnreserveIoMapSize
                0x0000000000039a28                __gcmUpdateCursor
 .sceStub.text  0x0000000000039a68     0x1400 /opt/ps3dev/psl1ght/ppu/lib/libsysutil.a(sprx.o)
                0x0000000000039a68                .videoGetResolution
                0x0000000000039a68                __videoGetResolution
                0x0000000000039aa8                .videoConfigure
                0x0000000000039aa8                __videoConfigure
                0x0000000000039ae8                .videoGetState
                0x0000000000039ae8                __videoGetState
                0x0000000000039b28                __videoGetDeviceInfo
                0x0000000000039b68                __videoGetConfiguration
                0x0000000000039ba8                __videoGetResolutionAvailability
                0x0000000000039be8                __videoDebugSetMonitorType
                0x0000000000039c28                __videoRegisterCallbackEx
                0x0000000000039c68                __videoUnregisterCallback
                0x0000000000039ca8                __videoGetNumberOfDevice
                0x0000000000039ce8                __videoGetConvertCursorColorInfo
                0x0000000000039d28                __msgDialogClose
                0x0000000000039d68                .msgDialogOpenErrorCodeEx
                0x0000000000039d68                __msgDialogOpenErrorCodeEx
                0x0000000000039da8                .msgDialogOpenEx
                0x0000000000039da8                __msgDialogOpenEx
                0x0000000000039de8                __msgDialogProgressBarInc
                0x0000000000039e28                __msgDialogAbort
                0x0000000000039e68                .msgDialogOpen2Ex
                0x0000000000039e68                __msgDialogOpen2Ex
                0x0000000000039ea8                __msgDialogProgressBarReset
                0x0000000000039ee8                __msgDialogProgressBarSetMsg
                0x0000000000039f28                __oskGetInputText
                0x0000000000039f68                __oskSetInitialInputDevice
                0x0000000000039fa8                __oskGetSize
                0x0000000000039fe8                __oskUnloadAsync
                0x000000000003a028                __oskDisableDimmer
                0x000000000003a068                __oskSetKeyLayoutOption
                0x000000000003a0a8                __oskAbort
                0x000000000003a0e8                __oskSetDeviceMask
                0x000000000003a128                __oskSetSeparateWindowOption
                0x000000000003a168                __oskAddSupportLanguage
                0x000000000003a1a8                __oskLoadAsync
                0x000000000003a1e8                __oskSetInitialKeyLayout
                0x000000000003a228                __oskSetLayoutMode
                0x000000000003a268                __sysUtilRegisterCallbackEx
                0x000000000003a268                .sysUtilRegisterCallbackEx
                0x000000000003a2a8                __sysUtilCheckCallback
                0x000000000003a2a8                .sysUtilCheckCallback
                0x000000000003a2e8                __sysUtilUnregisterCallback
                0x000000000003a2e8                .sysUtilUnregisterCallback
                0x000000000003a328                .sysSaveListLoad2Ex
                0x000000000003a328                __sysSaveListLoad2Ex
                0x000000000003a368                __sysSaveListSave2Ex
                0x000000000003a368                .sysSaveListSave2Ex
                0x000000000003a3a8                __sysSaveListAutoLoadEx
                0x000000000003a3a8                .sysSaveListAutoLoadEx
                0x000000000003a3e8                __sysSaveListAutoSaveEx
                0x000000000003a3e8                .sysSaveListAutoSaveEx
                0x000000000003a428                .sysSaveFixedLoad2Ex
                0x000000000003a428                __sysSaveFixedLoad2Ex
                0x000000000003a468                .sysSaveFixedSave2Ex
                0x000000000003a468                __sysSaveFixedSave2Ex
                0x000000000003a4a8                .sysSaveAutoLoad2Ex
                0x000000000003a4a8                __sysSaveAutoLoad2Ex
                0x000000000003a4e8                __sysSaveAutoSave2Ex
                0x000000000003a4e8                .sysSaveAutoSave2Ex
                0x000000000003a528                __sysSaveDelete2
                0x000000000003a568                __sysGameDataCheck
                0x000000000003a5a8                __sysGameBootCheck
                0x000000000003a5e8                __sysGamePatchCheck
                0x000000000003a628                __sysGameCreateGameData
                0x000000000003a668                __sysGameGetParamInt
                0x000000000003a6a8                __sysGameGetParamString
                0x000000000003a6e8                __sysGameGetSizeKB
                0x000000000003a728                __sysGameSetParamString
                0x000000000003a768                __sysGameGetDiscContentInfoUpdatePath
                0x000000000003a7a8                __sysGameContentPermit
                0x000000000003a7e8                __sysGameContentErrorDialog
                0x000000000003a828                __sysGameThemeInstall
                0x000000000003a868                .sysGameThemeInstallFromBufferEx
                0x000000000003a868                __sysGameThemeInstallFromBufferEx
                0x000000000003a8a8                __sysGameGetLocalWebContentPath
                0x000000000003a8e8                __sysGameDeleteGameData
                0x000000000003a928                __sysGameRegisterDiscChangeCallbackEx
                0x000000000003a968                __sysGameUnregisterDiscChangeCallback
                0x000000000003a9a8                .sysDiscRegisterDiscChangeCallbackEx
                0x000000000003a9a8                __sysDiscRegisterDiscChangeCallbackEx
                0x000000000003a9e8                __sysDiscUnregisterDiscChangeCallback
                0x000000000003aa28                __sysTrophyInit
                0x000000000003aa68                __sysTrophyAbortHandle
                0x000000000003aaa8                __sysTrophyCreateContext
                0x000000000003aae8                __sysTrophyCreateHandle
                0x000000000003ab28                __sysTrophyDestroyContext
                0x000000000003ab68                __sysTrophyDestroyHandle
                0x000000000003aba8                __sysTrophyGetGameIcon
                0x000000000003abe8                __sysTrophyGetGameInfo
                0x000000000003ac28                __sysTrophyGetGameProgress
                0x000000000003ac68                __sysTrophyGetRequiredDiskSpace
                0x000000000003aca8                __sysTrophyGetTrophyIcon
                0x000000000003ace8                __sysTrophyGetTrophyInfo
                0x000000000003ad28                __sysTrophyGetTrophyUnlockState
                0x000000000003ad68                __sysTrophyRegisterContextEx
                0x000000000003ada8                __sysTrophySetSoundLevel
                0x000000000003ade8                __sysTrophyTerm
                0x000000000003ae28                __sysTrophyUnlockTrophy
 .sceStub.text  0x000000000003ae68      0xbc0 /opt/ps3dev/psl1ght/ppu/lib/libio.a(sprx.o)
                0x000000000003ae68                __sys_config_start
                0x000000000003aea8                __sys_config_stop
                0x000000000003aee8                __sys_config_add_service_listener
                0x000000000003af28                __sys_config_remove_service_listener
                0x000000000003af68                __sys_config_register_service
                0x000000000003afa8                __sys_config_unregister_service
                0x000000000003afe8                __ioPadInit
                0x000000000003afe8                .ioPadInit
                0x000000000003b028                __ioPadEnd
                0x000000000003b068                __ioPadClearBuf
                0x000000000003b0a8                __ioPadInfoPressMode
                0x000000000003b0e8                __ioPadLddRegisterController
                0x000000000003b128                .ioPadGetInfo
                0x000000000003b128                __ioPadGetInfo
                0x000000000003b168                __ioPadGetRawData
                0x000000000003b1a8                __ioPadGetDataExtra
                0x000000000003b1e8                __ioPadInfoSensorMode
                0x000000000003b228                __ioPadGetData
                0x000000000003b228                .ioPadGetData
                0x000000000003b268                __ioPadLddGetPortNo
                0x000000000003b2a8                __ioPadLddDataInsert
                0x000000000003b2e8                __ioPadSetSensorMode
                0x000000000003b328                __ioPadGetCapabilityInfo
                0x000000000003b368                __ioPadLddUnregisterController
                0x000000000003b3a8                __ioPadSetActDirect
                0x000000000003b3e8                __ioPadSetPressMode
                0x000000000003b428                __ioPadPeriphGetInfo
                0x000000000003b468                __ioPadSetPortSetting
                0x000000000003b4a8                __ioPadPeriphGetData
                0x000000000003b4e8                __ioPadGetInfo2
                0x000000000003b528                __ioMouseInit
                0x000000000003b568                __ioMouseEnd
                0x000000000003b5a8                __ioMouseClearBuf
                0x000000000003b5e8                __ioMouseGetInfo
                0x000000000003b628                __ioMouseGetTabletDataList
                0x000000000003b668                __ioMouseSetTabletMode
                0x000000000003b6a8                __ioMouseGetData
                0x000000000003b6e8                __ioMouseInfoTabletMode
                0x000000000003b728                __ioMouseGetRawData
                0x000000000003b768                __ioMouseGetDataList
                0x000000000003b7a8                __ioKbInit
                0x000000000003b7e8                __ioKbEnd
                0x000000000003b828                __ioKbRead
                0x000000000003b868                __ioKbSetReadMode
                0x000000000003b8a8                __ioKbSetCodeType
                0x000000000003b8e8                __ioKbCnvRawCode
                0x000000000003b928                __ioKbSetLEDStatus
                0x000000000003b968                __ioKbGetInfo
                0x000000000003b9a8                __ioKbGetConfiguration
                0x000000000003b9e8                __ioKbClearBuf
 .sceStub.text  0x000000000003ba28      0x740 /opt/ps3dev/psl1ght/ppu/lib/libpngdec.a(sprx.o)
                0x000000000003ba28                __pngDecCreate
                0x000000000003ba28                .pngDecCreate
                0x000000000003ba68                __pngDecDestroy
                0x000000000003ba68                .pngDecDestroy
                0x000000000003baa8                .pngDecOpen
                0x000000000003baa8                __pngDecOpen
                0x000000000003bae8                .pngDecClose
                0x000000000003bae8                __pngDecClose
                0x000000000003bb28                .pngDecReadHeader
                0x000000000003bb28                __pngDecReadHeader
                0x000000000003bb68                .pngDecDecodeData
                0x000000000003bb68                __pngDecDecodeData
                0x000000000003bba8                __pngDecSetParameter
                0x000000000003bba8                .pngDecSetParameter
                0x000000000003bbe8                __pngDecExtCreate
                0x000000000003bc28                __pngDecExtOpen
                0x000000000003bc68                __pngDecExtReadHeader
                0x000000000003bca8                __pngDecExtDecodeData
                0x000000000003bce8                __pngDecExtSetParameter
                0x000000000003bd28                __pngDecGetbKGD
                0x000000000003bd68                __pngDecGetcHRM
                0x000000000003bda8                __pngDecGetgAMA
                0x000000000003bde8                __pngDecGethIST
                0x000000000003be28                __pngDecGetiCCP
                0x000000000003be68                __pngDecGetoFFs
                0x000000000003bea8                __pngDecGetpCAL
                0x000000000003bee8                __pngDecGetpHYs
                0x000000000003bf28                __pngDecGetsBIT
                0x000000000003bf68                __pngDecGetsCAL
                0x000000000003bfa8                __pngDecGetsPLT
                0x000000000003bfe8                __pngDecGetsRGB
                0x000000000003c028                __pngDecGettIME
                0x000000000003c068                __pngDecGettRNS
                0x000000000003c0a8                __pngDecGetPLTE
                0x000000000003c0e8                __pngDecUnknownChunks
                0x000000000003c128                __pngDecGetTextChunk
 .sceStub.text  0x000000000003c168     0x1dc0 /opt/ps3dev/psl1ght/ppu/lib/liblv2.a(sprx.o)
                0x000000000003c168                __sysGetSystemTime
                0x000000000003c1a8                __sysGetSystemSwVersion
                0x000000000003c1e8                __sysGetTemperature
                0x000000000003c228                __sysGetRandomNumber
                0x000000000003c268                __sysGetRtcStatus
                0x000000000003c2a8                __sysBoardStorageRead
                0x000000000003c2e8                __sysBoardStorageWrite
                0x000000000003c328                __sysProcessIsStack
                0x000000000003c368                .sysProcessExit
                0x000000000003c368                __sysProcessExit
                0x000000000003c3a8                __sysProcessExitspawn
                0x000000000003c3e8                __sysProcessExitSpawn2Ex
                0x000000000003c428                __sysProcessExitSpawnWithLevel
                0x000000000003c468                __sysProcessAtExitSpawn
                0x000000000003c4a8                __sysProcess_At_ExitSpawn
                0x000000000003c4e8                __sysPrxRegisterLibrary
                0x000000000003c528                __sysPrxUnregisterLibrary
                0x000000000003c568                __sysPrxStartModule
                0x000000000003c5a8                __sysPrxStopModule
                0x000000000003c5e8                __sysPrxLoadModule
                0x000000000003c628                __sysPrxLoadModuleByFd
                0x000000000003c668                __sysPrxLoadModuleList
                0x000000000003c6a8                __sysPrxLoadModuleListOnMemcontainer
                0x000000000003c6e8                __sysPrxLoadModuleOnMemcontainer
                0x000000000003c728                __sysPrxLoadModuleOnMemcontainerByFd
                0x000000000003c768                __sysPrxGetModuleInfo
                0x000000000003c7a8                __sysPrxGetModuleList
                0x000000000003c7e8                __sysPrxGetModuleId
                0x000000000003c828                __sysPrxGetModuleIdByAddress
                0x000000000003c868                __sysPrxGetModuleIdByName
                0x000000000003c8a8                __sysPrxUnloadModule
                0x000000000003c8e8                __sysPrxExitSpawnWithLevel
                0x000000000003c928                __sysThreadCreateEx
                0x000000000003c968                __sysThreadExit
                0x000000000003c9a8                __sysThreadGetId
                0x000000000003c9e8                __sysThreadOnce
                0x000000000003ca28                __sysThreadInitialzeTLS
                0x000000000003ca68                __sysThreadRegisterAtexit
                0x000000000003caa8                __sysThreadUnregisterAtexit
                0x000000000003cae8                __sysInterruptThreadDisestablish
                0x000000000003cb28                __sysLwMutexCreate
                0x000000000003cb28                .sysLwMutexCreate
                0x000000000003cb68                __sysLwMutexDestroy
                0x000000000003cb68                .sysLwMutexDestroy
                0x000000000003cba8                .sysLwMutexLock
                0x000000000003cba8                __sysLwMutexLock
                0x000000000003cbe8                .sysLwMutexTryLock
                0x000000000003cbe8                __sysLwMutexTryLock
                0x000000000003cc28                __sysLwMutexUnlock
                0x000000000003cc28                .sysLwMutexUnlock
                0x000000000003cc68                __sysLwCondCreate
                0x000000000003cca8                __sysLwCondWait
                0x000000000003cce8                __sysLwCondSignal
                0x000000000003cd28                __sysLwCondSignalTo
                0x000000000003cd68                __sysLwCondSignalAll
                0x000000000003cda8                __sysLwCondDestroy
                0x000000000003cde8                .sysSpinlockInitialize
                0x000000000003cde8                __sysSpinlockInitialize
                0x000000000003ce28                __sysSpinlockLock
                0x000000000003ce28                .sysSpinlockLock
                0x000000000003ce68                __sysSpinlockTryLock
                0x000000000003cea8                .sysSpinlockUnlock
                0x000000000003cea8                __sysSpinlockUnlock
                0x000000000003cee8                __sysWatchdogClear
                0x000000000003cf28                __sysWatchdogStart
                0x000000000003cf68                __sysWatchdogStop
                0x000000000003cfa8                __sysMalloc
                0x000000000003cfe8                __sysMemalign
                0x000000000003d028                __sysMemchr
                0x000000000003d068                __sysMemcmp
                0x000000000003d0a8                __sysMemcpy
                0x000000000003d0e8                __sysMemmove
                0x000000000003d128                __sysMemset
                0x000000000003d168                __sysFree
                0x000000000003d1a8                __sysHeapAllocHeapMemory
                0x000000000003d1e8                __sysHeapCreateHeap
                0x000000000003d228                __sysHeapDeleteHeap
                0x000000000003d268                __sysHeapFree
                0x000000000003d2a8                __sysHeapGetMallInfo
                0x000000000003d2e8                __sysHeapGetTotalFreeSize
                0x000000000003d328                __sysHeapMalloc
                0x000000000003d368                __sysHeapMemalign
                0x000000000003d3a8                __sysHeapStats
                0x000000000003d3e8                __sysQsort
                0x000000000003d428                __sysMempoolCreate
                0x000000000003d468                __sysMempoolDestroy
                0x000000000003d4a8                __sysMempoolGetCount
                0x000000000003d4e8                __sysMempoolAllocateBlock
                0x000000000003d528                __sysMempoolTryAllocateBlock
                0x000000000003d568                __sysMempoolFreeBlock
                0x000000000003d5a8                __sysMMapperFreeMemory
                0x000000000003d5a8                .sysMMapperFreeMemory
                0x000000000003d5e8                __sysMMapperMapMemory
                0x000000000003d628                __sysMMapperUnmapMemory
                0x000000000003d628                .sysMMapperUnmapMemory
                0x000000000003d668                __sysMMapperAllocateMemory
                0x000000000003d668                .sysMMapperAllocateMemory
                0x000000000003d6a8                __sysMMapperAllocateMemoryFromContainer
                0x000000000003d6e8                __sysStrlen
                0x000000000003d728                __sysStrcpy
                0x000000000003d768                __sysStrncpy
                0x000000000003d7a8                __sysStrcat
                0x000000000003d7e8                __sysStrncat
                0x000000000003d828                __sysStrchr
                0x000000000003d868                __sysStrrchr
                0x000000000003d8a8                __sysStrcmp
                0x000000000003d8e8                __sysStrncmp
                0x000000000003d928                __sysStrncasecmp
                0x000000000003d968                __sysToLower
                0x000000000003d9a8                __sysToUpper
                0x000000000003d9e8                __sysSpuElfGetSegments
                0x000000000003da28                __sysSpuElfGetInformation
                0x000000000003da68                __sysSpuRawLoad
                0x000000000003daa8                __sysSpuRawImageLoad
                0x000000000003dae8                __sysSpuImageClose
                0x000000000003db28                __sysSpuImageImport
                0x000000000003db68                __sysSpuPrintfAttachGroup
                0x000000000003dba8                __sysSpuPrintfAttachThread
                0x000000000003dbe8                __sysSpuPrintfDetachGroup
                0x000000000003dc28                __sysSpuPrintfDetach_Tread
                0x000000000003dc68                __sysSpuPrintfFinalize
                0x000000000003dca8                __sysSpuPrintfInitialize
                0x000000000003dce8                __sysConsoleGetc
                0x000000000003dd28                __sysConsolePutc
                0x000000000003dd68                __sysConsoleWrite
                0x000000000003dda8                __sysPrintf
                0x000000000003dde8                __sysSprintf
                0x000000000003de28                __sysSnprintf
                0x000000000003de68                __sysVprintf
                0x000000000003dea8                __sysVsprintf
                0x000000000003dee8                __sysVsnprintf
 *(SORT(.sceStub.text.*))
                0x000000000003df28                PROVIDE (__etext, .)
                0x000000000003df28                PROVIDE (_etext, .)
                0x000000000003df28                PROVIDE (etext, .)

.eh_frame_hdr   0x000000000003df28        0x0
 *(.eh_frame_hdr)
 .eh_frame_hdr  0x0000000000000000        0x0 /opt/ps3dev/ppu/lib/gcc/powerpc64-ps3-elf/4.7.0/../../../../powerpc64-ps3-elf/lib/lv2-crtn.o

.eh_frame       0x000000000003df28        0x4
 *(.eh_frame)
 .eh_frame      0x000000000003df28        0x0 linker stubs
 .eh_frame      0x000000000003df28        0x0 /opt/ps3dev/ppu/lib/gcc/powerpc64-ps3-elf/4.7.0/crtbegin.o
 .eh_frame      0x000000000003df28        0x4 /opt/ps3dev/ppu/lib/gcc/powerpc64-ps3-elf/4.7.0/crtend.o

.gcc_except_table
 *(.gcc_except_table .gcc_except_table.*)

.rodata.sceResident
                0x000000000003df2c       0x62
 *(.rodata.sceResident)
 .rodata.sceResident
                0x000000000003df2c       0x12 /opt/ps3dev/psl1ght/ppu/lib/libsysmodule.a(sprx.o)
 *fill*         0x000000000003df3e        0x2 00
 .rodata.sceResident
                0x000000000003df40        0xf /opt/ps3dev/psl1ght/ppu/lib/libgcm_sys.a(sprx.o)
 *fill*         0x000000000003df4f        0x1 00
 .rodata.sceResident
                0x000000000003df50       0x10 /opt/ps3dev/psl1ght/ppu/lib/libsysutil.a(sprx.o)
 .rodata.sceResident
                0x000000000003df60        0xb /opt/ps3dev/psl1ght/ppu/lib/libio.a(sprx.o)
 *fill*         0x000000000003df6b        0x1 00
 .rodata.sceResident
                0x000000000003df6c        0xf /opt/ps3dev/psl1ght/ppu/lib/libpngdec.a(sprx.o)
 *fill*         0x000000000003df7b        0x1 00
 .rodata.sceResident
                0x000000000003df7c       0x12 /opt/ps3dev/psl1ght/ppu/lib/liblv2.a(sprx.o)

.rodata.sceFNID
                0x000000000003df90      0x5d0
 *(.rodata.sceFNID .rodata.sceFNID.*)
 .rodata.sceFNID
                0x000000000003df90       0x20 /opt/ps3dev/psl1ght/ppu/lib/libsysmodule.a(sprx.o)
                0x000000000003df90                cellSysmodule
                0x000000000003df90                sysModuleInitialize_fnid
                0x000000000003df94                sysModuleFinalize_fnid
                0x000000000003df98                sysModuleLoad_fnid
                0x000000000003df9c                sysModuleUnload_fnid
                0x000000000003dfa0                sysModuleIsLoaded_fnid
                0x000000000003dfa4                sysModuleGetImagesize_fnid
                0x000000000003dfa8                sysModuleFetchImage_fnid
                0x000000000003dfac                sysModuleSetMemcontainer_fnid
 .rodata.sceFNID
                0x000000000003dfb0      0x164 /opt/ps3dev/psl1ght/ppu/lib/libgcm_sys.a(sprx.o)
                0x000000000003dfb0                gcmInitBody_fnid
                0x000000000003dfb0                cellGcmSys
                0x000000000003dfb4                gcmSetDisplayBuffer_fnid
                0x000000000003dfb8                gcmGetControlRegister_fnid
                0x000000000003dfbc                gcmAddressToOffset_fnid
                0x000000000003dfc0                gcmGetConfiguration_fnid
                0x000000000003dfc4                gcmGetCurrentField_fnid
                0x000000000003dfc8                gcmSetFlipMode_fnid
                0x000000000003dfcc                gcmGetFlipStatus_fnid
                0x000000000003dfd0                gcmGetLastFlipTime_fnid
                0x000000000003dfd4                gcmGetVBlankCount_fnid
                0x000000000003dfd8                gcmSetWaitFlip_fnid
                0x000000000003dfdc                gcmSetFlipStatus_fnid
                0x000000000003dfe0                gcmResetFlipStatus_fnid
                0x000000000003dfe4                gcmSetFlip_fnid
                0x000000000003dfe8                gcmSetFlipImmediate_fnid
                0x000000000003dfec                gcmFunc15_fnid
                0x000000000003dff0                gcmFunc3_fnid
                0x000000000003dff4                gcmFunc1_fnid
                0x000000000003dff8                gcmFunc2_fnid
                0x000000000003dffc                gcmFunc4_fnid
                0x000000000003e000                gcmFunc12_fnid
                0x000000000003e004                gcmFunc13_fnid
                0x000000000003e008                gcmGetReport_fnid
                0x000000000003e00c                gcmSetTile_fnid
                0x000000000003e010                gcmBindTile_fnid
                0x000000000003e014                gcmUnbindTile_fnid
                0x000000000003e018                gcmSetZcull_fnid
                0x000000000003e01c                gcmBindZcull_fnid
                0x000000000003e020                gcmUnbindZcull_fnid
                0x000000000003e024                gcmGetTimeStamp_fnid
                0x000000000003e028                gcmSetVBlankFrequency_fnid
                0x000000000003e02c                gcmSetSecondVFrequency_fnid
                0x000000000003e030                gcmSetDebugOutputLevel_fnid
                0x000000000003e034                gcmGetLabelAddress_fnid
                0x000000000003e038                gcmSetVBlankHandlerEx_fnid
                0x000000000003e03c                gcmSetFlipHandlerEx_fnid
                0x000000000003e040                gcmSetSecondVHandlerEx_fnid
                0x000000000003e044                gcmSetGraphicsHandlerEx_fnid
                0x000000000003e048                gcmTerminate_fnid
                0x000000000003e04c                gcmMapMainMemory_fnid
                0x000000000003e050                gcmMapEaIoAddress_fnid
                0x000000000003e054                gcmUnmapEaIoAddress_fnid
                0x000000000003e058                gcmUnmapIoAddress_fnid
                0x000000000003e05c                gcmIoOffsetToAddress_fnid
                0x000000000003e060                gcmSetDefaultCommandBuffer_fnid
                0x000000000003e064                gcmSetTileInfo_fnid
                0x000000000003e068                gcmGetTiledPitchSize_fnid
                0x000000000003e06c                gcmSetInvalidateTile_fnid
                0x000000000003e070                gcmSetUserCommandEx_fnid
                0x000000000003e074                gcmSetUserHandlerEx_fnid
                0x000000000003e078                gcmSetQueueHandlerEx_fnid
                0x000000000003e07c                gcmSetPrepareFlip_fnid
                0x000000000003e080                gcmGetOffsetTable_fnid
                0x000000000003e084                gcmGetLastSecondVTime_fnid
                0x000000000003e088                gcmSortRemapEaIoAddress_fnid
                0x000000000003e08c                gcmGetDisplayBufferByFlipIndex_fnid
                0x000000000003e090                gcmGcmGetDefaultCommandWordSize_fnid
                0x000000000003e094                gcmGcmGetDefaultSegmentWordSize_fnid
                0x000000000003e098                gcmSetDefaultCommandBufferAndSegmentWordSize_fnid
                0x000000000003e09c                gcmGetDisplayInfo_fnid
                0x000000000003e0a0                gcmDumpGraphicsError_fnid
                0x000000000003e0a4                gcmFunc38_fnid
                0x000000000003e0a8                gcmGetCurrentDisplayBufferId_fnid
                0x000000000003e0ac                gcmGetDefaultCommandWordSize_fnid
                0x000000000003e0b0                gcmGetDefaultSegmentWordSize_fnid
                0x000000000003e0b4                gcmGetMaxIoMapSize_fnid
                0x000000000003e0b8                gcmGetNotifyDataAddress_fnid
                0x000000000003e0bc                gcmGetReportDataAddress_fnid
                0x000000000003e0c0                gcmGetReportDataAddressLocation_fnid
                0x000000000003e0c4                gcmGetReportDataLocation_fnid
                0x000000000003e0c8                gcmGetTileInfo_fnid
                0x000000000003e0cc                gcmGetTimeStampLocation_fnid
                0x000000000003e0d0                gcmGetZcullInfo_fnid
                0x000000000003e0d4                gcmInitCursor_fnid
                0x000000000003e0d8                gcmInitDefaultFifoMode_fnid
                0x000000000003e0dc                gcmInitSystemMode_fnid
                0x000000000003e0e0                gcmMapEaIoAddressWithFlags_fnid
                0x000000000003e0e4                gcmMapLocalMemory_fnid
                0x000000000003e0e8                gcmReserveIoMapSize_fnid
                0x000000000003e0ec                gcmSetCursorDisable_fnid
                0x000000000003e0f0                gcmSetCursorEnable_fnid
                0x000000000003e0f4                gcmSetCursorImageOffset_fnid
                0x000000000003e0f8                gcmSetCursorPosition_fnid
                0x000000000003e0fc                gcmSetDefaultFifoSize_fnid
                0x000000000003e100                gcmSetFlipCommand_fnid
                0x000000000003e104                gcmSetFlipCommandWithWaitLabel_fnid
                0x000000000003e108                gcmSysGetLastVBlankTime_fnid
                0x000000000003e10c                gcmUnreserveIoMapSize_fnid
                0x000000000003e110                gcmUpdateCursor_fnid
 .rodata.sceFNID
                0x000000000003e114      0x140 /opt/ps3dev/psl1ght/ppu/lib/libsysutil.a(sprx.o)
                0x000000000003e114                videoGetResolution_fnid
                0x000000000003e114                cellSysutil
                0x000000000003e118                videoConfigure_fnid
                0x000000000003e11c                videoGetState_fnid
                0x000000000003e120                videoGetDeviceInfo_fnid
                0x000000000003e124                videoGetConfiguration_fnid
                0x000000000003e128                videoGetResolutionAvailability_fnid
                0x000000000003e12c                videoDebugSetMonitorType_fnid
                0x000000000003e130                videoRegisterCallbackEx_fnid
                0x000000000003e134                videoUnregisterCallback_fnid
                0x000000000003e138                videoGetNumberOfDevice_fnid
                0x000000000003e13c                videoGetConvertCursorColorInfo_fnid
                0x000000000003e140                msgDialogClose_fnid
                0x000000000003e144                msgDialogOpenErrorCodeEx_fnid
                0x000000000003e148                msgDialogOpenEx_fnid
                0x000000000003e14c                msgDialogProgressBarInc_fnid
                0x000000000003e150                msgDialogAbort_fnid
                0x000000000003e154                msgDialogOpen2Ex_fnid
                0x000000000003e158                msgDialogProgressBarReset_fnid
                0x000000000003e15c                msgDialogProgressBarSetMsg_fnid
                0x000000000003e160                oskGetInputText_fnid
                0x000000000003e164                oskSetInitialInputDevice_fnid
                0x000000000003e168                oskGetSize_fnid
                0x000000000003e16c                oskUnloadAsync_fnid
                0x000000000003e170                oskDisableDimmer_fnid
                0x000000000003e174                oskSetKeyLayoutOption_fnid
                0x000000000003e178                oskAbort_fnid
                0x000000000003e17c                oskSetDeviceMask_fnid
                0x000000000003e180                oskSetSeparateWindowOption_fnid
                0x000000000003e184                oskAddSupportLanguage_fnid
                0x000000000003e188                oskLoadAsync_fnid
                0x000000000003e18c                oskSetInitialKeyLayout_fnid
                0x000000000003e190                oskSetLayoutMode_fnid
                0x000000000003e194                sysUtilRegisterCallbackEx_fnid
                0x000000000003e198                sysUtilCheckCallback_fnid
                0x000000000003e19c                sysUtilUnregisterCallback_fnid
                0x000000000003e1a0                sysSaveListLoad2Ex_fnid
                0x000000000003e1a4                sysSaveListSave2Ex_fnid
                0x000000000003e1a8                sysSaveListAutoLoadEx_fnid
                0x000000000003e1ac                sysSaveListAutoSaveEx_fnid
                0x000000000003e1b0                sysSaveFixedLoad2Ex_fnid
                0x000000000003e1b4                sysSaveFixedSave2Ex_fnid
                0x000000000003e1b8                sysSaveAutoLoad2Ex_fnid
                0x000000000003e1bc                sysSaveAutoSave2Ex_fnid
                0x000000000003e1c0                sysSaveDelete2_fnid
                0x000000000003e1c4                sysGameDataCheck_fnid
                0x000000000003e1c8                sysGameBootCheck_fnid
                0x000000000003e1cc                sysGamePatchCheck_fnid
                0x000000000003e1d0                sysGameCreateGameData_fnid
                0x000000000003e1d4                sysGameGetParamInt_fnid
                0x000000000003e1d8                sysGameGetParamString_fnid
                0x000000000003e1dc                sysGameGetSizeKB_fnid
                0x000000000003e1e0                sysGameSetParamString_fnid
                0x000000000003e1e4                sysGameGetDiscContentInfoUpdatePath_fnid
                0x000000000003e1e8                sysGameContentPermit_fnid
                0x000000000003e1ec                sysGameContentErrorDialog_fnid
                0x000000000003e1f0                sysGameThemeInstall_fnid
                0x000000000003e1f4                sysGameThemeInstallFromBufferEx_fnid
                0x000000000003e1f8                sysGameGetLocalWebContentPath_fnid
                0x000000000003e1fc                sysGameDeleteGameData_fnid
                0x000000000003e200                sysGameRegisterDiscChangeCallbackEx_fnid
                0x000000000003e204                sysGameUnregisterDiscChangeCallback_fnid
                0x000000000003e208                sysDiscRegisterDiscChangeCallbackEx_fnid
                0x000000000003e20c                sysDiscUnregisterDiscChangeCallback_fnid
                0x000000000003e210                sysTrophyInit_fnid
                0x000000000003e214                sysTrophyAbortHandle_fnid
                0x000000000003e218                sysTrophyCreateContext_fnid
                0x000000000003e21c                sysTrophyCreateHandle_fnid
                0x000000000003e220                sysTrophyDestroyContext_fnid
                0x000000000003e224                sysTrophyDestroyHandle_fnid
                0x000000000003e228                sysTrophyGetGameIcon_fnid
                0x000000000003e22c                sysTrophyGetGameInfo_fnid
                0x000000000003e230                sysTrophyGetGameProgress_fnid
                0x000000000003e234                sysTrophyGetRequiredDiskSpace_fnid
                0x000000000003e238                sysTrophyGetTrophyIcon_fnid
                0x000000000003e23c                sysTrophyGetTrophyInfo_fnid
                0x000000000003e240                sysTrophyGetTrophyUnlockState_fnid
                0x000000000003e244                sysTrophyRegisterContextEx_fnid
                0x000000000003e248                sysTrophySetSoundLevel_fnid
                0x000000000003e24c                sysTrophyTerm_fnid
                0x000000000003e250                sysTrophyUnlockTrophy_fnid
 .rodata.sceFNID
                0x000000000003e254       0xbc /opt/ps3dev/psl1ght/ppu/lib/libio.a(sprx.o)
                0x000000000003e254                sys_io
                0x000000000003e254                sys_config_start_fnid
                0x000000000003e258                sys_config_stop_fnid
                0x000000000003e25c                sys_config_add_service_listener_fnid
                0x000000000003e260                sys_config_remove_service_listener_fnid
                0x000000000003e264                sys_config_register_service_fnid
                0x000000000003e268                sys_config_unregister_service_fnid
                0x000000000003e26c                ioPadInit_fnid
                0x000000000003e270                ioPadEnd_fnid
                0x000000000003e274                ioPadClearBuf_fnid
                0x000000000003e278                ioPadInfoPressMode_fnid
                0x000000000003e27c                ioPadLddRegisterController_fnid
                0x000000000003e280                ioPadGetInfo_fnid
                0x000000000003e284                ioPadGetRawData_fnid
                0x000000000003e288                ioPadGetDataExtra_fnid
                0x000000000003e28c                ioPadInfoSensorMode_fnid
                0x000000000003e290                ioPadGetData_fnid
                0x000000000003e294                ioPadLddGetPortNo_fnid
                0x000000000003e298                ioPadLddDataInsert_fnid
                0x000000000003e29c                ioPadSetSensorMode_fnid
                0x000000000003e2a0                ioPadGetCapabilityInfo_fnid
                0x000000000003e2a4                ioPadLddUnregisterController_fnid
                0x000000000003e2a8                ioPadSetActDirect_fnid
                0x000000000003e2ac                ioPadSetPressMode_fnid
                0x000000000003e2b0                ioPadPeriphGetInfo_fnid
                0x000000000003e2b4                ioPadSetPortSetting_fnid
                0x000000000003e2b8                ioPadPeriphGetData_fnid
                0x000000000003e2bc                ioPadGetInfo2_fnid
                0x000000000003e2c0                ioMouseInit_fnid
                0x000000000003e2c4                ioMouseEnd_fnid
                0x000000000003e2c8                ioMouseClearBuf_fnid
                0x000000000003e2cc                ioMouseGetInfo_fnid
                0x000000000003e2d0                ioMouseGetTabletDataList_fnid
                0x000000000003e2d4                ioMouseSetTabletMode_fnid
                0x000000000003e2d8                ioMouseGetData_fnid
                0x000000000003e2dc                ioMouseInfoTabletMode_fnid
                0x000000000003e2e0                ioMouseGetRawData_fnid
                0x000000000003e2e4                ioMouseGetDataList_fnid
                0x000000000003e2e8                ioKbInit_fnid
                0x000000000003e2ec                ioKbEnd_fnid
                0x000000000003e2f0                ioKbRead_fnid
                0x000000000003e2f4                ioKbSetReadMode_fnid
                0x000000000003e2f8                ioKbSetCodeType_fnid
                0x000000000003e2fc                ioKbCnvRawCode_fnid
                0x000000000003e300                ioKbSetLEDStatus_fnid
                0x000000000003e304                ioKbGetInfo_fnid
                0x000000000003e308                ioKbGetConfiguration_fnid
                0x000000000003e30c                ioKbClearBuf_fnid
 .rodata.sceFNID
                0x000000000003e310       0x74 /opt/ps3dev/psl1ght/ppu/lib/libpngdec.a(sprx.o)
                0x000000000003e310                pngDecCreate_fnid
                0x000000000003e310                cellPngDec
                0x000000000003e314                pngDecDestroy_fnid
                0x000000000003e318                pngDecOpen_fnid
                0x000000000003e31c                pngDecClose_fnid
                0x000000000003e320                pngDecReadHeader_fnid
                0x000000000003e324                pngDecDecodeData_fnid
                0x000000000003e328                pngDecSetParameter_fnid
                0x000000000003e32c                pngDecExtCreate_fnid
                0x000000000003e330                pngDecExtOpen_fnid
                0x000000000003e334                pngDecExtReadHeader_fnid
                0x000000000003e338                pngDecExtDecodeData_fnid
                0x000000000003e33c                pngDecExtSetParameter_fnid
                0x000000000003e340                pngDecGetbKGD_fnid
                0x000000000003e344                pngDecGetcHRM_fnid
                0x000000000003e348                pngDecGetgAMA_fnid
                0x000000000003e34c                pngDecGethIST_fnid
                0x000000000003e350                pngDecGetiCCP_fnid
                0x000000000003e354                pngDecGetoFFs_fnid
                0x000000000003e358                pngDecGetpCAL_fnid
                0x000000000003e35c                pngDecGetpHYs_fnid
                0x000000000003e360                pngDecGetsBIT_fnid
                0x000000000003e364                pngDecGetsCAL_fnid
                0x000000000003e368                pngDecGetsPLT_fnid
                0x000000000003e36c                pngDecGetsRGB_fnid
                0x000000000003e370                pngDecGettIME_fnid
                0x000000000003e374                pngDecGettRNS_fnid
                0x000000000003e378                pngDecGetPLTE_fnid
                0x000000000003e37c                pngDecUnknownChunks_fnid
                0x000000000003e380                pngDecGetTextChunk_fnid
 .rodata.sceFNID
                0x000000000003e384      0x1dc /opt/ps3dev/psl1ght/ppu/lib/liblv2.a(sprx.o)
                0x000000000003e384                sysGetSystemTime_fnid
                0x000000000003e384                sysPrxForUser
                0x000000000003e388                sysGetSystemSwVersion_fnid
                0x000000000003e38c                sysGetTemperature_fnid
                0x000000000003e390                sysGetRandomNumber_fnid
                0x000000000003e394                sysGetRtcStatus_fnid
                0x000000000003e398                sysBoardStorageRead_fnid
                0x000000000003e39c                sysBoardStorageWrite_fnid
                0x000000000003e3a0                sysProcessIsStack_fnid
                0x000000000003e3a4                sysProcessExit_fnid
                0x000000000003e3a8                sysProcessExitspawn_fnid
                0x000000000003e3ac                sysProcessExitSpawn2Ex_fnid
                0x000000000003e3b0                sysProcessExitSpawnWithLevel_fnid
                0x000000000003e3b4                sysProcessAtExitSpawn_fnid
                0x000000000003e3b8                sysProcess_At_ExitSpawn_fnid
                0x000000000003e3bc                sysPrxRegisterLibrary_fnid
                0x000000000003e3c0                sysPrxUnregisterLibrary_fnid
                0x000000000003e3c4                sysPrxStartModule_fnid
                0x000000000003e3c8                sysPrxStopModule_fnid
                0x000000000003e3cc                sysPrxLoadModule_fnid
                0x000000000003e3d0                sysPrxLoadModuleByFd_fnid
                0x000000000003e3d4                sysPrxLoadModuleList_fnid
                0x000000000003e3d8                sysPrxLoadModuleListOnMemcontainer_fnid
                0x000000000003e3dc                sysPrxLoadModuleOnMemcontainer_fnid
                0x000000000003e3e0                sysPrxLoadModuleOnMemcontainerByFd_fnid
                0x000000000003e3e4                sysPrxGetModuleInfo_fnid
                0x000000000003e3e8                sysPrxGetModuleList_fnid
                0x000000000003e3ec                sysPrxGetModuleId_fnid
                0x000000000003e3f0                sysPrxGetModuleIdByAddress_fnid
                0x000000000003e3f4                sysPrxGetModuleIdByName_fnid
                0x000000000003e3f8                sysPrxUnloadModule_fnid
                0x000000000003e3fc                sysPrxExitSpawnWithLevel_fnid
                0x000000000003e400                sysThreadCreateEx_fnid
                0x000000000003e404                sysThreadExit_fnid
                0x000000000003e408                sysThreadGetId_fnid
                0x000000000003e40c                sysThreadOnce_fnid
                0x000000000003e410                sysThreadInitialzeTLS_fnid
                0x000000000003e414                sysThreadRegisterAtexit_fnid
                0x000000000003e418                sysThreadUnregisterAtexit_fnid
                0x000000000003e41c                sysInterruptThreadDisestablish_fnid
                0x000000000003e420                sysLwMutexCreate_fnid
                0x000000000003e424                sysLwMutexDestroy_fnid
                0x000000000003e428                sysLwMutexLock_fnid
                0x000000000003e42c                sysLwMutexTryLock_fnid
                0x000000000003e430                sysLwMutexUnlock_fnid
                0x000000000003e434                sysLwCondCreate_fnid
                0x000000000003e438                sysLwCondWait_fnid
                0x000000000003e43c                sysLwCondSignal_fnid
                0x000000000003e440                sysLwCondSignalTo_fnid
                0x000000000003e444                sysLwCondSignalAll_fnid
                0x000000000003e448                sysLwCondDestroy_fnid
                0x000000000003e44c                sysSpinlockInitialize_fnid
                0x000000000003e450                sysSpinlockLock_fnid
                0x000000000003e454                sysSpinlockTryLock_fnid
                0x000000000003e458                sysSpinlockUnlock_fnid
                0x000000000003e45c                sysWatchdogClear_fnid
                0x000000000003e460                sysWatchdogStart_fnid
                0x000000000003e464                sysWatchdogStop_fnid
                0x000000000003e468                sysMalloc_fnid
                0x000000000003e46c                sysMemalign_fnid
                0x000000000003e470                sysMemchr_fnid
                0x000000000003e474                sysMemcmp_fnid
                0x000000000003e478                sysMemcpy_fnid
                0x000000000003e47c                sysMemmove_fnid
                0x000000000003e480                sysMemset_fnid
                0x000000000003e484                sysFree_fnid
                0x000000000003e488                sysHeapAllocHeapMemory_fnid
                0x000000000003e48c                sysHeapCreateHeap_fnid
                0x000000000003e490                sysHeapDeleteHeap_fnid
                0x000000000003e494                sysHeapFree_fnid
                0x000000000003e498                sysHeapGetMallInfo_fnid
                0x000000000003e49c                sysHeapGetTotalFreeSize_fnid
                0x000000000003e4a0                sysHeapMalloc_fnid
                0x000000000003e4a4                sysHeapMemalign_fnid
                0x000000000003e4a8                sysHeapStats_fnid
                0x000000000003e4ac                sysQsort_fnid
                0x000000000003e4b0                sysMempoolCreate_fnid
                0x000000000003e4b4                sysMempoolDestroy_fnid
                0x000000000003e4b8                sysMempoolGetCount_fnid
                0x000000000003e4bc                sysMempoolAllocateBlock_fnid
                0x000000000003e4c0                sysMempoolTryAllocateBlock_fnid
                0x000000000003e4c4                sysMempoolFreeBlock_fnid
                0x000000000003e4c8                sysMMapperFreeMemory_fnid
                0x000000000003e4cc                sysMMapperMapMemory_fnid
                0x000000000003e4d0                sysMMapperUnmapMemory_fnid
                0x000000000003e4d4                sysMMapperAllocateMemory_fnid
                0x000000000003e4d8                sysMMapperAllocateMemoryFromContainer_fnid
                0x000000000003e4dc                sysStrlen_fnid
                0x000000000003e4e0                sysStrcpy_fnid
                0x000000000003e4e4                sysStrncpy_fnid
                0x000000000003e4e8                sysStrcat_fnid
                0x000000000003e4ec                sysStrncat_fnid
                0x000000000003e4f0                sysStrchr_fnid
                0x000000000003e4f4                sysStrrchr_fnid
                0x000000000003e4f8                sysStrcmp_fnid
                0x000000000003e4fc                sysStrncmp_fnid
                0x000000000003e500                sysStrncasecmp_fnid
                0x000000000003e504                sysToLower_fnid
                0x000000000003e508                sysToUpper_fnid
                0x000000000003e50c                sysSpuElfGetSegments_fnid
                0x000000000003e510                sysSpuElfGetInformation_fnid
                0x000000000003e514                sysSpuRawLoad_fnid
                0x000000000003e518                sysSpuRawImageLoad_fnid
                0x000000000003e51c                sysSpuImageClose_fnid
                0x000000000003e520                sysSpuImageImport_fnid
                0x000000000003e524                sysSpuPrintfAttachGroup_fnid
                0x000000000003e528                sysSpuPrintfAttachThread_fnid
                0x000000000003e52c                sysSpuPrintfDetachGroup_fnid
                0x000000000003e530                sysSpuPrintfDetach_Tread_fnid
                0x000000000003e534                sysSpuPrintfFinalize_fnid
                0x000000000003e538                sysSpuPrintfInitialize_fnid
                0x000000000003e53c                sysConsoleGetc_fnid
                0x000000000003e540                sysConsolePutc_fnid
                0x000000000003e544                sysConsoleWrite_fnid
                0x000000000003e548                sysPrintf_fnid
                0x000000000003e54c                sysSprintf_fnid
                0x000000000003e550                sysSnprintf_fnid
                0x000000000003e554                sysVprintf_fnid
                0x000000000003e558                sysVsprintf_fnid
                0x000000000003e55c                sysVsnprintf_fnid

.rodata.sceVNID
 *(.rodata.sceVNID .rodata.sceVNID.*)

.rodata.sceTNID
 *(.rodata.sceTNID .rodata.sceTNID.*)

.rodata.sceVStub
 *(.rodata.sceVStub)
 *(SORT(.rodata.sceVStub.*))
                0x000000000003e560                PROVIDE (__libentstart, .)

.lib.ent.top
 *(.lib.ent.top)

.lib.ent        0x000000000003e560        0x0
 *(.lib.ent)
 .lib.ent       0x000000000003e560        0x0 /opt/ps3dev/ppu/lib/gcc/powerpc64-ps3-elf/4.7.0/../../../../powerpc64-ps3-elf/lib/lv2-sprx.o

.lib.ent.btm
 *(.lib.ent.btm)
                0x000000000003e560                PROVIDE (__libentend, .)
                0x000000000003e560                PROVIDE (__libstubstart, .)

.lib.stub.top
 *(.lib.stub.top)

.lib.stub       0x000000000003e560      0x108
 *(.lib.stub)
 .lib.stub      0x000000000003e560        0x0 /opt/ps3dev/ppu/lib/gcc/powerpc64-ps3-elf/4.7.0/../../../../powerpc64-ps3-elf/lib/lv2-sprx.o
 .lib.stub      0x000000000003e560       0x2c /opt/ps3dev/psl1ght/ppu/lib/libsysmodule.a(sprx.o)
 .lib.stub      0x000000000003e58c       0x2c /opt/ps3dev/psl1ght/ppu/lib/libgcm_sys.a(sprx.o)
 .lib.stub      0x000000000003e5b8       0x2c /opt/ps3dev/psl1ght/ppu/lib/libsysutil.a(sprx.o)
 .lib.stub      0x000000000003e5e4       0x2c /opt/ps3dev/psl1ght/ppu/lib/libio.a(sprx.o)
 .lib.stub      0x000000000003e610       0x2c /opt/ps3dev/psl1ght/ppu/lib/libpngdec.a(sprx.o)
 .lib.stub      0x000000000003e63c       0x2c /opt/ps3dev/psl1ght/ppu/lib/liblv2.a(sprx.o)

.lib.stub.btm
 *(.lib.stub.btm)
                0x000000000003e668                PROVIDE (__libstubend, .)

.ppu_rodata
 *(.ppu_rodata .ppu_rodata.*)

.sys_proc_param
 *(.sys_proc_param)

.sys_proc_prx_param
                0x000000000003e668       0x28
 *(.sys_proc_prx_param)
 .sys_proc_prx_param
                0x000000000003e668       0x28 /opt/ps3dev/ppu/lib/gcc/powerpc64-ps3-elf/4.7.0/../../../../powerpc64-ps3-elf/lib/lv2-sprx.o
                0x0000000000040000                . = ALIGN (0x10000)

.ppu_data
 *(.ppu_data .ppu_data.*)

.sdata2
 *(.sdata2 .sdata2.* .gnu.linkonce.s2.*)

.sbss2
 *(.sbss2 .sbss2.* .gnu.linkonce.sb2.*)

.eh_frame
 *(.eh_frame)

.gcc_except_table
 *(.gcc_except_table .gcc_except_table.*)
                0x0000000000040000                . = ALIGN (0x8)

.preinit_array  0x0000000000040000        0x0
                0x0000000000040000                PROVIDE (__preinit_array_start, .)
 *(.preinit_array)
                0x0000000000040000                PROVIDE (__preinit_array_end, .)

.init_array     0x0000000000040000        0x0
                0x0000000000040000                PROVIDE (__init_array_start, .)
 *(SORT(.init_array.*))
 *(.init_array)
                0x0000000000040000                PROVIDE (__init_array_end, .)

.fini_array     0x0000000000040000        0x0
                0x0000000000040000                PROVIDE (__fini_array_start, .)
 *(.fini_array)
 *(SORT(.fini_array.*))
                0x0000000000040000                PROVIDE (__fini_array_end, .)

.ctors          0x0000000000040000       0x28
 *crtbegin.o(.ctors)
 .ctors         0x0000000000040000        0x8 /opt/ps3dev/ppu/lib/gcc/powerpc64-ps3-elf/4.7.0/crtbegin.o
 *crtbegin?.o(.ctors)
 *(EXCLUDE_FILE(*crtend?.o *crtend.o) .ctors)
 *(SORT(.ctors.*))
 .ctors.65430   0x0000000000040008        0x8 /opt/ps3dev/ppu/lib/gcc/powerpc64-ps3-elf/4.7.0/../../../../powerpc64-ps3-elf/lib/libc.a(lib_a-lock_internal.o)
 .ctors.65431   0x0000000000040010        0x8 /opt/ps3dev/ppu/lib/gcc/powerpc64-ps3-elf/4.7.0/../../../../powerpc64-ps3-elf/lib/lv2-crt0.o
 .ctors.65432   0x0000000000040018        0x8 /opt/ps3dev/psl1ght/ppu/lib/librt.a(sbrk.o)
 *(.ctors)
 .ctors         0x0000000000040020        0x8 /opt/ps3dev/ppu/lib/gcc/powerpc64-ps3-elf/4.7.0/crtend.o

.dtors          0x0000000000040028       0x10
 *crtbegin.o(.dtors)
 .dtors         0x0000000000040028        0x8 /opt/ps3dev/ppu/lib/gcc/powerpc64-ps3-elf/4.7.0/crtbegin.o
 *crtbegin?.o(.dtors)
 *(EXCLUDE_FILE(*crtend?.o *crtend.o) .dtors)
 *(SORT(.dtors.*))
 *(.dtors)
 .dtors         0x0000000000040030        0x8 /opt/ps3dev/ppu/lib/gcc/powerpc64-ps3-elf/4.7.0/crtend.o
                0x0000000000040030                __DTOR_END__

.jcr            0x0000000000040038        0x8
 *(.jcr)
 .jcr           0x0000000000040038        0x0 /opt/ps3dev/ppu/lib/gcc/powerpc64-ps3-elf/4.7.0/crtbegin.o
 .jcr           0x0000000000040038        0x8 /opt/ps3dev/ppu/lib/gcc/powerpc64-ps3-elf/4.7.0/crtend.o

.data.rel.ro
 *(.data.rel.ro.local*)
 *(.data.rel.ro*)

.dynamic
 *(.dynamic)

.data.sceFStub  0x0000000000040040      0x5d0
 *(.data.sceFStub)
 *(SORT(.data.sceFStub.*))
 .data.sceFStub.cellGcmSys
                0x0000000000040040      0x164 /opt/ps3dev/psl1ght/ppu/lib/libgcm_sys.a(sprx.o)
                0x0000000000040040                gcmInitBody_stub
                0x0000000000040044                gcmSetDisplayBuffer_stub
                0x0000000000040048                gcmGetControlRegister_stub
                0x000000000004004c                gcmAddressToOffset_stub
                0x0000000000040050                gcmGetConfiguration_stub
                0x0000000000040054                gcmGetCurrentField_stub
                0x0000000000040058                gcmSetFlipMode_stub
                0x000000000004005c                gcmGetFlipStatus_stub
                0x0000000000040060                gcmGetLastFlipTime_stub
                0x0000000000040064                gcmGetVBlankCount_stub
                0x0000000000040068                gcmSetWaitFlip_stub
                0x000000000004006c                gcmSetFlipStatus_stub
                0x0000000000040070                gcmResetFlipStatus_stub
                0x0000000000040074                gcmSetFlip_stub
                0x0000000000040078                gcmSetFlipImmediate_stub
                0x000000000004007c                gcmFunc15_stub
                0x0000000000040080                gcmFunc3_stub
                0x0000000000040084                gcmFunc1_stub
                0x0000000000040088                gcmFunc2_stub
                0x000000000004008c                gcmFunc4_stub
                0x0000000000040090                gcmFunc12_stub
                0x0000000000040094                gcmFunc13_stub
                0x0000000000040098                gcmGetReport_stub
                0x000000000004009c                gcmSetTile_stub
                0x00000000000400a0                gcmBindTile_stub
                0x00000000000400a4                gcmUnbindTile_stub
                0x00000000000400a8                gcmSetZcull_stub
                0x00000000000400ac                gcmBindZcull_stub
                0x00000000000400b0                gcmUnbindZcull_stub
                0x00000000000400b4                gcmGetTimeStamp_stub
                0x00000000000400b8                gcmSetVBlankFrequency_stub
                0x00000000000400bc                gcmSetSecondVFrequency_stub
                0x00000000000400c0                gcmSetDebugOutputLevel_stub
                0x00000000000400c4                gcmGetLabelAddress_stub
                0x00000000000400c8                gcmSetVBlankHandlerEx_stub
                0x00000000000400cc                gcmSetFlipHandlerEx_stub
                0x00000000000400d0                gcmSetSecondVHandlerEx_stub
                0x00000000000400d4                gcmSetGraphicsHandlerEx_stub
                0x00000000000400d8                gcmTerminate_stub
                0x00000000000400dc                gcmMapMainMemory_stub
                0x00000000000400e0                gcmMapEaIoAddress_stub
                0x00000000000400e4                gcmUnmapEaIoAddress_stub
                0x00000000000400e8                gcmUnmapIoAddress_stub
                0x00000000000400ec                gcmIoOffsetToAddress_stub
                0x00000000000400f0                gcmSetDefaultCommandBuffer_stub
                0x00000000000400f4                gcmSetTileInfo_stub
                0x00000000000400f8                gcmGetTiledPitchSize_stub
                0x00000000000400fc                gcmSetInvalidateTile_stub
                0x0000000000040100                gcmSetUserCommandEx_stub
                0x0000000000040104                gcmSetUserHandlerEx_stub
                0x0000000000040108                gcmSetQueueHandlerEx_stub
                0x000000000004010c                gcmSetPrepareFlip_stub
                0x0000000000040110                gcmGetOffsetTable_stub
                0x0000000000040114                gcmGetLastSecondVTime_stub
                0x0000000000040118                gcmSortRemapEaIoAddress_stub
                0x000000000004011c                gcmGetDisplayBufferByFlipIndex_stub
                0x0000000000040120                gcmGcmGetDefaultCommandWordSize_stub
                0x0000000000040124                gcmGcmGetDefaultSegmentWordSize_stub
                0x0000000000040128                gcmSetDefaultCommandBufferAndSegmentWordSize_stub
                0x000000000004012c                gcmGetDisplayInfo_stub
                0x0000000000040130                gcmDumpGraphicsError_stub
                0x0000000000040134                gcmFunc38_stub
                0x0000000000040138                gcmGetCurrentDisplayBufferId_stub
                0x000000000004013c                gcmGetDefaultCommandWordSize_stub
                0x0000000000040140                gcmGetDefaultSegmentWordSize_stub
                0x0000000000040144                gcmGetMaxIoMapSize_stub
                0x0000000000040148                gcmGetNotifyDataAddress_stub
                0x000000000004014c                gcmGetReportDataAddress_stub
                0x0000000000040150                gcmGetReportDataAddressLocation_stub
                0x0000000000040154                gcmGetReportDataLocation_stub
                0x0000000000040158                gcmGetTileInfo_stub
                0x000000000004015c                gcmGetTimeStampLocation_stub
                0x0000000000040160                gcmGetZcullInfo_stub
                0x0000000000040164                gcmInitCursor_stub
                0x0000000000040168                gcmInitDefaultFifoMode_stub
                0x000000000004016c                gcmInitSystemMode_stub
                0x0000000000040170                gcmMapEaIoAddressWithFlags_stub
                0x0000000000040174                gcmMapLocalMemory_stub
                0x0000000000040178                gcmReserveIoMapSize_stub
                0x000000000004017c                gcmSetCursorDisable_stub
                0x0000000000040180                gcmSetCursorEnable_stub
                0x0000000000040184                gcmSetCursorImageOffset_stub
                0x0000000000040188                gcmSetCursorPosition_stub
                0x000000000004018c                gcmSetDefaultFifoSize_stub
                0x0000000000040190                gcmSetFlipCommand_stub
                0x0000000000040194                gcmSetFlipCommandWithWaitLabel_stub
                0x0000000000040198                gcmSysGetLastVBlankTime_stub
                0x000000000004019c                gcmUnreserveIoMapSize_stub
                0x00000000000401a0                gcmUpdateCursor_stub
 .data.sceFStub.cellPngDec
                0x00000000000401a4       0x74 /opt/ps3dev/psl1ght/ppu/lib/libpngdec.a(sprx.o)
                0x00000000000401a4                pngDecCreate_stub
                0x00000000000401a8                pngDecDestroy_stub
                0x00000000000401ac                pngDecOpen_stub
                0x00000000000401b0                pngDecClose_stub
                0x00000000000401b4                pngDecReadHeader_stub
                0x00000000000401b8                pngDecDecodeData_stub
                0x00000000000401bc                pngDecSetParameter_stub
                0x00000000000401c0                pngDecExtCreate_stub
                0x00000000000401c4                pngDecExtOpen_stub
                0x00000000000401c8                pngDecExtReadHeader_stub
                0x00000000000401cc                pngDecExtDecodeData_stub
                0x00000000000401d0                pngDecExtSetParameter_stub
                0x00000000000401d4                pngDecGetbKGD_stub
                0x00000000000401d8                pngDecGetcHRM_stub
                0x00000000000401dc                pngDecGetgAMA_stub
                0x00000000000401e0                pngDecGethIST_stub
                0x00000000000401e4                pngDecGetiCCP_stub
                0x00000000000401e8                pngDecGetoFFs_stub
                0x00000000000401ec                pngDecGetpCAL_stub
                0x00000000000401f0                pngDecGetpHYs_stub
                0x00000000000401f4                pngDecGetsBIT_stub
                0x00000000000401f8                pngDecGetsCAL_stub
                0x00000000000401fc                pngDecGetsPLT_stub
                0x0000000000040200                pngDecGetsRGB_stub
                0x0000000000040204                pngDecGettIME_stub
                0x0000000000040208                pngDecGettRNS_stub
                0x000000000004020c                pngDecGetPLTE_stub
                0x0000000000040210                pngDecUnknownChunks_stub
                0x0000000000040214                pngDecGetTextChunk_stub
 .data.sceFStub.cellSysmodule
                0x0000000000040218       0x20 /opt/ps3dev/psl1ght/ppu/lib/libsysmodule.a(sprx.o)
                0x0000000000040218                sysModuleInitialize_stub
                0x000000000004021c                sysModuleFinalize_stub
                0x0000000000040220                sysModuleLoad_stub
                0x0000000000040224                sysModuleUnload_stub
                0x0000000000040228                sysModuleIsLoaded_stub
                0x000000000004022c                sysModuleGetImagesize_stub
                0x0000000000040230                sysModuleFetchImage_stub
                0x0000000000040234                sysModuleSetMemcontainer_stub
 .data.sceFStub.cellSysutil
                0x0000000000040238      0x140 /opt/ps3dev/psl1ght/ppu/lib/libsysutil.a(sprx.o)
                0x0000000000040238                videoGetResolution_stub
                0x000000000004023c                videoConfigure_stub
                0x0000000000040240                videoGetState_stub
                0x0000000000040244                videoGetDeviceInfo_stub
                0x0000000000040248                videoGetConfiguration_stub
                0x000000000004024c                videoGetResolutionAvailability_stub
                0x0000000000040250                videoDebugSetMonitorType_stub
                0x0000000000040254                videoRegisterCallbackEx_stub
                0x0000000000040258                videoUnregisterCallback_stub
                0x000000000004025c                videoGetNumberOfDevice_stub
                0x0000000000040260                videoGetConvertCursorColorInfo_stub
                0x0000000000040264                msgDialogClose_stub
                0x0000000000040268                msgDialogOpenErrorCodeEx_stub
                0x000000000004026c                msgDialogOpenEx_stub
                0x0000000000040270                msgDialogProgressBarInc_stub
                0x0000000000040274                msgDialogAbort_stub
                0x0000000000040278                msgDialogOpen2Ex_stub
                0x000000000004027c                msgDialogProgressBarReset_stub
                0x0000000000040280                msgDialogProgressBarSetMsg_stub
                0x0000000000040284                oskGetInputText_stub
                0x0000000000040288                oskSetInitialInputDevice_stub
                0x000000000004028c                oskGetSize_stub
                0x0000000000040290                oskUnloadAsync_stub
                0x0000000000040294                oskDisableDimmer_stub
                0x0000000000040298                oskSetKeyLayoutOption_stub
                0x000000000004029c                oskAbort_stub
                0x00000000000402a0                oskSetDeviceMask_stub
                0x00000000000402a4                oskSetSeparateWindowOption_stub
                0x00000000000402a8                oskAddSupportLanguage_stub
                0x00000000000402ac                oskLoadAsync_stub
                0x00000000000402b0                oskSetInitialKeyLayout_stub
                0x00000000000402b4                oskSetLayoutMode_stub
                0x00000000000402b8                sysUtilRegisterCallbackEx_stub
                0x00000000000402bc                sysUtilCheckCallback_stub
                0x00000000000402c0                sysUtilUnregisterCallback_stub
                0x00000000000402c4                sysSaveListLoad2Ex_stub
                0x00000000000402c8                sysSaveListSave2Ex_stub
                0x00000000000402cc                sysSaveListAutoLoadEx_stub
                0x00000000000402d0                sysSaveListAutoSaveEx_stub
                0x00000000000402d4                sysSaveFixedLoad2Ex_stub
                0x00000000000402d8                sysSaveFixedSave2Ex_stub
                0x00000000000402dc                sysSaveAutoLoad2Ex_stub
                0x00000000000402e0                sysSaveAutoSave2Ex_stub
                0x00000000000402e4                sysSaveDelete2_stub
                0x00000000000402e8                sysGameDataCheck_stub
                0x00000000000402ec                sysGameBootCheck_stub
                0x00000000000402f0                sysGamePatchCheck_stub
                0x00000000000402f4                sysGameCreateGameData_stub
                0x00000000000402f8                sysGameGetParamInt_stub
                0x00000000000402fc                sysGameGetParamString_stub
                0x0000000000040300                sysGameGetSizeKB_stub
                0x0000000000040304                sysGameSetParamString_stub
                0x0000000000040308                sysGameGetDiscContentInfoUpdatePath_stub
                0x000000000004030c                sysGameContentPermit_stub
                0x0000000000040310                sysGameContentErrorDialog_stub
                0x0000000000040314                sysGameThemeInstall_stub
                0x0000000000040318                sysGameThemeInstallFromBufferEx_stub
                0x000000000004031c                sysGameGetLocalWebContentPath_stub
                0x0000000000040320                sysGameDeleteGameData_stub
                0x0000000000040324                sysGameRegisterDiscChangeCallbackEx_stub
                0x0000000000040328                sysGameUnregisterDiscChangeCallback_stub
                0x000000000004032c                sysDiscRegisterDiscChangeCallbackEx_stub
                0x0000000000040330                sysDiscUnregisterDiscChangeCallback_stub
                0x0000000000040334                sysTrophyInit_stub
                0x0000000000040338                sysTrophyAbortHandle_stub
                0x000000000004033c                sysTrophyCreateContext_stub
                0x0000000000040340                sysTrophyCreateHandle_stub
                0x0000000000040344                sysTrophyDestroyContext_stub
                0x0000000000040348                sysTrophyDestroyHandle_stub
                0x000000000004034c                sysTrophyGetGameIcon_stub
                0x0000000000040350                sysTrophyGetGameInfo_stub
                0x0000000000040354                sysTrophyGetGameProgress_stub
                0x0000000000040358                sysTrophyGetRequiredDiskSpace_stub
                0x000000000004035c                sysTrophyGetTrophyIcon_stub
                0x0000000000040360                sysTrophyGetTrophyInfo_stub
                0x0000000000040364                sysTrophyGetTrophyUnlockState_stub
                0x0000000000040368                sysTrophyRegisterContextEx_stub
                0x000000000004036c                sysTrophySetSoundLevel_stub
                0x0000000000040370                sysTrophyTerm_stub
                0x0000000000040374                sysTrophyUnlockTrophy_stub
 .data.sceFStub.sysPrxForUser
                0x0000000000040378      0x1dc /opt/ps3dev/psl1ght/ppu/lib/liblv2.a(sprx.o)
                0x0000000000040378                sysGetSystemTime_stub
                0x000000000004037c                sysGetSystemSwVersion_stub
                0x0000000000040380                sysGetTemperature_stub
                0x0000000000040384                sysGetRandomNumber_stub
                0x0000000000040388                sysGetRtcStatus_stub
                0x000000000004038c                sysBoardStorageRead_stub
                0x0000000000040390                sysBoardStorageWrite_stub
                0x0000000000040394                sysProcessIsStack_stub
                0x0000000000040398                sysProcessExit_stub
                0x000000000004039c                sysProcessExitspawn_stub
                0x00000000000403a0                sysProcessExitSpawn2Ex_stub
                0x00000000000403a4                sysProcessExitSpawnWithLevel_stub
                0x00000000000403a8                sysProcessAtExitSpawn_stub
                0x00000000000403ac                sysProcess_At_ExitSpawn_stub
                0x00000000000403b0                sysPrxRegisterLibrary_stub
                0x00000000000403b4                sysPrxUnregisterLibrary_stub
                0x00000000000403b8                sysPrxStartModule_stub
                0x00000000000403bc                sysPrxStopModule_stub
                0x00000000000403c0                sysPrxLoadModule_stub
                0x00000000000403c4                sysPrxLoadModuleByFd_stub
                0x00000000000403c8                sysPrxLoadModuleList_stub
                0x00000000000403cc                sysPrxLoadModuleListOnMemcontainer_stub
                0x00000000000403d0                sysPrxLoadModuleOnMemcontainer_stub
                0x00000000000403d4                sysPrxLoadModuleOnMemcontainerByFd_stub
                0x00000000000403d8                sysPrxGetModuleInfo_stub
                0x00000000000403dc                sysPrxGetModuleList_stub
                0x00000000000403e0                sysPrxGetModuleId_stub
                0x00000000000403e4                sysPrxGetModuleIdByAddress_stub
                0x00000000000403e8                sysPrxGetModuleIdByName_stub
                0x00000000000403ec                sysPrxUnloadModule_stub
                0x00000000000403f0                sysPrxExitSpawnWithLevel_stub
                0x00000000000403f4                sysThreadCreateEx_stub
                0x00000000000403f8                sysThreadExit_stub
                0x00000000000403fc                sysThreadGetId_stub
                0x0000000000040400                sysThreadOnce_stub
                0x0000000000040404                sysThreadInitialzeTLS_stub
                0x0000000000040408                sysThreadRegisterAtexit_stub
                0x000000000004040c                sysThreadUnregisterAtexit_stub
                0x0000000000040410                sysInterruptThreadDisestablish_stub
                0x0000000000040414                sysLwMutexCreate_stub
                0x0000000000040418                sysLwMutexDestroy_stub
                0x000000000004041c                sysLwMutexLock_stub
                0x0000000000040420                sysLwMutexTryLock_stub
                0x0000000000040424                sysLwMutexUnlock_stub
                0x0000000000040428                sysLwCondCreate_stub
                0x000000000004042c                sysLwCondWait_stub
                0x0000000000040430                sysLwCondSignal_stub
                0x0000000000040434                sysLwCondSignalTo_stub
                0x0000000000040438                sysLwCondSignalAll_stub
                0x000000000004043c                sysLwCondDestroy_stub
                0x0000000000040440                sysSpinlockInitialize_stub
                0x0000000000040444                sysSpinlockLock_stub
                0x0000000000040448                sysSpinlockTryLock_stub
                0x000000000004044c                sysSpinlockUnlock_stub
                0x0000000000040450                sysWatchdogClear_stub
                0x0000000000040454                sysWatchdogStart_stub
                0x0000000000040458                sysWatchdogStop_stub
                0x000000000004045c                sysMalloc_stub
                0x0000000000040460                sysMemalign_stub
                0x0000000000040464                sysMemchr_stub
                0x0000000000040468                sysMemcmp_stub
                0x000000000004046c                sysMemcpy_stub
                0x0000000000040470                sysMemmove_stub
                0x0000000000040474                sysMemset_stub
                0x0000000000040478                sysFree_stub
                0x000000000004047c                sysHeapAllocHeapMemory_stub
                0x0000000000040480                sysHeapCreateHeap_stub
                0x0000000000040484                sysHeapDeleteHeap_stub
                0x0000000000040488                sysHeapFree_stub
                0x000000000004048c                sysHeapGetMallInfo_stub
                0x0000000000040490                sysHeapGetTotalFreeSize_stub
                0x0000000000040494                sysHeapMalloc_stub
                0x0000000000040498                sysHeapMemalign_stub
                0x000000000004049c                sysHeapStats_stub
                0x00000000000404a0                sysQsort_stub
                0x00000000000404a4                sysMempoolCreate_stub
                0x00000000000404a8                sysMempoolDestroy_stub
                0x00000000000404ac                sysMempoolGetCount_stub
                0x00000000000404b0                sysMempoolAllocateBlock_stub
                0x00000000000404b4                sysMempoolTryAllocateBlock_stub
                0x00000000000404b8                sysMempoolFreeBlock_stub
                0x00000000000404bc                sysMMapperFreeMemory_stub
                0x00000000000404c0                sysMMapperMapMemory_stub
                0x00000000000404c4                sysMMapperUnmapMemory_stub
                0x00000000000404c8                sysMMapperAllocateMemory_stub
                0x00000000000404cc                sysMMapperAllocateMemoryFromContainer_stub
                0x00000000000404d0                sysStrlen_stub
                0x00000000000404d4                sysStrcpy_stub
                0x00000000000404d8                sysStrncpy_stub
                0x00000000000404dc                sysStrcat_stub
                0x00000000000404e0                sysStrncat_stub
                0x00000000000404e4                sysStrchr_stub
                0x00000000000404e8                sysStrrchr_stub
                0x00000000000404ec                sysStrcmp_stub
                0x00000000000404f0                sysStrncmp_stub
                0x00000000000404f4                sysStrncasecmp_stub
                0x00000000000404f8                sysToLower_stub
                0x00000000000404fc                sysToUpper_stub
                0x0000000000040500                sysSpuElfGetSegments_stub
                0x0000000000040504                sysSpuElfGetInformation_stub
                0x0000000000040508                sysSpuRawLoad_stub
                0x000000000004050c                sysSpuRawImageLoad_stub
                0x0000000000040510                sysSpuImageClose_stub
                0x0000000000040514                sysSpuImageImport_stub
                0x0000000000040518                sysSpuPrintfAttachGroup_stub
                0x000000000004051c                sysSpuPrintfAttachThread_stub
                0x0000000000040520                sysSpuPrintfDetachGroup_stub
                0x0000000000040524                sysSpuPrintfDetach_Tread_stub
                0x0000000000040528                sysSpuPrintfFinalize_stub
                0x000000000004052c                sysSpuPrintfInitialize_stub
                0x0000000000040530                sysConsoleGetc_stub
                0x0000000000040534                sysConsolePutc_stub
                0x0000000000040538                sysConsoleWrite_stub
                0x000000000004053c                sysPrintf_stub
                0x0000000000040540                sysSprintf_stub
                0x0000000000040544                sysSnprintf_stub
                0x0000000000040548                sysVprintf_stub
                0x000000000004054c                sysVsprintf_stub
                0x0000000000040550                sysVsnprintf_stub
 .data.sceFStub.sys_io
                0x0000000000040554       0xbc /opt/ps3dev/psl1ght/ppu/lib/libio.a(sprx.o)
                0x0000000000040554                sys_config_start_stub
                0x0000000000040558                sys_config_stop_stub
                0x000000000004055c                sys_config_add_service_listener_stub
                0x0000000000040560                sys_config_remove_service_listener_stub
                0x0000000000040564                sys_config_register_service_stub
                0x0000000000040568                sys_config_unregister_service_stub
                0x000000000004056c                ioPadInit_stub
                0x0000000000040570                ioPadEnd_stub
                0x0000000000040574                ioPadClearBuf_stub
                0x0000000000040578                ioPadInfoPressMode_stub
                0x000000000004057c                ioPadLddRegisterController_stub
                0x0000000000040580                ioPadGetInfo_stub
                0x0000000000040584                ioPadGetRawData_stub
                0x0000000000040588                ioPadGetDataExtra_stub
                0x000000000004058c                ioPadInfoSensorMode_stub
                0x0000000000040590                ioPadGetData_stub
                0x0000000000040594                ioPadLddGetPortNo_stub
                0x0000000000040598                ioPadLddDataInsert_stub
                0x000000000004059c                ioPadSetSensorMode_stub
                0x00000000000405a0                ioPadGetCapabilityInfo_stub
                0x00000000000405a4                ioPadLddUnregisterController_stub
                0x00000000000405a8                ioPadSetActDirect_stub
                0x00000000000405ac                ioPadSetPressMode_stub
                0x00000000000405b0                ioPadPeriphGetInfo_stub
                0x00000000000405b4                ioPadSetPortSetting_stub
                0x00000000000405b8                ioPadPeriphGetData_stub
                0x00000000000405bc                ioPadGetInfo2_stub
                0x00000000000405c0                ioMouseInit_stub
                0x00000000000405c4                ioMouseEnd_stub
                0x00000000000405c8                ioMouseClearBuf_stub
                0x00000000000405cc                ioMouseGetInfo_stub
                0x00000000000405d0                ioMouseGetTabletDataList_stub
                0x00000000000405d4                ioMouseSetTabletMode_stub
                0x00000000000405d8                ioMouseGetData_stub
                0x00000000000405dc                ioMouseInfoTabletMode_stub
                0x00000000000405e0                ioMouseGetRawData_stub
                0x00000000000405e4                ioMouseGetDataList_stub
                0x00000000000405e8                ioKbInit_stub
                0x00000000000405ec                ioKbEnd_stub
                0x00000000000405f0                ioKbRead_stub
                0x00000000000405f4                ioKbSetReadMode_stub
                0x00000000000405f8                ioKbSetCodeType_stub
                0x00000000000405fc                ioKbCnvRawCode_stub
                0x0000000000040600                ioKbSetLEDStatus_stub
                0x0000000000040604                ioKbGetInfo_stub
                0x0000000000040608                ioKbGetConfiguration_stub
                0x000000000004060c                ioKbClearBuf_stub

.toc1
 *(.toc1)

.opd            0x0000000000040610     0x4ff8
 *(.opd)
 .opd           0x0000000000040610       0x30 /opt/ps3dev/ppu/lib/gcc/powerpc64-ps3-elf/4.7.0/../../../../powerpc64-ps3-elf/lib/lv2-crti.o
                0x0000000000040610                _init
                0x0000000000040628                _fini
 .opd           0x0000000000040640       0x60 /opt/ps3dev/ppu/lib/gcc/powerpc64-ps3-elf/4.7.0/crtbegin.o
 .opd           0x00000000000406a0       0x48 /opt/ps3dev/ppu/lib/gcc/powerpc64-ps3-elf/4.7.0/../../../../powerpc64-ps3-elf/lib/lv2-crt0.o
                0x00000000000406d0                _initialize
 .opd           0x00000000000406e8       0xc0 main.o
                0x00000000000406e8                exiting
                0x0000000000040700                DrawBackground2D
                0x0000000000040718                DrawSprites2D
                0x0000000000040730                DrawSpritesRot2D
                0x0000000000040748                drawScene
                0x0000000000040760                Load_PNG
                0x0000000000040778                LoadTexture
                0x0000000000040790                main
 .opd           0x00000000000407a8      0x150 /opt/ps3dev/psl1ght/ppu/lib/libtiny3d.a(matrix.o)
                0x00000000000407a8                MatrixProjPerspective
                0x00000000000407c0                MatrixVectorMultiply
                0x00000000000407d8                MatrixVectorMultiply3x3
                0x00000000000407f0                MatrixMultiply
                0x0000000000040808                MatrixIdentity
                0x0000000000040820                MatrixTranslation
                0x0000000000040838                MatrixTranspose
                0x0000000000040850                MatrixScale
                0x0000000000040868                MatrixRotationX
                0x0000000000040880                MatrixRotationY
                0x0000000000040898                MatrixRotationZ
                0x00000000000408b0                MatrixRotationAxis
                0x00000000000408c8                VectorToUnit
                0x00000000000408e0                VectorNormalPlane
 .opd           0x00000000000408f8      0x840 /opt/ps3dev/psl1ght/ppu/lib/libtiny3d.a(tiny3d.o)
                0x0000000000040970                internal_reality_SetClearColor
                0x0000000000040988                internal_reality_SetClearDepthValue
                0x00000000000409a0                internal_reality_Nop
                0x00000000000409b8                internal_reality_ClearBuffers
                0x00000000000409d0                internal_reality_SetRenderSurface
                0x00000000000409e8                internal_reality_SelectRenderTarget
                0x0000000000040a00                internal_reality_Viewport
                0x0000000000040a18                internal_reality_ViewportClip
                0x0000000000040a30                internal_reality_VertexBegin
                0x0000000000040a48                internal_reality_VertexEnd
                0x0000000000040a60                internal_reality_Vertex4f
                0x0000000000040a78                internal_reality_TexCoord2f
                0x0000000000040a90                internal_reality_LoadVertexProgram_old
                0x0000000000040aa8                internal_reality_SetVertexProgramConstant4f
                0x0000000000040ac0                internal_reality_LoadVertexProgram
                0x0000000000040ad8                internal_reality_SetVertexProgramConstant4fBlock
                0x0000000000040b08                internal_reality_InstallFragmentProgram
                0x0000000000040b20                internal_reality_LoadFragmentProgram
                0x0000000000040b38                internal_reality_SetTexture
                0x0000000000040b50                internal_reality_ViewportTranslate
                0x0000000000040b68                internal_reality_ViewportScale
                0x0000000000040b80                internal_reality_CullFace
                0x0000000000040b98                internal_reality_FrontFace
                0x0000000000040bb0                internal_reality_CullEnable
                0x0000000000040bc8                internal_reality_AlphaEnable
                0x0000000000040be0                internal_reality_AlphaRef
                0x0000000000040bf8                internal_reality_AlphaFunc
                0x0000000000040c10                internal_reality_BlendEnable
                0x0000000000040c28                internal_reality_BlendEquation
                0x0000000000040c40                internal_reality_BlendFunc
                0x0000000000040c58                internal_reality_ZControl
                0x0000000000040c70                internal_reality_BindVertexBufferAttribute
                0x0000000000040c88                internal_reality_DrawVertexBuffer
                0x0000000000040ca0                internal_reality_DrawVertexBufferIndex
                0x0000000000040cb8                internal_reality_DepthTestEnable
                0x0000000000040cd0                internal_reality_DepthTestFunc
                0x0000000000040ce8                internal_reality_DepthWriteEnable
                0x0000000000040d00                tiny3d_RecordList
                0x0000000000040d18                tiny3d_StopList
                0x0000000000040d30                tiny3d_FreeList
                0x0000000000040d48                tiny3d_DynamicMatrixList
                0x0000000000040d60                tiny3d_ApplyMatrixList
                0x0000000000040d78                tiny3d_Init
                0x0000000000040d90                tiny3d_SetPolygon
                0x0000000000040da8                tiny3d_VertexPos
                0x0000000000040dc0                tiny3d_VertexPos4
                0x0000000000040dd8                tiny3d_VertexPosVector
                0x0000000000040df0                tiny3d_VertexColor
                0x0000000000040e08                tiny3d_VertexFcolor
                0x0000000000040e20                tiny3d_VertexTexture
                0x0000000000040e38                tiny3d_VertexTexture2
                0x0000000000040e50                tiny3d_Normal
                0x0000000000040e68                tiny3d_NormalVector
                0x0000000000040e80                tiny3d_End
                0x0000000000040e98                tiny3d_SetMatrixModelView
                0x0000000000040eb0                tiny3d_SetProjectionMatrix
                0x0000000000040ec8                tiny3d_Flip
                0x0000000000040ee0                tiny3d_UserViewport
                0x0000000000040ef8                tiny3d_Project2D
                0x0000000000040f10                tiny3d_Project3D
                0x0000000000040f28                tiny3d_Clear
                0x0000000000040f40                tiny3d_ClearSurface
                0x0000000000040f58                tiny3d_AlphaTest
                0x0000000000040f70                tiny3d_BlendFunc
                0x0000000000040f88                tiny3d_SetTextureWrap
                0x0000000000040fa0                tiny3d_SetTexture
                0x0000000000040fb8                tiny3d_AllocTexture
                0x0000000000040fd0                tiny3d_TextureOffset
                0x0000000000040fe8                tiny3d_EmissiveMaterial
                0x0000000000041000                tiny3d_AmbientMaterial
                0x0000000000041018                tiny3d_DiffuseMaterial
                0x0000000000041030                tiny3d_SpecularMaterial
                0x0000000000041048                tiny3d_SetLightCameraPosition
                0x0000000000041060                tiny3d_SetLight
                0x0000000000041078                tiny3d_SetLightsOff
                0x0000000000041090                tiny3d_SetAmbientLight
                0x00000000000410a8                tiny3d_SelMultiTexturesMethod
                0x00000000000410c0                tiny3d_DrawList
                0x00000000000410d8                tiny3d_MenuActive
                0x00000000000410f0                tiny3d_Enable_YUV
                0x0000000000041108                tiny3d_Disable_YUV
                0x0000000000041120                tiny3d_Dirty_Status
 .opd           0x0000000000041138       0xa8 /opt/ps3dev/psl1ght/ppu/lib/libtiny3d.a(realityVP.o)
                0x0000000000041138                internal_reality_VertexProgramGetUCode
                0x0000000000041150                internal_reality_VertexProgramGetInputMask
                0x0000000000041168                internal_reality_VertexProgramGetOutputMask
                0x0000000000041180                internal_reality_VertexProgramGetAttributes
                0x0000000000041198                internal_reality_VertexProgramGetInputAttribute
                0x00000000000411b0                internal_reality_VertexProgramGetConstants
                0x00000000000411c8                internal_reality_VertexProgramGetConstant
 .opd           0x00000000000411e0       0x78 /opt/ps3dev/psl1ght/ppu/lib/libtiny3d.a(rsxutil.o)
                0x00000000000411e0                waitFlip
                0x00000000000411f8                flip
                0x0000000000041210                init_screen
                0x0000000000041228                setupRenderTarget
                0x0000000000041240                setupRenderTarget2
 .opd           0x0000000000041258       0xc0 /opt/ps3dev/psl1ght/ppu/lib/libsysmodule.a(sprx.o)
                0x0000000000041258                sysModuleInitialize
                0x0000000000041270                sysModuleFinalize
                0x0000000000041288                sysModuleLoad
                0x00000000000412a0                sysModuleUnload
                0x00000000000412b8                sysModuleIsLoaded
                0x00000000000412d0                sysModuleGetImagesize
                0x00000000000412e8                sysModuleFetchImage
                0x0000000000041300                sysModuleSetMemcontainer
 .opd           0x0000000000041318      0x858 /opt/ps3dev/psl1ght/ppu/lib/libgcm_sys.a(sprx.o)
                0x0000000000041318                gcmInitBody
                0x0000000000041330                gcmSetDisplayBuffer
                0x0000000000041348                gcmGetControlRegister
                0x0000000000041360                gcmAddressToOffset
                0x0000000000041378                gcmGetConfiguration
                0x0000000000041390                gcmGetCurrentField
                0x00000000000413a8                gcmSetFlipMode
                0x00000000000413c0                gcmGetFlipStatus
                0x00000000000413d8                gcmGetLastFlipTime
                0x00000000000413f0                gcmGetVBlankCount
                0x0000000000041408                gcmSetWaitFlip
                0x0000000000041420                gcmSetFlipStatus
                0x0000000000041438                gcmResetFlipStatus
                0x0000000000041450                gcmSetFlip
                0x0000000000041468                gcmSetFlipImmediate
                0x0000000000041480                gcmFunc15
                0x0000000000041498                gcmFunc3
                0x00000000000414b0                gcmFunc1
                0x00000000000414c8                gcmFunc2
                0x00000000000414e0                gcmFunc4
                0x00000000000414f8                gcmFunc12
                0x0000000000041510                gcmFunc13
                0x0000000000041528                gcmGetReport
                0x0000000000041540                gcmSetTile
                0x0000000000041558                gcmBindTile
                0x0000000000041570                gcmUnbindTile
                0x0000000000041588                gcmSetZcull
                0x00000000000415a0                gcmBindZcull
                0x00000000000415b8                gcmUnbindZcull
                0x00000000000415d0                gcmGetTimeStamp
                0x00000000000415e8                gcmSetVBlankFrequency
                0x0000000000041600                gcmSetSecondVFrequency
                0x0000000000041618                gcmSetDebugOutputLevel
                0x0000000000041630                gcmGetLabelAddress
                0x0000000000041648                gcmSetVBlankHandlerEx
                0x0000000000041660                gcmSetFlipHandlerEx
                0x0000000000041678                gcmSetSecondVHandlerEx
                0x0000000000041690                gcmSetGraphicsHandlerEx
                0x00000000000416a8                gcmTerminate
                0x00000000000416c0                gcmMapMainMemory
                0x00000000000416d8                gcmMapEaIoAddress
                0x00000000000416f0                gcmUnmapEaIoAddress
                0x0000000000041708                gcmUnmapIoAddress
                0x0000000000041720                gcmIoOffsetToAddress
                0x0000000000041738                gcmSetDefaultCommandBuffer
                0x0000000000041750                gcmSetTileInfo
                0x0000000000041768                gcmGetTiledPitchSize
                0x0000000000041780                gcmSetInvalidateTile
                0x0000000000041798                gcmSetUserCommandEx
                0x00000000000417b0                gcmSetUserHandlerEx
                0x00000000000417c8                gcmSetQueueHandlerEx
                0x00000000000417e0                gcmSetPrepareFlip
                0x00000000000417f8                gcmGetOffsetTable
                0x0000000000041810                gcmGetLastSecondVTime
                0x0000000000041828                gcmSortRemapEaIoAddress
                0x0000000000041840                gcmGetDisplayBufferByFlipIndex
                0x0000000000041858                gcmGcmGetDefaultCommandWordSize
                0x0000000000041870                gcmGcmGetDefaultSegmentWordSize
                0x0000000000041888                gcmSetDefaultCommandBufferAndSegmentWordSize
                0x00000000000418a0                gcmGetDisplayInfo
                0x00000000000418b8                gcmDumpGraphicsError
                0x00000000000418d0                gcmFunc38
                0x00000000000418e8                gcmGetCurrentDisplayBufferId
                0x0000000000041900                gcmGetDefaultCommandWordSize
                0x0000000000041918                gcmGetDefaultSegmentWordSize
                0x0000000000041930                gcmGetMaxIoMapSize
                0x0000000000041948                gcmGetNotifyDataAddress
                0x0000000000041960                gcmGetReportDataAddress
                0x0000000000041978                gcmGetReportDataAddressLocation
                0x0000000000041990                gcmGetReportDataLocation
                0x00000000000419a8                gcmGetTileInfo
                0x00000000000419c0                gcmGetTimeStampLocation
                0x00000000000419d8                gcmGetZcullInfo
                0x00000000000419f0                gcmInitCursor
                0x0000000000041a08                gcmInitDefaultFifoMode
                0x0000000000041a20                gcmInitSystemMode
                0x0000000000041a38                gcmMapEaIoAddressWithFlags
                0x0000000000041a50                gcmMapLocalMemory
                0x0000000000041a68                gcmReserveIoMapSize
                0x0000000000041a80                gcmSetCursorDisable
                0x0000000000041a98                gcmSetCursorEnable
                0x0000000000041ab0                gcmSetCursorImageOffset
                0x0000000000041ac8                gcmSetCursorPosition
                0x0000000000041ae0                gcmSetDefaultFifoSize
                0x0000000000041af8                gcmSetFlipCommand
                0x0000000000041b10                gcmSetFlipCommandWithWaitLabel
                0x0000000000041b28                gcmSysGetLastVBlankTime
                0x0000000000041b40                gcmUnreserveIoMapSize
                0x0000000000041b58                gcmUpdateCursor
 .opd           0x0000000000041b70       0x30 /opt/ps3dev/psl1ght/ppu/lib/librsx.a(init.o)
                0x0000000000041b70                rsxInit
                0x0000000000041b88                rsxSetupContextData
 .opd           0x0000000000041ba0       0x48 /opt/ps3dev/psl1ght/ppu/lib/librsx.a(buffer.o)
                0x0000000000041ba0                rsxResetCommandBuffer
                0x0000000000041bb8                rsxFlushBuffer
                0x0000000000041bd0                rsxFinish
 .opd           0x0000000000041be8      0x5a0 /opt/ps3dev/psl1ght/ppu/lib/librsx.a(commands.o)
                0x0000000000041be8                rsxContextCallback
                0x0000000000041c00                rsxSetReturnCommand
                0x0000000000041c18                rsxSetCallCommand
                0x0000000000041c30                rsxSetJumpCommand
                0x0000000000041c48                rsxSetNopCommand
                0x0000000000041c60                rsxSetClearColor
                0x0000000000041c78                rsxSetClearDepthValue
                0x0000000000041c90                rsxSetReferenceCommand
                0x0000000000041ca8                rsxSetWriteBackendLabel
                0x0000000000041cc0                rsxSetWaitLabel
                0x0000000000041cd8                rsxSetWriteCommandLabel
                0x0000000000041cf0                rsxSetSurface
                0x0000000000041d08                rsxSetColorMask
                0x0000000000041d20                rsxSetColorMaskMRT
                0x0000000000041d38                rsxSetShadeModel
                0x0000000000041d50                rsxSetViewport
                0x0000000000041d68                rsxSetViewportClip
                0x0000000000041d80                rsxSetUserClipPlaneControl
                0x0000000000041d98                rsxSetDepthTestEnable
                0x0000000000041db0                rsxSetDepthFunc
                0x0000000000041dc8                rsxSetDepthWriteEnable
                0x0000000000041de0                rsxSetCullFaceEnable
                0x0000000000041df8                rsxSetCullFace
                0x0000000000041e10                rsxSetFrontFace
                0x0000000000041e28                rsxClearSurface
                0x0000000000041e40                rsxLoadVertexProgramBlock
                0x0000000000041e58                rsxLoadFragmentProgramLocation
                0x0000000000041e70                rsxLoadVertexProgramParameterBlock
                0x0000000000041e88                rsxLoadVertexProgram
                0x0000000000041ea0                rsxSetVertexProgramParameter
                0x0000000000041eb8                rsxDrawVertexBegin
                0x0000000000041ed0                rsxDrawVertexEnd
                0x0000000000041ee8                rsxDrawVertex2f
                0x0000000000041f00                rsxDrawVertex3f
                0x0000000000041f18                rsxDrawVertex4f
                0x0000000000041f30                rsxInvalidateTextureCache
                0x0000000000041f48                rsxLoadTexture
                0x0000000000041f60                rsxTextureControl
                0x0000000000041f78                rsxTextureFilter
                0x0000000000041f90                rsxTextureWrapMode
                0x0000000000041fa8                rsxZControl
                0x0000000000041fc0                rsxBindVertexArrayAttrib
                0x0000000000041fd8                rsxDrawVertexArray
                0x0000000000041ff0                rsxDrawIndexArray
                0x0000000000042008                rsxSetScissor
                0x0000000000042020                rsxInlineTransfer
                0x0000000000042038                rsxSetFragmentProgramParameter
                0x0000000000042050                rsxSetBlendFunc
                0x0000000000042068                rsxSetBlendEquation
                0x0000000000042080                rsxSetBlendColor
                0x0000000000042098                rsxSetBlendEnable
                0x00000000000420b0                rsxSetTransformBranchBits
                0x00000000000420c8                rsxSetTransferData
                0x00000000000420e0                rsxSetTransferDataMode
                0x00000000000420f8                rsxSetTransferDataOffset
                0x0000000000042110                rsxSetTransferDataFormat
                0x0000000000042128                rsxSetTransferImage
                0x0000000000042140                rsxSetTransferScaleMode
                0x0000000000042158                rsxSetTransferScaleSurface
                0x0000000000042170                rsxSetTimeStamp
 .opd           0x0000000000042188       0x60 /opt/ps3dev/psl1ght/ppu/lib/librsx.a(mm.o)
                0x0000000000042188                rsxHeapInit
                0x00000000000421a0                rsxMemalign
                0x00000000000421b8                rsxMalloc
                0x00000000000421d0                rsxFree
 .opd           0x00000000000421e8       0x78 /opt/ps3dev/psl1ght/ppu/lib/librsx.a(vertex_program.o)
                0x00000000000421e8                rsxVertexProgramGetUCode
                0x0000000000042200                rsxVertexProgramGetConsts
                0x0000000000042218                rsxVertexProgramGetConst
                0x0000000000042230                rsxVertexProgramGetAttribs
                0x0000000000042248                rsxVertexProgramGetAttrib
 .opd           0x0000000000042260       0x90 /opt/ps3dev/psl1ght/ppu/lib/librsx.a(fragment_program.o)
                0x0000000000042260                rsxFragmentProgramGetUCode
                0x0000000000042278                rsxFragmentProgramGetConsts
                0x0000000000042290                rsxFragmentProgramGetConst
                0x00000000000422a8                rsxFragmentProgramGetAttribs
                0x00000000000422c0                rsxFragmentProgramGetAttrib
                0x00000000000422d8                rsxFragmentProgramGetConstOffsetTable
 .opd           0x00000000000422f0      0x780 /opt/ps3dev/psl1ght/ppu/lib/libsysutil.a(sprx.o)
                0x00000000000422f0                videoGetResolution
                0x0000000000042308                videoConfigure
                0x0000000000042320                videoGetState
                0x0000000000042338                videoGetDeviceInfo
                0x0000000000042350                videoGetConfiguration
                0x0000000000042368                videoGetResolutionAvailability
                0x0000000000042380                videoDebugSetMonitorType
                0x0000000000042398                videoRegisterCallbackEx
                0x00000000000423b0                videoUnregisterCallback
                0x00000000000423c8                videoGetNumberOfDevice
                0x00000000000423e0                videoGetConvertCursorColorInfo
                0x00000000000423f8                msgDialogClose
                0x0000000000042410                msgDialogOpenErrorCodeEx
                0x0000000000042428                msgDialogOpenEx
                0x0000000000042440                msgDialogProgressBarInc
                0x0000000000042458                msgDialogAbort
                0x0000000000042470                msgDialogOpen2Ex
                0x0000000000042488                msgDialogProgressBarReset
                0x00000000000424a0                msgDialogProgressBarSetMsg
                0x00000000000424b8                oskGetInputText
                0x00000000000424d0                oskSetInitialInputDevice
                0x00000000000424e8                oskGetSize
                0x0000000000042500                oskUnloadAsync
                0x0000000000042518                oskDisableDimmer
                0x0000000000042530                oskSetKeyLayoutOption
                0x0000000000042548                oskAbort
                0x0000000000042560                oskSetDeviceMask
                0x0000000000042578                oskSetSeparateWindowOption
                0x0000000000042590                oskAddSupportLanguage
                0x00000000000425a8                oskLoadAsync
                0x00000000000425c0                oskSetInitialKeyLayout
                0x00000000000425d8                oskSetLayoutMode
                0x00000000000425f0                sysUtilRegisterCallbackEx
                0x0000000000042608                sysUtilCheckCallback
                0x0000000000042620                sysUtilUnregisterCallback
                0x0000000000042638                sysSaveListLoad2Ex
                0x0000000000042650                sysSaveListSave2Ex
                0x0000000000042668                sysSaveListAutoLoadEx
                0x0000000000042680                sysSaveListAutoSaveEx
                0x0000000000042698                sysSaveFixedLoad2Ex
                0x00000000000426b0                sysSaveFixedSave2Ex
                0x00000000000426c8                sysSaveAutoLoad2Ex
                0x00000000000426e0                sysSaveAutoSave2Ex
                0x00000000000426f8                sysSaveDelete2
                0x0000000000042710                sysGameDataCheck
                0x0000000000042728                sysGameBootCheck
                0x0000000000042740                sysGamePatchCheck
                0x0000000000042758                sysGameCreateGameData
                0x0000000000042770                sysGameGetParamInt
                0x0000000000042788                sysGameGetParamString
                0x00000000000427a0                sysGameGetSizeKB
                0x00000000000427b8                sysGameSetParamString
                0x00000000000427d0                sysGameGetDiscContentInfoUpdatePath
                0x00000000000427e8                sysGameContentPermit
                0x0000000000042800                sysGameContentErrorDialog
                0x0000000000042818                sysGameThemeInstall
                0x0000000000042830                sysGameThemeInstallFromBufferEx
                0x0000000000042848                sysGameGetLocalWebContentPath
                0x0000000000042860                sysGameDeleteGameData
                0x0000000000042878                sysGameRegisterDiscChangeCallbackEx
                0x0000000000042890                sysGameUnregisterDiscChangeCallback
                0x00000000000428a8                sysDiscRegisterDiscChangeCallbackEx
                0x00000000000428c0                sysDiscUnregisterDiscChangeCallback
                0x00000000000428d8                sysTrophyInit
                0x00000000000428f0                sysTrophyAbortHandle
                0x0000000000042908                sysTrophyCreateContext
                0x0000000000042920                sysTrophyCreateHandle
                0x0000000000042938                sysTrophyDestroyContext
                0x0000000000042950                sysTrophyDestroyHandle
                0x0000000000042968                sysTrophyGetGameIcon
                0x0000000000042980                sysTrophyGetGameInfo
                0x0000000000042998                sysTrophyGetGameProgress
                0x00000000000429b0                sysTrophyGetRequiredDiskSpace
                0x00000000000429c8                sysTrophyGetTrophyIcon
                0x00000000000429e0                sysTrophyGetTrophyInfo
                0x00000000000429f8                sysTrophyGetTrophyUnlockState
                0x0000000000042a10                sysTrophyRegisterContextEx
                0x0000000000042a28                sysTrophySetSoundLevel
                0x0000000000042a40                sysTrophyTerm
                0x0000000000042a58                sysTrophyUnlockTrophy
 .opd           0x0000000000042a70      0x168 /opt/ps3dev/psl1ght/ppu/lib/libsysutil.a(sysutil_wrapper.o)
                0x0000000000042a70                sysUtilRegisterCallback
                0x0000000000042a88                msgDialogOpen
                0x0000000000042aa0                msgDialogOpen2
                0x0000000000042ab8                msgDialogOpenErrorCode
                0x0000000000042ad0                sysSaveListLoad2
                0x0000000000042ae8                sysSaveListSave2
                0x0000000000042b00                sysSaveListAutoLoad
                0x0000000000042b18                sysSaveListAutoSave
                0x0000000000042b30                sysSaveFixedLoad2
                0x0000000000042b48                sysSaveFixedSave2
                0x0000000000042b60                sysSaveAutoLoad2
                0x0000000000042b78                sysSaveAutoSave2
                0x0000000000042b90                sysGameThemeInstallFromBuffer
                0x0000000000042ba8                sysGameDiscRegisterDiscChangeCallback
                0x0000000000042bc0                sysDiscRegisterDiscChangeCallback
 .opd           0x0000000000042bd8      0x468 /opt/ps3dev/psl1ght/ppu/lib/libio.a(sprx.o)
                0x0000000000042bd8                sys_config_start
                0x0000000000042bf0                sys_config_stop
                0x0000000000042c08                sys_config_add_service_listener
                0x0000000000042c20                sys_config_remove_service_listener
                0x0000000000042c38                sys_config_register_service
                0x0000000000042c50                sys_config_unregister_service
                0x0000000000042c68                ioPadInit
                0x0000000000042c80                ioPadEnd
                0x0000000000042c98                ioPadClearBuf
                0x0000000000042cb0                ioPadInfoPressMode
                0x0000000000042cc8                ioPadLddRegisterController
                0x0000000000042ce0                ioPadGetInfo
                0x0000000000042cf8                ioPadGetRawData
                0x0000000000042d10                ioPadGetDataExtra
                0x0000000000042d28                ioPadInfoSensorMode
                0x0000000000042d40                ioPadGetData
                0x0000000000042d58                ioPadLddGetPortNo
                0x0000000000042d70                ioPadLddDataInsert
                0x0000000000042d88                ioPadSetSensorMode
                0x0000000000042da0                ioPadGetCapabilityInfo
                0x0000000000042db8                ioPadLddUnregisterController
                0x0000000000042dd0                ioPadSetActDirect
                0x0000000000042de8                ioPadSetPressMode
                0x0000000000042e00                ioPadPeriphGetInfo
                0x0000000000042e18                ioPadSetPortSetting
                0x0000000000042e30                ioPadPeriphGetData
                0x0000000000042e48                ioPadGetInfo2
                0x0000000000042e60                ioMouseInit
                0x0000000000042e78                ioMouseEnd
                0x0000000000042e90                ioMouseClearBuf
                0x0000000000042ea8                ioMouseGetInfo
                0x0000000000042ec0                ioMouseGetTabletDataList
                0x0000000000042ed8                ioMouseSetTabletMode
                0x0000000000042ef0                ioMouseGetData
                0x0000000000042f08                ioMouseInfoTabletMode
                0x0000000000042f20                ioMouseGetRawData
                0x0000000000042f38                ioMouseGetDataList
                0x0000000000042f50                ioKbInit
                0x0000000000042f68                ioKbEnd
                0x0000000000042f80                ioKbRead
                0x0000000000042f98                ioKbSetReadMode
                0x0000000000042fb0                ioKbSetCodeType
                0x0000000000042fc8                ioKbCnvRawCode
                0x0000000000042fe0                ioKbSetLEDStatus
                0x0000000000042ff8                ioKbGetInfo
                0x0000000000043010                ioKbGetConfiguration
                0x0000000000043028                ioKbClearBuf
 .opd           0x0000000000043040       0x78 /opt/ps3dev/psl1ght/ppu/lib/libpngdec.a(pngdec.o)
                0x0000000000043088                pngLoadFromFile
                0x00000000000430a0                pngLoadFromBuffer
 .opd           0x00000000000430b8      0x2b8 /opt/ps3dev/psl1ght/ppu/lib/libpngdec.a(sprx.o)
                0x00000000000430b8                pngDecCreate
                0x00000000000430d0                pngDecDestroy
                0x00000000000430e8                pngDecOpen
                0x0000000000043100                pngDecClose
                0x0000000000043118                pngDecReadHeader
                0x0000000000043130                pngDecDecodeData
                0x0000000000043148                pngDecSetParameter
                0x0000000000043160                pngDecExtCreate
                0x0000000000043178                pngDecExtOpen
                0x0000000000043190                pngDecExtReadHeader
                0x00000000000431a8                pngDecExtDecodeData
                0x00000000000431c0                pngDecExtSetParameter
                0x00000000000431d8                pngDecGetbKGD
                0x00000000000431f0                pngDecGetcHRM
                0x0000000000043208                pngDecGetgAMA
                0x0000000000043220                pngDecGethIST
                0x0000000000043238                pngDecGetiCCP
                0x0000000000043250                pngDecGetoFFs
                0x0000000000043268                pngDecGetpCAL
                0x0000000000043280                pngDecGetpHYs
                0x0000000000043298                pngDecGetsBIT
                0x00000000000432b0                pngDecGetsCAL
                0x00000000000432c8                pngDecGetsPLT
                0x00000000000432e0                pngDecGetsRGB
                0x00000000000432f8                pngDecGettIME
                0x0000000000043310                pngDecGettRNS
                0x0000000000043328                pngDecGetPLTE
                0x0000000000043340                pngDecUnknownChunks
                0x0000000000043358                pngDecGetTextChunk
 .opd           0x0000000000043370       0x18 /opt/ps3dev/ppu/lib/gcc/powerpc64-ps3-elf/4.7.0/../../../../powerpc64-ps3-elf/lib/libm.a(lib_a-sf_cos.o)
                0x0000000000043370                cosf
 .opd           0x0000000000043388       0x18 /opt/ps3dev/ppu/lib/gcc/powerpc64-ps3-elf/4.7.0/../../../../powerpc64-ps3-elf/lib/libm.a(lib_a-sf_sin.o)
                0x0000000000043388                sinf
 .opd           0x00000000000433a0       0x18 /opt/ps3dev/ppu/lib/gcc/powerpc64-ps3-elf/4.7.0/../../../../powerpc64-ps3-elf/lib/libm.a(lib_a-sf_tan.o)
                0x00000000000433a0                tanf
 .opd           0x00000000000433b8       0x18 /opt/ps3dev/ppu/lib/gcc/powerpc64-ps3-elf/4.7.0/../../../../powerpc64-ps3-elf/lib/libm.a(lib_a-wf_sqrt.o)
                0x00000000000433b8                sqrtf
 .opd           0x00000000000433d0       0x18 /opt/ps3dev/ppu/lib/gcc/powerpc64-ps3-elf/4.7.0/../../../../powerpc64-ps3-elf/lib/libm.a(lib_a-ef_rem_pio2.o)
                0x00000000000433d0                __ieee754_rem_pio2f
 .opd           0x00000000000433e8       0x18 /opt/ps3dev/ppu/lib/gcc/powerpc64-ps3-elf/4.7.0/../../../../powerpc64-ps3-elf/lib/libm.a(lib_a-ef_sqrt.o)
                0x00000000000433e8                __ieee754_sqrtf
 .opd           0x0000000000043400       0x18 /opt/ps3dev/ppu/lib/gcc/powerpc64-ps3-elf/4.7.0/../../../../powerpc64-ps3-elf/lib/libm.a(lib_a-kf_cos.o)
                0x0000000000043400                __kernel_cosf
 .opd           0x0000000000043418       0x18 /opt/ps3dev/ppu/lib/gcc/powerpc64-ps3-elf/4.7.0/../../../../powerpc64-ps3-elf/lib/libm.a(lib_a-kf_rem_pio2.o)
                0x0000000000043418                __kernel_rem_pio2f
 .opd           0x0000000000043430       0x18 /opt/ps3dev/ppu/lib/gcc/powerpc64-ps3-elf/4.7.0/../../../../powerpc64-ps3-elf/lib/libm.a(lib_a-kf_sin.o)
                0x0000000000043430                __kernel_sinf
 .opd           0x0000000000043448       0x18 /opt/ps3dev/ppu/lib/gcc/powerpc64-ps3-elf/4.7.0/../../../../powerpc64-ps3-elf/lib/libm.a(lib_a-kf_tan.o)
                0x0000000000043448                __kernel_tanf
 .opd           0x0000000000043460       0x18 /opt/ps3dev/ppu/lib/gcc/powerpc64-ps3-elf/4.7.0/../../../../powerpc64-ps3-elf/lib/libm.a(lib_a-sf_fabs.o)
                0x0000000000043460                fabsf
 .opd           0x0000000000043478       0x18 /opt/ps3dev/ppu/lib/gcc/powerpc64-ps3-elf/4.7.0/../../../../powerpc64-ps3-elf/lib/libm.a(lib_a-sf_floor.o)
                0x0000000000043478                floorf
 .opd           0x0000000000043490       0x18 /opt/ps3dev/ppu/lib/gcc/powerpc64-ps3-elf/4.7.0/../../../../powerpc64-ps3-elf/lib/libm.a(lib_a-sf_fpclassify.o)
                0x0000000000043490                __fpclassifyf
 .opd           0x00000000000434a8       0x18 /opt/ps3dev/ppu/lib/gcc/powerpc64-ps3-elf/4.7.0/../../../../powerpc64-ps3-elf/lib/libm.a(lib_a-sf_scalbn.o)
                0x00000000000434a8                scalbnf
 .opd           0x00000000000434c0       0x18 /opt/ps3dev/ppu/lib/gcc/powerpc64-ps3-elf/4.7.0/../../../../powerpc64-ps3-elf/lib/libm.a(lib_a-s_matherr.o)
                0x00000000000434c0                matherr
 .opd           0x00000000000434d8       0x18 /opt/ps3dev/ppu/lib/gcc/powerpc64-ps3-elf/4.7.0/../../../../powerpc64-ps3-elf/lib/libm.a(lib_a-sf_copysign.o)
                0x00000000000434d8                copysignf
 .opd           0x00000000000434f0       0x30 /opt/ps3dev/ppu/lib/gcc/powerpc64-ps3-elf/4.7.0/../../../../powerpc64-ps3-elf/lib/libsysbase.a(sleep.o)
                0x00000000000434f0                usleep
                0x0000000000043508                sleep
 .opd           0x0000000000043520       0x30 /opt/ps3dev/ppu/lib/gcc/powerpc64-ps3-elf/4.7.0/../../../../powerpc64-ps3-elf/lib/libc.a(lib_a-assert.o)
                0x0000000000043520                __assert_func
                0x0000000000043538                __assert
 .opd           0x0000000000043550       0x18 /opt/ps3dev/ppu/lib/gcc/powerpc64-ps3-elf/4.7.0/../../../../powerpc64-ps3-elf/lib/libc.a(lib_a-atexit.o)
                0x0000000000043550                atexit
 .opd           0x0000000000043568       0x18 /opt/ps3dev/ppu/lib/gcc/powerpc64-ps3-elf/4.7.0/../../../../powerpc64-ps3-elf/lib/libc.a(lib_a-errno.o)
                0x0000000000043568                __errno
 .opd           0x0000000000043580       0x18 /opt/ps3dev/ppu/lib/gcc/powerpc64-ps3-elf/4.7.0/../../../../powerpc64-ps3-elf/lib/libc.a(lib_a-exit.o)
                0x0000000000043580                exit
 .opd           0x0000000000043598       0x30 /opt/ps3dev/ppu/lib/gcc/powerpc64-ps3-elf/4.7.0/../../../../powerpc64-ps3-elf/lib/libc.a(lib_a-fiprintf.o)
                0x0000000000043598                _fiprintf_r
                0x00000000000435b0                fiprintf
 .opd           0x00000000000435c8       0x18 /opt/ps3dev/ppu/lib/gcc/powerpc64-ps3-elf/4.7.0/../../../../powerpc64-ps3-elf/lib/libc.a(lib_a-getreent.o)
                0x00000000000435c8                __getreent
 .opd           0x00000000000435e0       0x18 /opt/ps3dev/ppu/lib/gcc/powerpc64-ps3-elf/4.7.0/../../../../powerpc64-ps3-elf/lib/libc.a(lib_a-malign.o)
                0x00000000000435e0                memalign
 .opd           0x00000000000435f8       0x18 /opt/ps3dev/ppu/lib/gcc/powerpc64-ps3-elf/4.7.0/../../../../powerpc64-ps3-elf/lib/libc.a(lib_a-malignr.o)
                0x00000000000435f8                _memalign_r
 .opd           0x0000000000043610       0x30 /opt/ps3dev/ppu/lib/gcc/powerpc64-ps3-elf/4.7.0/../../../../powerpc64-ps3-elf/lib/libc.a(lib_a-malloc.o)
                0x0000000000043610                malloc
                0x0000000000043628                free
 .opd           0x0000000000043640       0x18 /opt/ps3dev/ppu/lib/gcc/powerpc64-ps3-elf/4.7.0/../../../../powerpc64-ps3-elf/lib/libc.a(lib_a-mallocr.o)
                0x0000000000043640                _malloc_r
 .opd           0x0000000000043658       0x18 /opt/ps3dev/ppu/lib/gcc/powerpc64-ps3-elf/4.7.0/../../../../powerpc64-ps3-elf/lib/libc.a(lib_a-memcpy.o)
                0x0000000000043658                memcpy
 .opd           0x0000000000043670       0x18 /opt/ps3dev/ppu/lib/gcc/powerpc64-ps3-elf/4.7.0/../../../../powerpc64-ps3-elf/lib/libc.a(lib_a-memset.o)
                0x0000000000043670                memset
 .opd           0x0000000000043688       0x30 /opt/ps3dev/ppu/lib/gcc/powerpc64-ps3-elf/4.7.0/../../../../powerpc64-ps3-elf/lib/libc.a(lib_a-mlock.o)
                0x0000000000043688                __malloc_lock
                0x00000000000436a0                __malloc_unlock
 .opd           0x00000000000436b8       0x30 /opt/ps3dev/ppu/lib/gcc/powerpc64-ps3-elf/4.7.0/../../../../powerpc64-ps3-elf/lib/libc.a(lib_a-printf.o)
                0x00000000000436b8                _printf_r
                0x00000000000436d0                printf
 .opd           0x00000000000436e8       0x30 /opt/ps3dev/ppu/lib/gcc/powerpc64-ps3-elf/4.7.0/../../../../powerpc64-ps3-elf/lib/libc.a(lib_a-rand.o)
                0x00000000000436e8                srand
                0x0000000000043700                rand
 .opd           0x0000000000043718       0x18 /opt/ps3dev/ppu/lib/gcc/powerpc64-ps3-elf/4.7.0/../../../../powerpc64-ps3-elf/lib/libc.a(lib_a-strcasecmp.o)
                0x0000000000043718                strcasecmp
 .opd           0x0000000000043730       0x48 /opt/ps3dev/ppu/lib/gcc/powerpc64-ps3-elf/4.7.0/../../../../powerpc64-ps3-elf/lib/libc.a(lib_a-vfiprintf.o)
                0x0000000000043730                __sprint_r
                0x0000000000043748                _vfiprintf_r
                0x0000000000043760                vfiprintf
 .opd           0x0000000000043778       0x30 /opt/ps3dev/ppu/lib/gcc/powerpc64-ps3-elf/4.7.0/../../../../powerpc64-ps3-elf/lib/libc.a(lib_a-vfprintf.o)
                0x0000000000043778                _vfprintf_r
                0x0000000000043790                vfprintf
 .opd           0x00000000000437a8       0x18 /opt/ps3dev/ppu/lib/gcc/powerpc64-ps3-elf/4.7.0/../../../../powerpc64-ps3-elf/lib/libc.a(lib_a-wsetup.o)
                0x00000000000437a8                __swsetup_r
 .opd           0x00000000000437c0       0x18 /opt/ps3dev/ppu/lib/gcc/powerpc64-ps3-elf/4.7.0/../../../../powerpc64-ps3-elf/lib/libc.a(lib_a-abort.o)
                0x00000000000437c0                abort
 .opd           0x00000000000437d8       0x18 /opt/ps3dev/ppu/lib/gcc/powerpc64-ps3-elf/4.7.0/../../../../powerpc64-ps3-elf/lib/libc.a(lib_a-__atexit.o)
                0x00000000000437d8                __register_exitproc
 .opd           0x00000000000437f0       0x18 /opt/ps3dev/ppu/lib/gcc/powerpc64-ps3-elf/4.7.0/../../../../powerpc64-ps3-elf/lib/libc.a(lib_a-__call_atexit.o)
                0x00000000000437f0                __call_exitprocs
 .opd           0x0000000000043808       0x30 /opt/ps3dev/ppu/lib/gcc/powerpc64-ps3-elf/4.7.0/../../../../powerpc64-ps3-elf/lib/libc.a(lib_a-dtoa.o)
                0x0000000000043820                _dtoa_r
 .opd           0x0000000000043838       0x48 /opt/ps3dev/ppu/lib/gcc/powerpc64-ps3-elf/4.7.0/../../../../powerpc64-ps3-elf/lib/libc.a(lib_a-fflush.o)
                0x0000000000043838                __sflush_r
                0x0000000000043850                _fflush_r
                0x0000000000043868                fflush
 .opd           0x0000000000043880      0x150 /opt/ps3dev/ppu/lib/gcc/powerpc64-ps3-elf/4.7.0/../../../../powerpc64-ps3-elf/lib/libc.a(lib_a-findfp.o)
                0x0000000000043880                _cleanup_r
                0x00000000000438e0                __sfmoreglue
                0x00000000000438f8                _cleanup
                0x0000000000043910                __sfp_lock_acquire
                0x0000000000043928                __sfp_lock_release
                0x0000000000043940                __sinit_lock_acquire
                0x0000000000043958                __sinit_lock_release
                0x0000000000043970                __sinit
                0x0000000000043988                __sfp
                0x00000000000439a0                __fp_lock_all
                0x00000000000439b8                __fp_unlock_all
 .opd           0x00000000000439d0       0x30 /opt/ps3dev/ppu/lib/gcc/powerpc64-ps3-elf/4.7.0/../../../../powerpc64-ps3-elf/lib/libc.a(lib_a-fputwc.o)
                0x00000000000439d0                _fputwc_r
                0x00000000000439e8                fputwc
 .opd           0x0000000000043a00       0x30 /opt/ps3dev/ppu/lib/gcc/powerpc64-ps3-elf/4.7.0/../../../../powerpc64-ps3-elf/lib/libc.a(lib_a-freer.o)
                0x0000000000043a00                _malloc_trim_r
                0x0000000000043a18                _free_r
 .opd           0x0000000000043a30       0x18 /opt/ps3dev/ppu/lib/gcc/powerpc64-ps3-elf/4.7.0/../../../../powerpc64-ps3-elf/lib/libc.a(lib_a-fvwrite.o)
                0x0000000000043a30                __sfvwrite_r
 .opd           0x0000000000043a48       0x30 /opt/ps3dev/ppu/lib/gcc/powerpc64-ps3-elf/4.7.0/../../../../powerpc64-ps3-elf/lib/libc.a(lib_a-fwalk.o)
                0x0000000000043a48                _fwalk
                0x0000000000043a60                _fwalk_reent
 .opd           0x0000000000043a78       0xc0 /opt/ps3dev/ppu/lib/gcc/powerpc64-ps3-elf/4.7.0/../../../../powerpc64-ps3-elf/lib/libc.a(lib_a-locale.o)
                0x0000000000043a78                _setlocale_r
                0x0000000000043a90                __locale_charset
                0x0000000000043aa8                __locale_mb_cur_max
                0x0000000000043ac0                __locale_msgcharset
                0x0000000000043ad8                __locale_cjk_lang
                0x0000000000043af0                _localeconv_r
                0x0000000000043b08                setlocale
                0x0000000000043b20                localeconv
 .opd           0x0000000000043b38       0x78 /opt/ps3dev/ppu/lib/gcc/powerpc64-ps3-elf/4.7.0/../../../../powerpc64-ps3-elf/lib/libc.a(lib_a-lock_recursive.o)
                0x0000000000043b38                __libc_lock_init_recursive
                0x0000000000043b50                __libc_lock_close_recursive
                0x0000000000043b68                __libc_lock_acquire_recursive
                0x0000000000043b80                __libc_lock_try_acquire_recursive
                0x0000000000043b98                __libc_lock_release_recursive
 .opd           0x0000000000043bb0       0x18 /opt/ps3dev/ppu/lib/gcc/powerpc64-ps3-elf/4.7.0/../../../../powerpc64-ps3-elf/lib/libc.a(lib_a-makebuf.o)
                0x0000000000043bb0                __smakebuf_r
 .opd           0x0000000000043bc8       0x18 /opt/ps3dev/ppu/lib/gcc/powerpc64-ps3-elf/4.7.0/../../../../powerpc64-ps3-elf/lib/libc.a(lib_a-memchr.o)
                0x0000000000043bc8                memchr
 .opd           0x0000000000043be0       0x18 /opt/ps3dev/ppu/lib/gcc/powerpc64-ps3-elf/4.7.0/../../../../powerpc64-ps3-elf/lib/libc.a(lib_a-memmove.o)
                0x0000000000043be0                memmove
 .opd           0x0000000000043bf8      0x1c8 /opt/ps3dev/ppu/lib/gcc/powerpc64-ps3-elf/4.7.0/../../../../powerpc64-ps3-elf/lib/libc.a(lib_a-mprec.o)
                0x0000000000043bf8                _Balloc
                0x0000000000043c10                _Bfree
                0x0000000000043c28                __multadd
                0x0000000000043c40                __s2b
                0x0000000000043c58                __hi0bits
                0x0000000000043c70                __lo0bits
                0x0000000000043c88                __i2b
                0x0000000000043ca0                __multiply
                0x0000000000043cb8                __pow5mult
                0x0000000000043cd0                __lshift
                0x0000000000043ce8                __mcmp
                0x0000000000043d00                __mdiff
                0x0000000000043d18                __ulp
                0x0000000000043d30                __b2d
                0x0000000000043d48                __d2b
                0x0000000000043d60                __ratio
                0x0000000000043d78                _mprec_log10
                0x0000000000043d90                __copybits
                0x0000000000043da8                __any_on
 .opd           0x0000000000043dc0       0x18 /opt/ps3dev/ppu/lib/gcc/powerpc64-ps3-elf/4.7.0/../../../../powerpc64-ps3-elf/lib/libc.a(lib_a-reallocr.o)
                0x0000000000043dc0                _realloc_r
 .opd           0x0000000000043dd8       0x18 /opt/ps3dev/ppu/lib/gcc/powerpc64-ps3-elf/4.7.0/../../../../powerpc64-ps3-elf/lib/libc.a(lib_a-s_fpclassify.o)
                0x0000000000043dd8                __fpclassifyd
 .opd           0x0000000000043df0       0xc0 /opt/ps3dev/ppu/lib/gcc/powerpc64-ps3-elf/4.7.0/../../../../powerpc64-ps3-elf/lib/libc.a(lib_a-signal.o)
                0x0000000000043df0                _init_signal_r
                0x0000000000043e08                _signal_r
                0x0000000000043e20                _raise_r
                0x0000000000043e38                __sigtramp_r
                0x0000000000043e50                raise
                0x0000000000043e68                signal
                0x0000000000043e80                _init_signal
                0x0000000000043e98                __sigtramp
 .opd           0x0000000000043eb0       0x78 /opt/ps3dev/ppu/lib/gcc/powerpc64-ps3-elf/4.7.0/../../../../powerpc64-ps3-elf/lib/libc.a(lib_a-stdio.o)
                0x0000000000043eb0                __sread
                0x0000000000043ec8                __seofread
                0x0000000000043ee0                __swrite
                0x0000000000043ef8                __sseek
                0x0000000000043f10                __sclose
 .opd           0x0000000000043f28       0x18 /opt/ps3dev/ppu/lib/gcc/powerpc64-ps3-elf/4.7.0/../../../../powerpc64-ps3-elf/lib/libc.a(lib_a-strcmp.o)
                0x0000000000043f28                strcmp
 .opd           0x0000000000043f40       0x18 /opt/ps3dev/ppu/lib/gcc/powerpc64-ps3-elf/4.7.0/../../../../powerpc64-ps3-elf/lib/libc.a(lib_a-strlen.o)
                0x0000000000043f40                strlen
 .opd           0x0000000000043f58       0x30 /opt/ps3dev/ppu/lib/gcc/powerpc64-ps3-elf/4.7.0/../../../../powerpc64-ps3-elf/lib/libc.a(lib_a-wbuf.o)
                0x0000000000043f58                __swbuf_r
                0x0000000000043f70                __swbuf
 .opd           0x0000000000043f88       0x30 /opt/ps3dev/ppu/lib/gcc/powerpc64-ps3-elf/4.7.0/../../../../powerpc64-ps3-elf/lib/libc.a(lib_a-wcrtomb.o)
                0x0000000000043f88                _wcrtomb_r
                0x0000000000043fa0                wcrtomb
 .opd           0x0000000000043fb8       0x30 /opt/ps3dev/ppu/lib/gcc/powerpc64-ps3-elf/4.7.0/../../../../powerpc64-ps3-elf/lib/libc.a(lib_a-wctomb_r.o)
                0x0000000000043fb8                __ascii_wctomb
                0x0000000000043fd0                _wctomb_r
 .opd           0x0000000000043fe8       0x18 /opt/ps3dev/ppu/lib/gcc/powerpc64-ps3-elf/4.7.0/../../../../powerpc64-ps3-elf/lib/libc.a(lib_a-callocr.o)
                0x0000000000043fe8                _calloc_r
 .opd           0x0000000000044000       0x30 /opt/ps3dev/ppu/lib/gcc/powerpc64-ps3-elf/4.7.0/../../../../powerpc64-ps3-elf/lib/libc.a(lib_a-fclose.o)
                0x0000000000044000                _fclose_r
                0x0000000000044018                fclose
 .opd           0x0000000000044030       0x30 /opt/ps3dev/ppu/lib/gcc/powerpc64-ps3-elf/4.7.0/../../../../powerpc64-ps3-elf/lib/libc.a(lib_a-lock_internal.o)
                0x0000000000044048                __libc_auto_lock_allocate
 .opd           0x0000000000044060       0x48 /opt/ps3dev/psl1ght/ppu/lib/librt.a(sbrk.o)
                0x0000000000044090                __librt_sbrk_r
 .opd           0x00000000000440a8       0x18 /opt/ps3dev/psl1ght/ppu/lib/librt.a(exit.o)
                0x00000000000440a8                __librt_exit
 .opd           0x00000000000440c0       0x18 /opt/ps3dev/psl1ght/ppu/lib/librt.a(close.o)
                0x00000000000440c0                __librt_close_r
 .opd           0x00000000000440d8       0x30 /opt/ps3dev/psl1ght/ppu/lib/librt.a(lseek.o)
                0x00000000000440d8                __librt_lseek_r
                0x00000000000440f0                __librt_lseek64_r
 .opd           0x0000000000044108       0x18 /opt/ps3dev/psl1ght/ppu/lib/librt.a(read.o)
                0x0000000000044108                __librt_read_r
 .opd           0x0000000000044120       0x18 /opt/ps3dev/psl1ght/ppu/lib/librt.a(open.o)
                0x0000000000044120                __librt_open_r
 .opd           0x0000000000044138       0x30 /opt/ps3dev/psl1ght/ppu/lib/librt.a(sleep.o)
                0x0000000000044138                __librt_usleep_r
                0x0000000000044150                __librt_sleep_r
 .opd           0x0000000000044168       0x18 /opt/ps3dev/psl1ght/ppu/lib/librt.a(write.o)
                0x0000000000044168                __librt_write_r
 .opd           0x0000000000044180       0x78 /opt/ps3dev/psl1ght/ppu/lib/librt.a(fstat.o)
                0x0000000000044198                __librt_fstat_r
                0x00000000000441b0                __librt_fstat64_r
                0x00000000000441c8                __librt_stat_r
                0x00000000000441e0                __librt_stat64_r
 .opd           0x00000000000441f8      0x150 /opt/ps3dev/psl1ght/ppu/lib/librt.a(socket.o)
                0x00000000000441f8                accept
                0x0000000000044210                bind
                0x0000000000044228                connect
                0x0000000000044240                listen
                0x0000000000044258                socket
                0x0000000000044270                send
                0x0000000000044288                sendto
                0x00000000000442a0                recv
                0x00000000000442b8                recvfrom
                0x00000000000442d0                shutdown
                0x00000000000442e8                inet_aton
                0x0000000000044300                inet_pton
                0x0000000000044318                select
                0x0000000000044330                closesocket
 .opd           0x0000000000044348       0x78 /opt/ps3dev/psl1ght/ppu/lib/librt.a(lock.o)
                0x0000000000044348                __librt_sys_lwmutex_create_r
                0x0000000000044360                __librt_sys_lwmutex_destroy_r
                0x0000000000044378                __librt_sys_lwmutex_lock_r
                0x0000000000044390                __librt_sys_lwmutex_trylock_r
                0x00000000000443a8                __librt_sys_lwmutex_unlock_r
 .opd           0x00000000000443c0       0xc0 /opt/ps3dev/psl1ght/ppu/lib/librt.a(dirent.o)
                0x00000000000443d8                __librt_opendir_r
                0x00000000000443f0                __librt_readdir_r
                0x0000000000044408                __librt_readdir_r_r
                0x0000000000044420                __librt_closedir_r
                0x0000000000044438                __librt_telldir_r
                0x0000000000044450                __librt_rewinddir_r
                0x0000000000044468                __librt_seekdir_r
 .opd           0x0000000000044480       0x18 /opt/ps3dev/psl1ght/ppu/lib/librt.a(mkdir.o)
                0x0000000000044480                __librt_mkdir_r
 .opd           0x0000000000044498       0x18 /opt/ps3dev/psl1ght/ppu/lib/librt.a(times.o)
                0x0000000000044498                __librt_times_r
 .opd           0x00000000000444b0       0x18 /opt/ps3dev/psl1ght/ppu/lib/librt.a(umask.o)
                0x00000000000444b0                __librt_umask_r
 .opd           0x00000000000444c8       0x48 /opt/ps3dev/psl1ght/ppu/lib/librt.a(lv2errno.o)
                0x00000000000444c8                lv2error
                0x00000000000444e0                lv2errno
                0x00000000000444f8                lv2errno_r
 .opd           0x0000000000044510       0x60 /opt/ps3dev/psl1ght/ppu/lib/librt.a(heap.o)
                0x0000000000044510                heapInit
                0x0000000000044528                heapAllocate
                0x0000000000044540                heapAllocateAligned
                0x0000000000044558                heapFree
 .opd           0x0000000000044570       0x18 /opt/ps3dev/psl1ght/ppu/lib/librt.a(chmod.o)
                0x0000000000044570                __librt_chmod_r
 .opd           0x0000000000044588       0x18 /opt/ps3dev/psl1ght/ppu/lib/librt.a(rmdir.o)
                0x0000000000044588                __librt_rmdir_r
 .opd           0x00000000000445a0       0x18 /opt/ps3dev/psl1ght/ppu/lib/librt.a(isatty.o)
                0x00000000000445a0                __librt_isatty_r
 .opd           0x00000000000445b8       0x18 /opt/ps3dev/psl1ght/ppu/lib/librt.a(gettod.o)
                0x00000000000445b8                __librt_gettod_r
 .opd           0x00000000000445d0       0x18 /opt/ps3dev/psl1ght/ppu/lib/librt.a(settod.o)
                0x00000000000445d0                __librt_settod_r
 .opd           0x00000000000445e8      0xb28 /opt/ps3dev/psl1ght/ppu/lib/liblv2.a(sprx.o)
                0x00000000000445e8                sysGetSystemTime
                0x0000000000044600                sysGetSystemSwVersion
                0x0000000000044618                sysGetTemperature
                0x0000000000044630                sysGetRandomNumber
                0x0000000000044648                sysGetRtcStatus
                0x0000000000044660                sysBoardStorageRead
                0x0000000000044678                sysBoardStorageWrite
                0x0000000000044690                sysProcessIsStack
                0x00000000000446a8                sysProcessExit
                0x00000000000446c0                sysProcessExitspawn
                0x00000000000446d8                sysProcessExitSpawn2Ex
                0x00000000000446f0                sysProcessExitSpawnWithLevel
                0x0000000000044708                sysProcessAtExitSpawn
                0x0000000000044720                sysProcess_At_ExitSpawn
                0x0000000000044738                sysPrxRegisterLibrary
                0x0000000000044750                sysPrxUnregisterLibrary
                0x0000000000044768                sysPrxStartModule
                0x0000000000044780                sysPrxStopModule
                0x0000000000044798                sysPrxLoadModule
                0x00000000000447b0                sysPrxLoadModuleByFd
                0x00000000000447c8                sysPrxLoadModuleList
                0x00000000000447e0                sysPrxLoadModuleListOnMemcontainer
                0x00000000000447f8                sysPrxLoadModuleOnMemcontainer
                0x0000000000044810                sysPrxLoadModuleOnMemcontainerByFd
                0x0000000000044828                sysPrxGetModuleInfo
                0x0000000000044840                sysPrxGetModuleList
                0x0000000000044858                sysPrxGetModuleId
                0x0000000000044870                sysPrxGetModuleIdByAddress
                0x0000000000044888                sysPrxGetModuleIdByName
                0x00000000000448a0                sysPrxUnloadModule
                0x00000000000448b8                sysPrxExitSpawnWithLevel
                0x00000000000448d0                sysThreadCreateEx
                0x00000000000448e8                sysThreadExit
                0x0000000000044900                sysThreadGetId
                0x0000000000044918                sysThreadOnce
                0x0000000000044930                sysThreadInitialzeTLS
                0x0000000000044948                sysThreadRegisterAtexit
                0x0000000000044960                sysThreadUnregisterAtexit
                0x0000000000044978                sysInterruptThreadDisestablish
                0x0000000000044990                sysLwMutexCreate
                0x00000000000449a8                sysLwMutexDestroy
                0x00000000000449c0                sysLwMutexLock
                0x00000000000449d8                sysLwMutexTryLock
                0x00000000000449f0                sysLwMutexUnlock
                0x0000000000044a08                sysLwCondCreate
                0x0000000000044a20                sysLwCondWait
                0x0000000000044a38                sysLwCondSignal
                0x0000000000044a50                sysLwCondSignalTo
                0x0000000000044a68                sysLwCondSignalAll
                0x0000000000044a80                sysLwCondDestroy
                0x0000000000044a98                sysSpinlockInitialize
                0x0000000000044ab0                sysSpinlockLock
                0x0000000000044ac8                sysSpinlockTryLock
                0x0000000000044ae0                sysSpinlockUnlock
                0x0000000000044af8                sysWatchdogClear
                0x0000000000044b10                sysWatchdogStart
                0x0000000000044b28                sysWatchdogStop
                0x0000000000044b40                sysMalloc
                0x0000000000044b58                sysMemalign
                0x0000000000044b70                sysMemchr
                0x0000000000044b88                sysMemcmp
                0x0000000000044ba0                sysMemcpy
                0x0000000000044bb8                sysMemmove
                0x0000000000044bd0                sysMemset
                0x0000000000044be8                sysFree
                0x0000000000044c00                sysHeapAllocHeapMemory
                0x0000000000044c18                sysHeapCreateHeap
                0x0000000000044c30                sysHeapDeleteHeap
                0x0000000000044c48                sysHeapFree
                0x0000000000044c60                sysHeapGetMallInfo
                0x0000000000044c78                sysHeapGetTotalFreeSize
                0x0000000000044c90                sysHeapMalloc
                0x0000000000044ca8                sysHeapMemalign
                0x0000000000044cc0                sysHeapStats
                0x0000000000044cd8                sysQsort
                0x0000000000044cf0                sysMempoolCreate
                0x0000000000044d08                sysMempoolDestroy
                0x0000000000044d20                sysMempoolGetCount
                0x0000000000044d38                sysMempoolAllocateBlock
                0x0000000000044d50                sysMempoolTryAllocateBlock
                0x0000000000044d68                sysMempoolFreeBlock
                0x0000000000044d80                sysMMapperFreeMemory
                0x0000000000044d98                sysMMapperMapMemory
                0x0000000000044db0                sysMMapperUnmapMemory
                0x0000000000044dc8                sysMMapperAllocateMemory
                0x0000000000044de0                sysMMapperAllocateMemoryFromContainer
                0x0000000000044df8                sysStrlen
                0x0000000000044e10                sysStrcpy
                0x0000000000044e28                sysStrncpy
                0x0000000000044e40                sysStrcat
                0x0000000000044e58                sysStrncat
                0x0000000000044e70                sysStrchr
                0x0000000000044e88                sysStrrchr
                0x0000000000044ea0                sysStrcmp
                0x0000000000044eb8                sysStrncmp
                0x0000000000044ed0                sysStrncasecmp
                0x0000000000044ee8                sysToLower
                0x0000000000044f00                sysToUpper
                0x0000000000044f18                sysSpuElfGetSegments
                0x0000000000044f30                sysSpuElfGetInformation
                0x0000000000044f48                sysSpuRawLoad
                0x0000000000044f60                sysSpuRawImageLoad
                0x0000000000044f78                sysSpuImageClose
                0x0000000000044f90                sysSpuImageImport
                0x0000000000044fa8                sysSpuPrintfAttachGroup
                0x0000000000044fc0                sysSpuPrintfAttachThread
                0x0000000000044fd8                sysSpuPrintfDetachGroup
                0x0000000000044ff0                sysSpuPrintfDetach_Tread
                0x0000000000045008                sysSpuPrintfFinalize
                0x0000000000045020                sysSpuPrintfInitialize
                0x0000000000045038                sysConsoleGetc
                0x0000000000045050                sysConsolePutc
                0x0000000000045068                sysConsoleWrite
                0x0000000000045080                sysPrintf
                0x0000000000045098                sysSprintf
                0x00000000000450b0                sysSnprintf
                0x00000000000450c8                sysVprintf
                0x00000000000450e0                sysVsprintf
                0x00000000000450f8                sysVsnprintf
 .opd           0x0000000000045110       0x18 /opt/ps3dev/ppu/lib/gcc/powerpc64-ps3-elf/4.7.0/../../../../powerpc64-ps3-elf/lib/libsysbase.a(close.o)
                0x0000000000045110                _close_r
 .opd           0x0000000000045128       0x18 /opt/ps3dev/ppu/lib/gcc/powerpc64-ps3-elf/4.7.0/../../../../powerpc64-ps3-elf/lib/libsysbase.a(sbrk.o)
                0x0000000000045128                _sbrk_r
 .opd           0x0000000000045140       0x18 /opt/ps3dev/ppu/lib/gcc/powerpc64-ps3-elf/4.7.0/../../../../powerpc64-ps3-elf/lib/libsysbase.a(_exit.o)
                0x0000000000045140                _exit
 .opd           0x0000000000045158       0x18 /opt/ps3dev/ppu/lib/gcc/powerpc64-ps3-elf/4.7.0/../../../../powerpc64-ps3-elf/lib/libsysbase.a(fstat.o)
                0x0000000000045158                _fstat_r
 .opd           0x0000000000045170       0x18 /opt/ps3dev/ppu/lib/gcc/powerpc64-ps3-elf/4.7.0/../../../../powerpc64-ps3-elf/lib/libsysbase.a(isatty.o)
                0x0000000000045170                _isatty_r
 .opd           0x0000000000045188       0x18 /opt/ps3dev/ppu/lib/gcc/powerpc64-ps3-elf/4.7.0/../../../../powerpc64-ps3-elf/lib/libsysbase.a(lseek.o)
                0x0000000000045188                _lseek_r
 .opd           0x00000000000451a0       0x18 /opt/ps3dev/ppu/lib/gcc/powerpc64-ps3-elf/4.7.0/../../../../powerpc64-ps3-elf/lib/libsysbase.a(read.o)
                0x00000000000451a0                _read_r
 .opd           0x00000000000451b8       0x18 /opt/ps3dev/ppu/lib/gcc/powerpc64-ps3-elf/4.7.0/../../../../powerpc64-ps3-elf/lib/libsysbase.a(write.o)
                0x00000000000451b8                _write_r
 .opd           0x00000000000451d0       0x78 /opt/ps3dev/ppu/lib/gcc/powerpc64-ps3-elf/4.7.0/../../../../powerpc64-ps3-elf/lib/libsysbase.a(lock.o)
                0x00000000000451d0                sys_lwmutex_create
                0x00000000000451e8                sys_lwmutex_destroy
                0x0000000000045200                sys_lwmutex_lock
                0x0000000000045218                sys_lwmutex_trylock
                0x0000000000045230                sys_lwmutex_unlock
 .opd           0x0000000000045248       0x18 /opt/ps3dev/ppu/lib/gcc/powerpc64-ps3-elf/4.7.0/../../../../powerpc64-ps3-elf/lib/libsysbase.a(getpid.o)
                0x0000000000045248                _getpid_r
 .opd           0x0000000000045260       0x18 /opt/ps3dev/ppu/lib/gcc/powerpc64-ps3-elf/4.7.0/../../../../powerpc64-ps3-elf/lib/libsysbase.a(kill.o)
                0x0000000000045260                _kill_r
 .opd           0x0000000000045278       0x30 /opt/ps3dev/ppu/lib/gcc/powerpc64-ps3-elf/4.7.0/../../../../powerpc64-ps3-elf/lib/libc.a(lib_a-sscanf.o)
                0x0000000000045278                sscanf
                0x0000000000045290                _sscanf_r
 .opd           0x00000000000452a8       0x18 /opt/ps3dev/ppu/lib/gcc/powerpc64-ps3-elf/4.7.0/../../../../powerpc64-ps3-elf/lib/libc.a(lib_a-strncpy.o)
                0x00000000000452a8                strncpy
 .opd           0x00000000000452c0       0x18 /opt/ps3dev/ppu/lib/gcc/powerpc64-ps3-elf/4.7.0/../../../../powerpc64-ps3-elf/lib/libc.a(lib_a-svfscanf.o)
                0x00000000000452c0                __ssvfscanf_r
 .opd           0x00000000000452d8       0x18 /opt/ps3dev/ppu/lib/gcc/powerpc64-ps3-elf/4.7.0/../../../../powerpc64-ps3-elf/lib/libc.a(lib_a-iswspace.o)
                0x00000000000452d8                iswspace
 .opd           0x00000000000452f0       0x30 /opt/ps3dev/ppu/lib/gcc/powerpc64-ps3-elf/4.7.0/../../../../powerpc64-ps3-elf/lib/libc.a(lib_a-mbrtowc.o)
                0x00000000000452f0                _mbrtowc_r
                0x0000000000045308                mbrtowc
 .opd           0x0000000000045320       0x30 /opt/ps3dev/ppu/lib/gcc/powerpc64-ps3-elf/4.7.0/../../../../powerpc64-ps3-elf/lib/libc.a(lib_a-mbtowc_r.o)
                0x0000000000045320                __ascii_mbtowc
                0x0000000000045338                _mbtowc_r
 .opd           0x0000000000045350       0x18 /opt/ps3dev/ppu/lib/gcc/powerpc64-ps3-elf/4.7.0/../../../../powerpc64-ps3-elf/lib/libc.a(lib_a-sccl.o)
                0x0000000000045350                __sccl
 .opd           0x0000000000045368       0x18 /opt/ps3dev/ppu/lib/gcc/powerpc64-ps3-elf/4.7.0/../../../../powerpc64-ps3-elf/lib/libc.a(lib_a-sf_nan.o)
                0x0000000000045368                nanf
 .opd           0x0000000000045380       0x30 /opt/ps3dev/ppu/lib/gcc/powerpc64-ps3-elf/4.7.0/../../../../powerpc64-ps3-elf/lib/libc.a(lib_a-sprintf.o)
                0x0000000000045380                _sprintf_r
                0x0000000000045398                sprintf
 .opd           0x00000000000453b0       0x48 /opt/ps3dev/ppu/lib/gcc/powerpc64-ps3-elf/4.7.0/../../../../powerpc64-ps3-elf/lib/libc.a(lib_a-strtod.o)
                0x00000000000453b0                _strtod_r
                0x00000000000453c8                strtod
                0x00000000000453e0                strtof
 .opd           0x00000000000453f8       0x18 /opt/ps3dev/ppu/lib/gcc/powerpc64-ps3-elf/4.7.0/../../../../powerpc64-ps3-elf/lib/libc.a(lib_a-strtoll_r.o)
                0x00000000000453f8                _strtoll_r
 .opd           0x0000000000045410       0x30 /opt/ps3dev/ppu/lib/gcc/powerpc64-ps3-elf/4.7.0/../../../../powerpc64-ps3-elf/lib/libc.a(lib_a-strtol.o)
                0x0000000000045410                _strtol_r
                0x0000000000045428                strtol
 .opd           0x0000000000045440       0x18 /opt/ps3dev/ppu/lib/gcc/powerpc64-ps3-elf/4.7.0/../../../../powerpc64-ps3-elf/lib/libc.a(lib_a-strtoull_r.o)
                0x0000000000045440                _strtoull_r
 .opd           0x0000000000045458       0x30 /opt/ps3dev/ppu/lib/gcc/powerpc64-ps3-elf/4.7.0/../../../../powerpc64-ps3-elf/lib/libc.a(lib_a-strtoul.o)
                0x0000000000045458                _strtoul_r
                0x0000000000045470                strtoul
 .opd           0x0000000000045488       0x60 /opt/ps3dev/ppu/lib/gcc/powerpc64-ps3-elf/4.7.0/../../../../powerpc64-ps3-elf/lib/libc.a(lib_a-svfiscanf.o)
                0x0000000000045488                _sungetc_r
                0x00000000000454a0                __ssrefill_r
                0x00000000000454b8                _sfread_r
                0x00000000000454d0                __ssvfiscanf_r
 .opd           0x00000000000454e8       0x18 /opt/ps3dev/ppu/lib/gcc/powerpc64-ps3-elf/4.7.0/../../../../powerpc64-ps3-elf/lib/libc.a(lib_a-svfprintf.o)
                0x00000000000454e8                _svfprintf_r
 .opd           0x0000000000045500       0x48 /opt/ps3dev/ppu/lib/gcc/powerpc64-ps3-elf/4.7.0/../../../../powerpc64-ps3-elf/lib/libc.a(lib_a-ungetc.o)
                0x0000000000045500                __submore
                0x0000000000045518                _ungetc_r
                0x0000000000045530                ungetc
 .opd           0x0000000000045548       0x48 /opt/ps3dev/ppu/lib/gcc/powerpc64-ps3-elf/4.7.0/../../../../powerpc64-ps3-elf/lib/libc.a(lib_a-gdtoa-gethex.o)
                0x0000000000045560                __hexdig_init
                0x0000000000045578                __gethex
 .opd           0x0000000000045590       0x18 /opt/ps3dev/ppu/lib/gcc/powerpc64-ps3-elf/4.7.0/../../../../powerpc64-ps3-elf/lib/libc.a(lib_a-gdtoa-hexnan.o)
                0x0000000000045590                __hexnan
 .opd           0x00000000000455a8       0x18 /opt/ps3dev/ppu/lib/gcc/powerpc64-ps3-elf/4.7.0/../../../../powerpc64-ps3-elf/lib/libc.a(lib_a-strncmp.o)
                0x00000000000455a8                strncmp
 .opd           0x00000000000455c0       0x30 /opt/ps3dev/ppu/lib/gcc/powerpc64-ps3-elf/4.7.0/../../../../powerpc64-ps3-elf/lib/libc.a(lib_a-svfiprintf.o)
                0x00000000000455c0                __ssprint_r
                0x00000000000455d8                _svfiprintf_r
 .opd           0x00000000000455f0       0x18 /opt/ps3dev/ppu/lib/gcc/powerpc64-ps3-elf/4.7.0/crtend.o

.branch_lt      0x0000000000045608        0x0
 *(.branch_lt)
 .branch_lt     0x0000000000045608        0x0 linker stubs

.got            0x0000000000045608     0x10a0
 *(.got .toc)
 .toc           0x0000000000045608       0x70 /opt/ps3dev/ppu/lib/gcc/powerpc64-ps3-elf/4.7.0/crtbegin.o
 .toc           0x0000000000045678       0x28 /opt/ps3dev/psl1ght/ppu/lib/librt.a(sbrk.o)
 .toc           0x00000000000456a0        0x8 /opt/ps3dev/ppu/lib/gcc/powerpc64-ps3-elf/4.7.0/crtend.o
 .toc           0x00000000000456a8      0x118 /opt/ps3dev/ppu/lib/gcc/powerpc64-ps3-elf/4.7.0/../../../../powerpc64-ps3-elf/lib/lv2-crt0.o
 .toc           0x00000000000457c0      0x120 main.o
 .toc           0x00000000000458e0       0x30 /opt/ps3dev/psl1ght/ppu/lib/libtiny3d.a(matrix.o)
 .toc           0x0000000000045910      0x4e8 /opt/ps3dev/psl1ght/ppu/lib/libtiny3d.a(tiny3d.o)
 .toc           0x0000000000045df8       0xd8 /opt/ps3dev/psl1ght/ppu/lib/libtiny3d.a(rsxutil.o)
 .toc           0x0000000000045ed0        0x8 /opt/ps3dev/psl1ght/ppu/lib/librsx.a(commands.o)
 .toc           0x0000000000045ed8       0x18 /opt/ps3dev/psl1ght/ppu/lib/librsx.a(mm.o)
 .toc           0x0000000000045ef0       0x10 /opt/ps3dev/psl1ght/ppu/lib/libpngdec.a(pngdec.o)
 .toc           0x0000000000045f00        0x8 /opt/ps3dev/ppu/lib/gcc/powerpc64-ps3-elf/4.7.0/../../../../powerpc64-ps3-elf/lib/libm.a(lib_a-sf_cos.o)
 .toc           0x0000000000045f08        0x8 /opt/ps3dev/ppu/lib/gcc/powerpc64-ps3-elf/4.7.0/../../../../powerpc64-ps3-elf/lib/libm.a(lib_a-sf_sin.o)
 .toc           0x0000000000045f10        0x8 /opt/ps3dev/ppu/lib/gcc/powerpc64-ps3-elf/4.7.0/../../../../powerpc64-ps3-elf/lib/libm.a(lib_a-sf_tan.o)
 .toc           0x0000000000045f18       0x20 /opt/ps3dev/ppu/lib/gcc/powerpc64-ps3-elf/4.7.0/../../../../powerpc64-ps3-elf/lib/libm.a(lib_a-wf_sqrt.o)
 .toc           0x0000000000045f38       0x60 /opt/ps3dev/ppu/lib/gcc/powerpc64-ps3-elf/4.7.0/../../../../powerpc64-ps3-elf/lib/libm.a(lib_a-ef_rem_pio2.o)
 .toc           0x0000000000045f98       0x50 /opt/ps3dev/ppu/lib/gcc/powerpc64-ps3-elf/4.7.0/../../../../powerpc64-ps3-elf/lib/libm.a(lib_a-kf_cos.o)
 .toc           0x0000000000045fe8       0x48 /opt/ps3dev/ppu/lib/gcc/powerpc64-ps3-elf/4.7.0/../../../../powerpc64-ps3-elf/lib/libm.a(lib_a-kf_rem_pio2.o)
 .toc           0x0000000000046030       0x38 /opt/ps3dev/ppu/lib/gcc/powerpc64-ps3-elf/4.7.0/../../../../powerpc64-ps3-elf/lib/libm.a(lib_a-kf_sin.o)
 .toc           0x0000000000046068       0x98 /opt/ps3dev/ppu/lib/gcc/powerpc64-ps3-elf/4.7.0/../../../../powerpc64-ps3-elf/lib/libm.a(lib_a-kf_tan.o)
 .toc           0x0000000000046100       0x10 /opt/ps3dev/ppu/lib/gcc/powerpc64-ps3-elf/4.7.0/../../../../powerpc64-ps3-elf/lib/libm.a(lib_a-sf_floor.o)
 .toc           0x0000000000046110       0x20 /opt/ps3dev/ppu/lib/gcc/powerpc64-ps3-elf/4.7.0/../../../../powerpc64-ps3-elf/lib/libm.a(lib_a-sf_scalbn.o)
 .toc           0x0000000000046130        0x8 /opt/ps3dev/ppu/lib/gcc/powerpc64-ps3-elf/4.7.0/../../../../powerpc64-ps3-elf/lib/libsysbase.a(sleep.o)
 .toc           0x0000000000046138       0x18 /opt/ps3dev/ppu/lib/gcc/powerpc64-ps3-elf/4.7.0/../../../../powerpc64-ps3-elf/lib/libc.a(lib_a-assert.o)
 .toc           0x0000000000046150        0x8 /opt/ps3dev/ppu/lib/gcc/powerpc64-ps3-elf/4.7.0/../../../../powerpc64-ps3-elf/lib/libc.a(lib_a-exit.o)
 .toc           0x0000000000046158        0x8 /opt/ps3dev/ppu/lib/gcc/powerpc64-ps3-elf/4.7.0/../../../../powerpc64-ps3-elf/lib/libc.a(lib_a-getreent.o)
 .toc           0x0000000000046160       0x30 /opt/ps3dev/ppu/lib/gcc/powerpc64-ps3-elf/4.7.0/../../../../powerpc64-ps3-elf/lib/libc.a(lib_a-mallocr.o)
 .toc           0x0000000000046190        0x8 /opt/ps3dev/ppu/lib/gcc/powerpc64-ps3-elf/4.7.0/../../../../powerpc64-ps3-elf/lib/libc.a(lib_a-mlock.o)
 .toc           0x0000000000046198        0x8 /opt/ps3dev/ppu/lib/gcc/powerpc64-ps3-elf/4.7.0/../../../../powerpc64-ps3-elf/lib/libc.a(lib_a-strcasecmp.o)
 .toc           0x00000000000461a0       0x30 /opt/ps3dev/ppu/lib/gcc/powerpc64-ps3-elf/4.7.0/../../../../powerpc64-ps3-elf/lib/libc.a(lib_a-vfiprintf.o)
 .toc           0x00000000000461d0       0x60 /opt/ps3dev/ppu/lib/gcc/powerpc64-ps3-elf/4.7.0/../../../../powerpc64-ps3-elf/lib/libc.a(lib_a-vfprintf.o)
 .toc           0x0000000000046230       0x18 /opt/ps3dev/ppu/lib/gcc/powerpc64-ps3-elf/4.7.0/../../../../powerpc64-ps3-elf/lib/libc.a(lib_a-__atexit.o)
 .toc           0x0000000000046248       0x18 /opt/ps3dev/ppu/lib/gcc/powerpc64-ps3-elf/4.7.0/../../../../powerpc64-ps3-elf/lib/libc.a(lib_a-__call_atexit.o)
 .toc           0x0000000000046260       0x80 /opt/ps3dev/ppu/lib/gcc/powerpc64-ps3-elf/4.7.0/../../../../powerpc64-ps3-elf/lib/libc.a(lib_a-dtoa.o)
 .toc           0x00000000000462e0       0x10 /opt/ps3dev/ppu/lib/gcc/powerpc64-ps3-elf/4.7.0/../../../../powerpc64-ps3-elf/lib/libc.a(lib_a-fflush.o)
 .toc           0x00000000000462f0       0x58 /opt/ps3dev/ppu/lib/gcc/powerpc64-ps3-elf/4.7.0/../../../../powerpc64-ps3-elf/lib/libc.a(lib_a-findfp.o)
 .toc           0x0000000000046348       0x30 /opt/ps3dev/ppu/lib/gcc/powerpc64-ps3-elf/4.7.0/../../../../powerpc64-ps3-elf/lib/libc.a(lib_a-freer.o)
 .toc           0x0000000000046378       0x38 /opt/ps3dev/ppu/lib/gcc/powerpc64-ps3-elf/4.7.0/../../../../powerpc64-ps3-elf/lib/libc.a(lib_a-locale.o)
 .toc           0x00000000000463b0        0x8 /opt/ps3dev/ppu/lib/gcc/powerpc64-ps3-elf/4.7.0/../../../../powerpc64-ps3-elf/lib/libc.a(lib_a-lock_recursive.o)
 .toc           0x00000000000463b8       0x10 /opt/ps3dev/ppu/lib/gcc/powerpc64-ps3-elf/4.7.0/../../../../powerpc64-ps3-elf/lib/libc.a(lib_a-makebuf.o)
 .toc           0x00000000000463c8       0x20 /opt/ps3dev/ppu/lib/gcc/powerpc64-ps3-elf/4.7.0/../../../../powerpc64-ps3-elf/lib/libc.a(lib_a-mprec.o)
 .toc           0x00000000000463e8        0x8 /opt/ps3dev/ppu/lib/gcc/powerpc64-ps3-elf/4.7.0/../../../../powerpc64-ps3-elf/lib/libc.a(lib_a-reallocr.o)
 .toc           0x00000000000463f0        0x8 /opt/ps3dev/ppu/lib/gcc/powerpc64-ps3-elf/4.7.0/../../../../powerpc64-ps3-elf/lib/libc.a(lib_a-wcrtomb.o)
 .toc           0x00000000000463f8        0x8 /opt/ps3dev/ppu/lib/gcc/powerpc64-ps3-elf/4.7.0/../../../../powerpc64-ps3-elf/lib/libc.a(lib_a-wctomb_r.o)
 .toc           0x0000000000046400       0x10 /opt/ps3dev/ppu/lib/gcc/powerpc64-ps3-elf/4.7.0/../../../../powerpc64-ps3-elf/lib/libc.a(lib_a-lock_internal.o)
 .toc           0x0000000000046410        0x8 /opt/ps3dev/psl1ght/ppu/lib/librt.a(open.o)
 .toc           0x0000000000046418        0x8 /opt/ps3dev/psl1ght/ppu/lib/librt.a(socket.o)
 .toc           0x0000000000046420        0x8 /opt/ps3dev/psl1ght/ppu/lib/librt.a(mkdir.o)
 .toc           0x0000000000046428        0x8 /opt/ps3dev/psl1ght/ppu/lib/librt.a(umask.o)
 .toc           0x0000000000046430        0x8 /opt/ps3dev/ppu/lib/gcc/powerpc64-ps3-elf/4.7.0/../../../../powerpc64-ps3-elf/lib/libsysbase.a(close.o)
 .toc           0x0000000000046438        0x8 /opt/ps3dev/ppu/lib/gcc/powerpc64-ps3-elf/4.7.0/../../../../powerpc64-ps3-elf/lib/libsysbase.a(sbrk.o)
 .toc           0x0000000000046440        0x8 /opt/ps3dev/ppu/lib/gcc/powerpc64-ps3-elf/4.7.0/../../../../powerpc64-ps3-elf/lib/libsysbase.a(_exit.o)
 .toc           0x0000000000046448        0x8 /opt/ps3dev/ppu/lib/gcc/powerpc64-ps3-elf/4.7.0/../../../../powerpc64-ps3-elf/lib/libsysbase.a(fstat.o)
 .toc           0x0000000000046450        0x8 /opt/ps3dev/ppu/lib/gcc/powerpc64-ps3-elf/4.7.0/../../../../powerpc64-ps3-elf/lib/libsysbase.a(isatty.o)
 .toc           0x0000000000046458        0x8 /opt/ps3dev/ppu/lib/gcc/powerpc64-ps3-elf/4.7.0/../../../../powerpc64-ps3-elf/lib/libsysbase.a(lseek.o)
 .toc           0x0000000000046460        0x8 /opt/ps3dev/ppu/lib/gcc/powerpc64-ps3-elf/4.7.0/../../../../powerpc64-ps3-elf/lib/libsysbase.a(read.o)
 .toc           0x0000000000046468        0x8 /opt/ps3dev/ppu/lib/gcc/powerpc64-ps3-elf/4.7.0/../../../../powerpc64-ps3-elf/lib/libsysbase.a(write.o)
 .toc           0x0000000000046470        0x8 /opt/ps3dev/ppu/lib/gcc/powerpc64-ps3-elf/4.7.0/../../../../powerpc64-ps3-elf/lib/libsysbase.a(lock.o)
 .toc           0x0000000000046478        0x8 /opt/ps3dev/ppu/lib/gcc/powerpc64-ps3-elf/4.7.0/../../../../powerpc64-ps3-elf/lib/libsysbase.a(getpid.o)
 .toc           0x0000000000046480        0x8 /opt/ps3dev/ppu/lib/gcc/powerpc64-ps3-elf/4.7.0/../../../../powerpc64-ps3-elf/lib/libc.a(lib_a-sscanf.o)
 .toc           0x0000000000046488       0x40 /opt/ps3dev/ppu/lib/gcc/powerpc64-ps3-elf/4.7.0/../../../../powerpc64-ps3-elf/lib/libc.a(lib_a-svfscanf.o)
 .toc           0x00000000000464c8        0x8 /opt/ps3dev/ppu/lib/gcc/powerpc64-ps3-elf/4.7.0/../../../../powerpc64-ps3-elf/lib/libc.a(lib_a-iswspace.o)
 .toc           0x00000000000464d0       0x10 /opt/ps3dev/ppu/lib/gcc/powerpc64-ps3-elf/4.7.0/../../../../powerpc64-ps3-elf/lib/libc.a(lib_a-mbrtowc.o)
 .toc           0x00000000000464e0        0x8 /opt/ps3dev/ppu/lib/gcc/powerpc64-ps3-elf/4.7.0/../../../../powerpc64-ps3-elf/lib/libc.a(lib_a-mbtowc_r.o)
 .toc           0x00000000000464e8        0x8 /opt/ps3dev/ppu/lib/gcc/powerpc64-ps3-elf/4.7.0/../../../../powerpc64-ps3-elf/lib/libc.a(lib_a-sf_nan.o)
 .toc           0x00000000000464f0       0xb0 /opt/ps3dev/ppu/lib/gcc/powerpc64-ps3-elf/4.7.0/../../../../powerpc64-ps3-elf/lib/libc.a(lib_a-strtod.o)
 .toc           0x00000000000465a0        0x8 /opt/ps3dev/ppu/lib/gcc/powerpc64-ps3-elf/4.7.0/../../../../powerpc64-ps3-elf/lib/libc.a(lib_a-strtoll_r.o)
 .toc           0x00000000000465a8        0x8 /opt/ps3dev/ppu/lib/gcc/powerpc64-ps3-elf/4.7.0/../../../../powerpc64-ps3-elf/lib/libc.a(lib_a-strtol.o)
 .toc           0x00000000000465b0        0x8 /opt/ps3dev/ppu/lib/gcc/powerpc64-ps3-elf/4.7.0/../../../../powerpc64-ps3-elf/lib/libc.a(lib_a-strtoull_r.o)
 .toc           0x00000000000465b8        0x8 /opt/ps3dev/ppu/lib/gcc/powerpc64-ps3-elf/4.7.0/../../../../powerpc64-ps3-elf/lib/libc.a(lib_a-strtoul.o)
 .toc           0x00000000000465c0       0x30 /opt/ps3dev/ppu/lib/gcc/powerpc64-ps3-elf/4.7.0/../../../../powerpc64-ps3-elf/lib/libc.a(lib_a-svfiscanf.o)
 .toc           0x00000000000465f0       0x60 /opt/ps3dev/ppu/lib/gcc/powerpc64-ps3-elf/4.7.0/../../../../powerpc64-ps3-elf/lib/libc.a(lib_a-svfprintf.o)
 .toc           0x0000000000046650       0x20 /opt/ps3dev/ppu/lib/gcc/powerpc64-ps3-elf/4.7.0/../../../../powerpc64-ps3-elf/lib/libc.a(lib_a-gdtoa-gethex.o)
 .toc           0x0000000000046670        0x8 /opt/ps3dev/ppu/lib/gcc/powerpc64-ps3-elf/4.7.0/../../../../powerpc64-ps3-elf/lib/libc.a(lib_a-gdtoa-hexnan.o)
 .toc           0x0000000000046678       0x30 /opt/ps3dev/ppu/lib/gcc/powerpc64-ps3-elf/4.7.0/../../../../powerpc64-ps3-elf/lib/libc.a(lib_a-svfiprintf.o)
 .toc           0x00000000000466a8        0x0 /opt/ps3dev/psl1ght/ppu/lib/libtiny3d.a(realityVP.o)
 .got           0x00000000000466a8        0x0 /opt/ps3dev/psl1ght/ppu/lib/libsysmodule.a(sprx.o)
 .got           0x00000000000466a8        0x0 /opt/ps3dev/psl1ght/ppu/lib/libgcm_sys.a(sprx.o)
 .toc           0x00000000000466a8        0x0 /opt/ps3dev/psl1ght/ppu/lib/librsx.a(init.o)
 .toc           0x00000000000466a8        0x0 /opt/ps3dev/psl1ght/ppu/lib/librsx.a(buffer.o)
 .toc           0x00000000000466a8        0x0 /opt/ps3dev/psl1ght/ppu/lib/librsx.a(vertex_program.o)
 .toc           0x00000000000466a8        0x0 /opt/ps3dev/psl1ght/ppu/lib/librsx.a(fragment_program.o)
 .got           0x00000000000466a8        0x0 /opt/ps3dev/psl1ght/ppu/lib/libsysutil.a(sprx.o)
 .toc           0x00000000000466a8        0x0 /opt/ps3dev/psl1ght/ppu/lib/libsysutil.a(sysutil_wrapper.o)
 .got           0x00000000000466a8        0x0 /opt/ps3dev/psl1ght/ppu/lib/libio.a(sprx.o)
 .got           0x00000000000466a8        0x0 /opt/ps3dev/psl1ght/ppu/lib/libpngdec.a(sprx.o)
 .toc           0x00000000000466a8        0x0 /opt/ps3dev/ppu/lib/gcc/powerpc64-ps3-elf/4.7.0/../../../../powerpc64-ps3-elf/lib/libm.a(lib_a-ef_sqrt.o)
 .toc           0x00000000000466a8        0x0 /opt/ps3dev/ppu/lib/gcc/powerpc64-ps3-elf/4.7.0/../../../../powerpc64-ps3-elf/lib/libm.a(lib_a-sf_fabs.o)
 .toc           0x00000000000466a8        0x0 /opt/ps3dev/ppu/lib/gcc/powerpc64-ps3-elf/4.7.0/../../../../powerpc64-ps3-elf/lib/libm.a(lib_a-sf_fpclassify.o)
 .toc           0x00000000000466a8        0x0 /opt/ps3dev/ppu/lib/gcc/powerpc64-ps3-elf/4.7.0/../../../../powerpc64-ps3-elf/lib/libm.a(lib_a-s_lib_ver.o)
 .toc           0x00000000000466a8        0x0 /opt/ps3dev/ppu/lib/gcc/powerpc64-ps3-elf/4.7.0/../../../../powerpc64-ps3-elf/lib/libm.a(lib_a-s_matherr.o)
 .toc           0x00000000000466a8        0x0 /opt/ps3dev/ppu/lib/gcc/powerpc64-ps3-elf/4.7.0/../../../../powerpc64-ps3-elf/lib/libm.a(lib_a-sf_copysign.o)
 .toc           0x00000000000466a8        0x0 /opt/ps3dev/ppu/lib/gcc/powerpc64-ps3-elf/4.7.0/../../../../powerpc64-ps3-elf/lib/libsysbase.a(syscalls.o)
 .toc           0x00000000000466a8        0x0 /opt/ps3dev/ppu/lib/gcc/powerpc64-ps3-elf/4.7.0/../../../../powerpc64-ps3-elf/lib/libc.a(lib_a-atexit.o)
 .toc           0x00000000000466a8        0x0 /opt/ps3dev/ppu/lib/gcc/powerpc64-ps3-elf/4.7.0/../../../../powerpc64-ps3-elf/lib/libc.a(lib_a-errno.o)
 .toc           0x00000000000466a8        0x0 /opt/ps3dev/ppu/lib/gcc/powerpc64-ps3-elf/4.7.0/../../../../powerpc64-ps3-elf/lib/libc.a(lib_a-fiprintf.o)
 .toc           0x00000000000466a8        0x0 /opt/ps3dev/ppu/lib/gcc/powerpc64-ps3-elf/4.7.0/../../../../powerpc64-ps3-elf/lib/libc.a(lib_a-impure.o)
 .toc           0x00000000000466a8        0x0 /opt/ps3dev/ppu/lib/gcc/powerpc64-ps3-elf/4.7.0/../../../../powerpc64-ps3-elf/lib/libc.a(lib_a-malign.o)
 .toc           0x00000000000466a8        0x0 /opt/ps3dev/ppu/lib/gcc/powerpc64-ps3-elf/4.7.0/../../../../powerpc64-ps3-elf/lib/libc.a(lib_a-malignr.o)
 .toc           0x00000000000466a8        0x0 /opt/ps3dev/ppu/lib/gcc/powerpc64-ps3-elf/4.7.0/../../../../powerpc64-ps3-elf/lib/libc.a(lib_a-malloc.o)
 .toc           0x00000000000466a8        0x0 /opt/ps3dev/ppu/lib/gcc/powerpc64-ps3-elf/4.7.0/../../../../powerpc64-ps3-elf/lib/libc.a(lib_a-memcpy.o)
 .toc           0x00000000000466a8        0x0 /opt/ps3dev/ppu/lib/gcc/powerpc64-ps3-elf/4.7.0/../../../../powerpc64-ps3-elf/lib/libc.a(lib_a-memset.o)
 .toc           0x00000000000466a8        0x0 /opt/ps3dev/ppu/lib/gcc/powerpc64-ps3-elf/4.7.0/../../../../powerpc64-ps3-elf/lib/libc.a(lib_a-printf.o)
 .toc           0x00000000000466a8        0x0 /opt/ps3dev/ppu/lib/gcc/powerpc64-ps3-elf/4.7.0/../../../../powerpc64-ps3-elf/lib/libc.a(lib_a-rand.o)
 .toc           0x00000000000466a8        0x0 /opt/ps3dev/ppu/lib/gcc/powerpc64-ps3-elf/4.7.0/../../../../powerpc64-ps3-elf/lib/libc.a(lib_a-wsetup.o)
 .toc           0x00000000000466a8        0x0 /opt/ps3dev/ppu/lib/gcc/powerpc64-ps3-elf/4.7.0/../../../../powerpc64-ps3-elf/lib/libc.a(lib_a-abort.o)
 .toc           0x00000000000466a8        0x0 /opt/ps3dev/ppu/lib/gcc/powerpc64-ps3-elf/4.7.0/../../../../powerpc64-ps3-elf/lib/libc.a(lib_a-ctype_.o)
 .toc           0x00000000000466a8        0x0 /opt/ps3dev/ppu/lib/gcc/powerpc64-ps3-elf/4.7.0/../../../../powerpc64-ps3-elf/lib/libc.a(lib_a-fputwc.o)
 .toc           0x00000000000466a8        0x0 /opt/ps3dev/ppu/lib/gcc/powerpc64-ps3-elf/4.7.0/../../../../powerpc64-ps3-elf/lib/libc.a(lib_a-fvwrite.o)
 .toc           0x00000000000466a8        0x0 /opt/ps3dev/ppu/lib/gcc/powerpc64-ps3-elf/4.7.0/../../../../powerpc64-ps3-elf/lib/libc.a(lib_a-fwalk.o)
 .toc           0x00000000000466a8        0x0 /opt/ps3dev/ppu/lib/gcc/powerpc64-ps3-elf/4.7.0/../../../../powerpc64-ps3-elf/lib/libc.a(lib_a-memchr.o)
 .toc           0x00000000000466a8        0x0 /opt/ps3dev/ppu/lib/gcc/powerpc64-ps3-elf/4.7.0/../../../../powerpc64-ps3-elf/lib/libc.a(lib_a-memmove.o)
 .toc           0x00000000000466a8        0x0 /opt/ps3dev/ppu/lib/gcc/powerpc64-ps3-elf/4.7.0/../../../../powerpc64-ps3-elf/lib/libc.a(lib_a-s_fpclassify.o)
 .toc           0x00000000000466a8        0x0 /opt/ps3dev/ppu/lib/gcc/powerpc64-ps3-elf/4.7.0/../../../../powerpc64-ps3-elf/lib/libc.a(lib_a-signal.o)
 .toc           0x00000000000466a8        0x0 /opt/ps3dev/ppu/lib/gcc/powerpc64-ps3-elf/4.7.0/../../../../powerpc64-ps3-elf/lib/libc.a(lib_a-stdio.o)
 .toc           0x00000000000466a8        0x0 /opt/ps3dev/ppu/lib/gcc/powerpc64-ps3-elf/4.7.0/../../../../powerpc64-ps3-elf/lib/libc.a(lib_a-strcmp.o)
 .toc           0x00000000000466a8        0x0 /opt/ps3dev/ppu/lib/gcc/powerpc64-ps3-elf/4.7.0/../../../../powerpc64-ps3-elf/lib/libc.a(lib_a-strlen.o)
 .toc           0x00000000000466a8        0x0 /opt/ps3dev/ppu/lib/gcc/powerpc64-ps3-elf/4.7.0/../../../../powerpc64-ps3-elf/lib/libc.a(lib_a-wbuf.o)
 .toc           0x00000000000466a8        0x0 /opt/ps3dev/ppu/lib/gcc/powerpc64-ps3-elf/4.7.0/../../../../powerpc64-ps3-elf/lib/libc.a(lib_a-callocr.o)
 .toc           0x00000000000466a8        0x0 /opt/ps3dev/ppu/lib/gcc/powerpc64-ps3-elf/4.7.0/../../../../powerpc64-ps3-elf/lib/libc.a(lib_a-fclose.o)
 .toc           0x00000000000466a8        0x0 /opt/ps3dev/psl1ght/ppu/lib/librt.a(exit.o)
 .toc           0x00000000000466a8        0x0 /opt/ps3dev/psl1ght/ppu/lib/librt.a(close.o)
 .toc           0x00000000000466a8        0x0 /opt/ps3dev/psl1ght/ppu/lib/librt.a(lseek.o)
 .toc           0x00000000000466a8        0x0 /opt/ps3dev/psl1ght/ppu/lib/librt.a(read.o)
 .toc           0x00000000000466a8        0x0 /opt/ps3dev/psl1ght/ppu/lib/librt.a(sleep.o)
 .toc           0x00000000000466a8        0x0 /opt/ps3dev/psl1ght/ppu/lib/librt.a(write.o)
 .toc           0x00000000000466a8        0x0 /opt/ps3dev/psl1ght/ppu/lib/librt.a(fstat.o)
 .toc           0x00000000000466a8        0x0 /opt/ps3dev/psl1ght/ppu/lib/librt.a(lock.o)
 .toc           0x00000000000466a8        0x0 /opt/ps3dev/psl1ght/ppu/lib/librt.a(dirent.o)
 .toc           0x00000000000466a8        0x0 /opt/ps3dev/psl1ght/ppu/lib/librt.a(times.o)
 .toc           0x00000000000466a8        0x0 /opt/ps3dev/psl1ght/ppu/lib/librt.a(lv2errno.o)
 .toc           0x00000000000466a8        0x0 /opt/ps3dev/psl1ght/ppu/lib/librt.a(heap.o)
 .toc           0x00000000000466a8        0x0 /opt/ps3dev/psl1ght/ppu/lib/librt.a(chmod.o)
 .toc           0x00000000000466a8        0x0 /opt/ps3dev/psl1ght/ppu/lib/librt.a(rmdir.o)
 .toc           0x00000000000466a8        0x0 /opt/ps3dev/psl1ght/ppu/lib/librt.a(isatty.o)
 .toc           0x00000000000466a8        0x0 /opt/ps3dev/psl1ght/ppu/lib/librt.a(gettod.o)
 .toc           0x00000000000466a8        0x0 /opt/ps3dev/psl1ght/ppu/lib/librt.a(settod.o)
 .got           0x00000000000466a8        0x0 /opt/ps3dev/psl1ght/ppu/lib/liblv2.a(sprx.o)
 .toc           0x00000000000466a8        0x0 /opt/ps3dev/ppu/lib/gcc/powerpc64-ps3-elf/4.7.0/../../../../powerpc64-ps3-elf/lib/libsysbase.a(kill.o)
 .toc           0x00000000000466a8        0x0 /opt/ps3dev/ppu/lib/gcc/powerpc64-ps3-elf/4.7.0/../../../../powerpc64-ps3-elf/lib/libc.a(lib_a-strncpy.o)
 .toc           0x00000000000466a8        0x0 /opt/ps3dev/ppu/lib/gcc/powerpc64-ps3-elf/4.7.0/../../../../powerpc64-ps3-elf/lib/libc.a(lib_a-sccl.o)
 .toc           0x00000000000466a8        0x0 /opt/ps3dev/ppu/lib/gcc/powerpc64-ps3-elf/4.7.0/../../../../powerpc64-ps3-elf/lib/libc.a(lib_a-sprintf.o)
 .toc           0x00000000000466a8        0x0 /opt/ps3dev/ppu/lib/gcc/powerpc64-ps3-elf/4.7.0/../../../../powerpc64-ps3-elf/lib/libc.a(lib_a-ungetc.o)
 .toc           0x00000000000466a8        0x0 /opt/ps3dev/ppu/lib/gcc/powerpc64-ps3-elf/4.7.0/../../../../powerpc64-ps3-elf/lib/libc.a(lib_a-strncmp.o)

.toc.sceStub
 *(.toc.sceStub)
 *(SORT(.toc.sceStub.*))

.tdata
 *(.tdata .tdata.* .gnu.linkonce.td.*)

.tbss           0x00000000000466a8      0x780
 *(.tbss .tbss.* .gnu.linkonce.tb.*)
 .tbss.t_reent  0x00000000000466a8      0x778 /opt/ps3dev/ppu/lib/gcc/powerpc64-ps3-elf/4.7.0/../../../../powerpc64-ps3-elf/lib/libc.a(lib_a-getreent.o)
 .tbss.t_reentp
                0x0000000000046e20        0x8 /opt/ps3dev/ppu/lib/gcc/powerpc64-ps3-elf/4.7.0/../../../../powerpc64-ps3-elf/lib/libc.a(lib_a-getreent.o)
 *(.tcommon)
                0x0000000010000000                . = ALIGN (0x10000000)

.rodata         0x0000000010000000     0x2ee8
 *(.rodata .rodata.* .gnu.linkonce.r.*)
 .rodata        0x0000000010000000       0x18 /opt/ps3dev/ppu/lib/gcc/powerpc64-ps3-elf/4.7.0/../../../../powerpc64-ps3-elf/lib/lv2-crt0.o
                0x0000000010000000                _start
 *fill*         0x0000000010000018       0x28 00
 .rodata        0x0000000010000040      0x123 ghost1_png.bin.o
                0x0000000010000040                ghost1_png_bin
                0x000000001000015f                ghost1_png_bin_end
                0x000000001000015f                ghost1_png_bin_size
 *fill*         0x0000000010000163       0x1d 00
 .rodata        0x0000000010000180      0x12e ghost2_png.bin.o
                0x0000000010000180                ghost2_png_bin
                0x00000000100002aa                ghost2_png_bin_size
                0x00000000100002aa                ghost2_png_bin_end
 *fill*         0x00000000100002ae       0x12 00
 .rodata        0x00000000100002c0      0x125 ghost3_png.bin.o
                0x00000000100002c0                ghost3_png_bin
                0x00000000100003e1                ghost3_png_bin_end
                0x00000000100003e1                ghost3_png_bin_size
 *fill*         0x00000000100003e5       0x1b 00
 .rodata        0x0000000010000400      0x126 ghost4_png.bin.o
                0x0000000010000400                ghost4_png_bin
                0x0000000010000522                ghost4_png_bin_size
                0x0000000010000522                ghost4_png_bin_end
 *fill*         0x0000000010000526       0x1a 00
 .rodata        0x0000000010000540      0x11c ghost5_png.bin.o
                0x0000000010000540                ghost5_png_bin
                0x0000000010000658                ghost5_png_bin_size
                0x0000000010000658                ghost5_png_bin_end
 *fill*         0x000000001000065c       0x24 00
 .rodata        0x0000000010000680      0x12f ghost6_png.bin.o
                0x0000000010000680                ghost6_png_bin
                0x00000000100007ab                ghost6_png_bin_size
                0x00000000100007ab                ghost6_png_bin_end
 *fill*         0x00000000100007af       0x11 00
 .rodata        0x00000000100007c0      0x129 ghost7_png.bin.o
                0x00000000100007c0                ghost7_png_bin
                0x00000000100008e5                ghost7_png_bin_size
                0x00000000100008e5                ghost7_png_bin_end
 *fill*         0x00000000100008e9       0x17 00
 .rodata        0x0000000010000900      0x129 ghost8_png.bin.o
                0x0000000010000900                ghost8_png_bin
                0x0000000010000a25                ghost8_png_bin_end
                0x0000000010000a25                ghost8_png_bin_size
 *fill*         0x0000000010000a29        0x3 00
 .rodata.cst4   0x0000000010000a2c       0x30 main.o
 .rodata.cst4   0x0000000010000a5c       0x10 /opt/ps3dev/psl1ght/ppu/lib/libtiny3d.a(matrix.o)
                                         0x14 (size before relaxing)
 .rodata.matrix_ident
                0x0000000010000a6c       0x40 /opt/ps3dev/psl1ght/ppu/lib/libtiny3d.a(matrix.o)
 *fill*         0x0000000010000aac        0x4 00
 .rodata.__FUNCTION__.5262
                0x0000000010000ab0       0x1d /opt/ps3dev/psl1ght/ppu/lib/libtiny3d.a(tiny3d.o)
 *fill*         0x0000000010000acd        0x3 00
 .rodata.__FUNCTION__.5267
                0x0000000010000ad0       0x1a /opt/ps3dev/psl1ght/ppu/lib/libtiny3d.a(tiny3d.o)
 *fill*         0x0000000010000aea        0x6 00
 .rodata.__FUNCTION__.5091
                0x0000000010000af0       0x1f /opt/ps3dev/psl1ght/ppu/lib/libtiny3d.a(tiny3d.o)
 *fill*         0x0000000010000b0f        0x1 00
 .rodata.__FUNCTION__.5096
                0x0000000010000b10       0x24 /opt/ps3dev/psl1ght/ppu/lib/libtiny3d.a(tiny3d.o)
 *fill*         0x0000000010000b34        0x4 00
 .rodata.__FUNCTION__.5126
                0x0000000010000b38       0x24 /opt/ps3dev/psl1ght/ppu/lib/libtiny3d.a(tiny3d.o)
 *fill*         0x0000000010000b5c        0x4 00
 .rodata.__FUNCTION__.5335
                0x0000000010000b60       0x21 /opt/ps3dev/psl1ght/ppu/lib/libtiny3d.a(tiny3d.o)
 *fill*         0x0000000010000b81        0x7 00
 .rodata.__FUNCTION__.5163
                0x0000000010000b88       0x1c /opt/ps3dev/psl1ght/ppu/lib/libtiny3d.a(tiny3d.o)
 *fill*         0x0000000010000ba4        0x4 00
 .rodata.__FUNCTION__.5234
                0x0000000010000ba8       0x23 /opt/ps3dev/psl1ght/ppu/lib/libtiny3d.a(tiny3d.o)
 *fill*         0x0000000010000bcb        0x5 00
 .rodata.__FUNCTION__.5272
                0x0000000010000bd0       0x1b /opt/ps3dev/psl1ght/ppu/lib/libtiny3d.a(tiny3d.o)
 *fill*         0x0000000010000beb        0x1 00
 .rodata.offset_cmds
                0x0000000010000bec       0x14 /opt/ps3dev/psl1ght/ppu/lib/libtiny3d.a(tiny3d.o)
 .rodata.__FUNCTION__.5305
                0x0000000010000c00       0x2b /opt/ps3dev/psl1ght/ppu/lib/libtiny3d.a(tiny3d.o)
 *fill*         0x0000000010000c2b        0x5 00
 .rodata.__FUNCTION__.5133
                0x0000000010000c30       0x1a /opt/ps3dev/psl1ght/ppu/lib/libtiny3d.a(tiny3d.o)
 *fill*         0x0000000010000c4a        0x6 00
 .rodata.__FUNCTION__.5340
                0x0000000010000c50       0x1f /opt/ps3dev/psl1ght/ppu/lib/libtiny3d.a(tiny3d.o)
 *fill*         0x0000000010000c6f        0x1 00
 .rodata.__FUNCTION__.5345
                0x0000000010000c70       0x22 /opt/ps3dev/psl1ght/ppu/lib/libtiny3d.a(tiny3d.o)
 *fill*         0x0000000010000c92        0x6 00
 .rodata.__FUNCTION__.5170
                0x0000000010000c98       0x27 /opt/ps3dev/psl1ght/ppu/lib/libtiny3d.a(tiny3d.o)
 *fill*         0x0000000010000cbf        0x1 00
 .rodata.__FUNCTION__.5252
                0x0000000010000cc0       0x1b /opt/ps3dev/psl1ght/ppu/lib/libtiny3d.a(tiny3d.o)
 *fill*         0x0000000010000cdb        0x1 00
 .rodata.dma_cmds
                0x0000000010000cdc       0x14 /opt/ps3dev/psl1ght/ppu/lib/libtiny3d.a(tiny3d.o)
 .rodata.__FUNCTION__.5554
                0x0000000010000cf0       0x28 /opt/ps3dev/psl1ght/ppu/lib/libtiny3d.a(tiny3d.o)
 .rodata.__FUNCTION__.5242
                0x0000000010000d18       0x1f /opt/ps3dev/psl1ght/ppu/lib/libtiny3d.a(tiny3d.o)
 *fill*         0x0000000010000d37        0x1 00
 .rodata.__FUNCTION__.5247
                0x0000000010000d38       0x1a /opt/ps3dev/psl1ght/ppu/lib/libtiny3d.a(tiny3d.o)
 *fill*         0x0000000010000d52        0x6 00
 .rodata.__FUNCTION__.5100
                0x0000000010000d58       0x15 /opt/ps3dev/psl1ght/ppu/lib/libtiny3d.a(tiny3d.o)
 *fill*         0x0000000010000d6d        0x3 00
 .rodata.__FUNCTION__.5105
                0x0000000010000d70       0x1e /opt/ps3dev/psl1ght/ppu/lib/libtiny3d.a(tiny3d.o)
 *fill*         0x0000000010000d8e        0x2 00
 .rodata.__FUNCTION__.5282
                0x0000000010000d90       0x1f /opt/ps3dev/psl1ght/ppu/lib/libtiny3d.a(tiny3d.o)
 *fill*         0x0000000010000daf        0x1 00
 .rodata.__FUNCTION__.5312
                0x0000000010000db0       0x22 /opt/ps3dev/psl1ght/ppu/lib/libtiny3d.a(tiny3d.o)
 *fill*         0x0000000010000dd2        0x6 00
 .rodata.__FUNCTION__.5288
                0x0000000010000dd8       0x1b /opt/ps3dev/psl1ght/ppu/lib/libtiny3d.a(tiny3d.o)
 *fill*         0x0000000010000df3        0x5 00
 .rodata.str1.8
                0x0000000010000df8      0x39d /opt/ps3dev/psl1ght/ppu/lib/libtiny3d.a(tiny3d.o)
 *fill*         0x0000000010001195        0x3 00
 .rodata.cst4   0x0000000010001198       0x48 /opt/ps3dev/psl1ght/ppu/lib/libtiny3d.a(tiny3d.o)
                                         0x60 (size before relaxing)
 .rodata.__FUNCTION__.5182
                0x00000000100011e0       0x23 /opt/ps3dev/psl1ght/ppu/lib/libtiny3d.a(tiny3d.o)
 *fill*         0x0000000010001203        0x5 00
 .rodata.__FUNCTION__.5215
                0x0000000010001208       0x28 /opt/ps3dev/psl1ght/ppu/lib/libtiny3d.a(tiny3d.o)
 .rodata.__FUNCTION__.5277
                0x0000000010001230       0x1d /opt/ps3dev/psl1ght/ppu/lib/libtiny3d.a(tiny3d.o)
 *fill*         0x000000001000124d        0x3 00
 .rodata.fpshader_list
                0x0000000010001250       0x70 /opt/ps3dev/psl1ght/ppu/lib/libtiny3d.a(tiny3d.o)
 .rodata.__FUNCTION__.5257
                0x00000000100012c0       0x1c /opt/ps3dev/psl1ght/ppu/lib/libtiny3d.a(tiny3d.o)
 *fill*         0x00000000100012dc        0x4 00
 .rodata.__FUNCTION__.5149
                0x00000000100012e0       0x1b /opt/ps3dev/psl1ght/ppu/lib/libtiny3d.a(tiny3d.o)
 *fill*         0x00000000100012fb        0x5 00
 .rodata.__FUNCTION__.5116
                0x0000000010001300       0x22 /opt/ps3dev/psl1ght/ppu/lib/libtiny3d.a(tiny3d.o)
 *fill*         0x0000000010001322        0x6 00
 .rodata.__FUNCTION__.5295
                0x0000000010001328       0x1a /opt/ps3dev/psl1ght/ppu/lib/libtiny3d.a(tiny3d.o)
 *fill*         0x0000000010001342        0x2 00
 .rodata.pitch_cmds
                0x0000000010001344       0x14 /opt/ps3dev/psl1ght/ppu/lib/libtiny3d.a(tiny3d.o)
 .rodata.__FUNCTION__.5326
                0x0000000010001358       0x27 /opt/ps3dev/psl1ght/ppu/lib/libtiny3d.a(tiny3d.o)
 *fill*         0x000000001000137f        0x1 00
 .rodata.__FUNCTION__.5157
                0x0000000010001380       0x1a /opt/ps3dev/psl1ght/ppu/lib/libtiny3d.a(tiny3d.o)
 *fill*         0x000000001000139a        0x6 00
 .rodata.__FUNCTION__.5140
                0x00000000100013a0       0x1e /opt/ps3dev/psl1ght/ppu/lib/libtiny3d.a(tiny3d.o)
 *fill*         0x00000000100013be        0x2 00
 .rodata.__FUNCTION__.5220
                0x00000000100013c0       0x25 /opt/ps3dev/psl1ght/ppu/lib/libtiny3d.a(tiny3d.o)
 *fill*         0x00000000100013e5        0x3 00
 .rodata.__FUNCTION__.5195
                0x00000000100013e8       0x2c /opt/ps3dev/psl1ght/ppu/lib/libtiny3d.a(tiny3d.o)
 *fill*         0x0000000010001414        0x4 00
 .rodata.__FUNCTION__.5739
                0x0000000010001418       0x15 /opt/ps3dev/psl1ght/ppu/lib/libtiny3d.a(tiny3d.o)
 *fill*         0x000000001000142d        0x3 00
 .rodata.__FUNCTION__.5226
                0x0000000010001430       0x1c /opt/ps3dev/psl1ght/ppu/lib/libtiny3d.a(tiny3d.o)
 *fill*         0x000000001000144c        0x4 00
 .rodata.__FUNCTION__.5145
                0x0000000010001450       0x1d /opt/ps3dev/psl1ght/ppu/lib/libtiny3d.a(tiny3d.o)
 .rodata        0x000000001000146d      0xe00 /opt/ps3dev/psl1ght/ppu/lib/libtiny3d.a(vshader_text_normal.vcg.o)
                0x000000001000146d                vshader_text_normal_bin
 *fill*         0x000000001000226d        0x3 00
 .rodata.str1.8
                0x0000000010002270      0x31d /opt/ps3dev/psl1ght/ppu/lib/libtiny3d.a(rsxutil.o)
 *fill*         0x000000001000258d        0x3 00
 .rodata.__FUNCTION__.4943
                0x0000000010002590        0xc /opt/ps3dev/psl1ght/ppu/lib/libtiny3d.a(rsxutil.o)
 *fill*         0x000000001000259c        0x4 00
 .rodata.__FUNCTION__.4956
                0x00000000100025a0        0x5 /opt/ps3dev/psl1ght/ppu/lib/libtiny3d.a(rsxutil.o)
 .rodata.cst4   0x0000000000000000        0x4 /opt/ps3dev/ppu/lib/gcc/powerpc64-ps3-elf/4.7.0/../../../../powerpc64-ps3-elf/lib/libm.a(lib_a-sf_cos.o)
 .rodata.cst4   0x0000000000000000        0x4 /opt/ps3dev/ppu/lib/gcc/powerpc64-ps3-elf/4.7.0/../../../../powerpc64-ps3-elf/lib/libm.a(lib_a-sf_sin.o)
 .rodata.cst4   0x0000000000000000        0x4 /opt/ps3dev/ppu/lib/gcc/powerpc64-ps3-elf/4.7.0/../../../../powerpc64-ps3-elf/lib/libm.a(lib_a-sf_tan.o)
 .rodata.cst4   0x0000000000000000        0x4 /opt/ps3dev/ppu/lib/gcc/powerpc64-ps3-elf/4.7.0/../../../../powerpc64-ps3-elf/lib/libm.a(lib_a-wf_sqrt.o)
 *fill*         0x00000000100025a5        0x3 00
 .rodata.cst8   0x00000000100025a8        0x8 /opt/ps3dev/ppu/lib/gcc/powerpc64-ps3-elf/4.7.0/../../../../powerpc64-ps3-elf/lib/libm.a(lib_a-wf_sqrt.o)
 .rodata.str1.8
                0x00000000100025b0        0x6 /opt/ps3dev/ppu/lib/gcc/powerpc64-ps3-elf/4.7.0/../../../../powerpc64-ps3-elf/lib/libm.a(lib_a-wf_sqrt.o)
 *fill*         0x00000000100025b6        0x2 00
 .rodata.cst4   0x00000000100025b8       0x20 /opt/ps3dev/ppu/lib/gcc/powerpc64-ps3-elf/4.7.0/../../../../powerpc64-ps3-elf/lib/libm.a(lib_a-ef_rem_pio2.o)
                                         0x28 (size before relaxing)
 .rodata.npio2_hw
                0x00000000100025d8       0x80 /opt/ps3dev/ppu/lib/gcc/powerpc64-ps3-elf/4.7.0/../../../../powerpc64-ps3-elf/lib/libm.a(lib_a-ef_rem_pio2.o)
 .rodata.two_over_pi
                0x0000000010002658      0x318 /opt/ps3dev/ppu/lib/gcc/powerpc64-ps3-elf/4.7.0/../../../../powerpc64-ps3-elf/lib/libm.a(lib_a-ef_rem_pio2.o)
 .rodata.cst4   0x0000000010002970       0x20 /opt/ps3dev/ppu/lib/gcc/powerpc64-ps3-elf/4.7.0/../../../../powerpc64-ps3-elf/lib/libm.a(lib_a-kf_cos.o)
                                         0x28 (size before relaxing)
 .rodata.cst4   0x0000000010002990        0xc /opt/ps3dev/ppu/lib/gcc/powerpc64-ps3-elf/4.7.0/../../../../powerpc64-ps3-elf/lib/libm.a(lib_a-kf_rem_pio2.o)
                                         0x1c (size before relaxing)
 .rodata.init_jk
                0x000000001000299c        0xc /opt/ps3dev/ppu/lib/gcc/powerpc64-ps3-elf/4.7.0/../../../../powerpc64-ps3-elf/lib/libm.a(lib_a-kf_rem_pio2.o)
 .rodata.PIo2   0x00000000100029a8       0x2c /opt/ps3dev/ppu/lib/gcc/powerpc64-ps3-elf/4.7.0/../../../../powerpc64-ps3-elf/lib/libm.a(lib_a-kf_rem_pio2.o)
 .rodata.cst4   0x00000000100029d4       0x18 /opt/ps3dev/ppu/lib/gcc/powerpc64-ps3-elf/4.7.0/../../../../powerpc64-ps3-elf/lib/libm.a(lib_a-kf_sin.o)
                                         0x1c (size before relaxing)
 .rodata.cst4   0x00000000100029ec       0x44 /opt/ps3dev/ppu/lib/gcc/powerpc64-ps3-elf/4.7.0/../../../../powerpc64-ps3-elf/lib/libm.a(lib_a-kf_tan.o)
                                         0x4c (size before relaxing)
 .rodata.cst4   0x0000000010002a30        0x4 /opt/ps3dev/ppu/lib/gcc/powerpc64-ps3-elf/4.7.0/../../../../powerpc64-ps3-elf/lib/libm.a(lib_a-sf_floor.o)
                                          0x8 (size before relaxing)
 .rodata.cst4   0x0000000010002a34        0xc /opt/ps3dev/ppu/lib/gcc/powerpc64-ps3-elf/4.7.0/../../../../powerpc64-ps3-elf/lib/libm.a(lib_a-sf_scalbn.o)
                                         0x10 (size before relaxing)
 .rodata.str1.8
                0x0000000010002a40       0x3f /opt/ps3dev/ppu/lib/gcc/powerpc64-ps3-elf/4.7.0/../../../../powerpc64-ps3-elf/lib/libc.a(lib_a-assert.o)
                                         0x47 (size before relaxing)
 *fill*         0x0000000010002a7f        0x1 00
 .rodata.str1.8
                0x0000000010002a80        0x2 /opt/ps3dev/ppu/lib/gcc/powerpc64-ps3-elf/4.7.0/../../../../powerpc64-ps3-elf/lib/libc.a(lib_a-getreent.o)
 .rodata.str1.8
                0x0000000000000000        0x2 /opt/ps3dev/ppu/lib/gcc/powerpc64-ps3-elf/4.7.0/../../../../powerpc64-ps3-elf/lib/libc.a(lib_a-impure.o)
 *fill*         0x0000000010002a82        0x6 00
 .rodata._global_impure_ptr
                0x0000000010002a88        0x8 /opt/ps3dev/ppu/lib/gcc/powerpc64-ps3-elf/4.7.0/../../../../powerpc64-ps3-elf/lib/libc.a(lib_a-impure.o)
                0x0000000010002a88                _global_impure_ptr
 .rodata.blanks.4684
                0x0000000010002a90       0x10 /opt/ps3dev/ppu/lib/gcc/powerpc64-ps3-elf/4.7.0/../../../../powerpc64-ps3-elf/lib/libc.a(lib_a-vfiprintf.o)
 .rodata.str1.8
                0x0000000010002aa0       0x37 /opt/ps3dev/ppu/lib/gcc/powerpc64-ps3-elf/4.7.0/../../../../powerpc64-ps3-elf/lib/libc.a(lib_a-vfiprintf.o)
 *fill*         0x0000000010002ad7        0x1 00
 .rodata.zeroes.4685
                0x0000000010002ad8       0x10 /opt/ps3dev/ppu/lib/gcc/powerpc64-ps3-elf/4.7.0/../../../../powerpc64-ps3-elf/lib/libc.a(lib_a-vfiprintf.o)
 .rodata.cst8   0x0000000000000000        0x8 /opt/ps3dev/ppu/lib/gcc/powerpc64-ps3-elf/4.7.0/../../../../powerpc64-ps3-elf/lib/libc.a(lib_a-vfprintf.o)
 .rodata.blanks.4741
                0x0000000010002ae8       0x10 /opt/ps3dev/ppu/lib/gcc/powerpc64-ps3-elf/4.7.0/../../../../powerpc64-ps3-elf/lib/libc.a(lib_a-vfprintf.o)
 .rodata.str1.8
                0x0000000010002af8       0x1c /opt/ps3dev/ppu/lib/gcc/powerpc64-ps3-elf/4.7.0/../../../../powerpc64-ps3-elf/lib/libc.a(lib_a-vfprintf.o)
                                         0x5a (size before relaxing)
 *fill*         0x0000000010002b14        0x4 00
 .rodata.zeroes.4742
                0x0000000010002b18       0x10 /opt/ps3dev/ppu/lib/gcc/powerpc64-ps3-elf/4.7.0/../../../../powerpc64-ps3-elf/lib/libc.a(lib_a-vfprintf.o)
 .rodata._ctype_
                0x0000000010002b28      0x101 /opt/ps3dev/ppu/lib/gcc/powerpc64-ps3-elf/4.7.0/../../../../powerpc64-ps3-elf/lib/libc.a(lib_a-ctype_.o)
                0x0000000010002b28                _ctype_
 *fill*         0x0000000010002c29        0x3 00
 .rodata.cst4   0x0000000010002c2c        0xc /opt/ps3dev/ppu/lib/gcc/powerpc64-ps3-elf/4.7.0/../../../../powerpc64-ps3-elf/lib/libc.a(lib_a-dtoa.o)
                                         0x18 (size before relaxing)
 .rodata.cst8   0x0000000010002c38       0x18 /opt/ps3dev/ppu/lib/gcc/powerpc64-ps3-elf/4.7.0/../../../../powerpc64-ps3-elf/lib/libc.a(lib_a-dtoa.o)
                                         0x20 (size before relaxing)
 .rodata.str1.8
                0x0000000010002c50       0x14 /opt/ps3dev/ppu/lib/gcc/powerpc64-ps3-elf/4.7.0/../../../../powerpc64-ps3-elf/lib/libc.a(lib_a-dtoa.o)
                                         0x1a (size before relaxing)
 *fill*         0x0000000010002c64        0x4 00
 .rodata.str1.8
                0x0000000010002c68        0xa /opt/ps3dev/ppu/lib/gcc/powerpc64-ps3-elf/4.7.0/../../../../powerpc64-ps3-elf/lib/libc.a(lib_a-locale.o)
                                         0x1a (size before relaxing)
 *fill*         0x0000000010002c72        0x2 00
 .rodata.__libc_lock_attributes
                0x0000000010002c74       0x10 /opt/ps3dev/ppu/lib/gcc/powerpc64-ps3-elf/4.7.0/../../../../powerpc64-ps3-elf/lib/libc.a(lib_a-lock_recursive.o)
 .rodata.cst4   0x0000000000000000        0x8 /opt/ps3dev/ppu/lib/gcc/powerpc64-ps3-elf/4.7.0/../../../../powerpc64-ps3-elf/lib/libc.a(lib_a-mprec.o)
 *fill*         0x0000000010002c84        0x4 00
 .rodata.__mprec_tens
                0x0000000010002c88       0xc8 /opt/ps3dev/ppu/lib/gcc/powerpc64-ps3-elf/4.7.0/../../../../powerpc64-ps3-elf/lib/libc.a(lib_a-mprec.o)
                0x0000000010002c88                __mprec_tens
 .rodata.__mprec_bigtens
                0x0000000010002d50       0x28 /opt/ps3dev/ppu/lib/gcc/powerpc64-ps3-elf/4.7.0/../../../../powerpc64-ps3-elf/lib/libc.a(lib_a-mprec.o)
                0x0000000010002d50                __mprec_bigtens
 .rodata.p05.3267
                0x0000000010002d78        0xc /opt/ps3dev/ppu/lib/gcc/powerpc64-ps3-elf/4.7.0/../../../../powerpc64-ps3-elf/lib/libc.a(lib_a-mprec.o)
 *fill*         0x0000000010002d84        0x4 00
 .rodata.__mprec_tinytens
                0x0000000010002d88       0x28 /opt/ps3dev/ppu/lib/gcc/powerpc64-ps3-elf/4.7.0/../../../../powerpc64-ps3-elf/lib/libc.a(lib_a-mprec.o)
                0x0000000010002d88                __mprec_tinytens
 .rodata.__libc_lock_attributes
                0x0000000010002db0       0x10 /opt/ps3dev/ppu/lib/gcc/powerpc64-ps3-elf/4.7.0/../../../../powerpc64-ps3-elf/lib/libc.a(lib_a-lock_internal.o)
 .rodata.str1.8
                0x0000000010002dc0        0xc /opt/ps3dev/psl1ght/ppu/lib/librt.a(socket.o)
 *fill*         0x0000000010002dcc        0x4 00
 .rodata.str1.8
                0x0000000010002dd0        0x5 /opt/ps3dev/ppu/lib/gcc/powerpc64-ps3-elf/4.7.0/../../../../powerpc64-ps3-elf/lib/libc.a(lib_a-svfscanf.o)
 *fill*         0x0000000010002dd5        0x1 00
 .rodata.basefix.4642
                0x0000000010002dd6       0x22 /opt/ps3dev/ppu/lib/gcc/powerpc64-ps3-elf/4.7.0/../../../../powerpc64-ps3-elf/lib/libc.a(lib_a-svfscanf.o)
 .rodata.str1.8
                0x0000000000000000        0x1 /opt/ps3dev/ppu/lib/gcc/powerpc64-ps3-elf/4.7.0/../../../../powerpc64-ps3-elf/lib/libc.a(lib_a-mbrtowc.o)
 .rodata.cst4   0x0000000010002df8        0x4 /opt/ps3dev/ppu/lib/gcc/powerpc64-ps3-elf/4.7.0/../../../../powerpc64-ps3-elf/lib/libc.a(lib_a-sf_nan.o)
 .rodata.cst4   0x0000000010002dfc        0x4 /opt/ps3dev/ppu/lib/gcc/powerpc64-ps3-elf/4.7.0/../../../../powerpc64-ps3-elf/lib/libc.a(lib_a-strtod.o)
                                         0x14 (size before relaxing)
 .rodata.cst8   0x0000000010002e00       0x20 /opt/ps3dev/ppu/lib/gcc/powerpc64-ps3-elf/4.7.0/../../../../powerpc64-ps3-elf/lib/libc.a(lib_a-strtod.o)
                                         0x28 (size before relaxing)
 .rodata.str1.8
                0x0000000010002e20       0x13 /opt/ps3dev/ppu/lib/gcc/powerpc64-ps3-elf/4.7.0/../../../../powerpc64-ps3-elf/lib/libc.a(lib_a-strtod.o)
 *fill*         0x0000000010002e33        0x5 00
 .rodata.tinytens
                0x0000000010002e38       0x28 /opt/ps3dev/ppu/lib/gcc/powerpc64-ps3-elf/4.7.0/../../../../powerpc64-ps3-elf/lib/libc.a(lib_a-strtod.o)
 .rodata.basefix.4142
                0x0000000010002e60       0x22 /opt/ps3dev/ppu/lib/gcc/powerpc64-ps3-elf/4.7.0/../../../../powerpc64-ps3-elf/lib/libc.a(lib_a-svfiscanf.o)
 *fill*         0x0000000010002e82        0x6 00
 .rodata.blanks.4726
                0x0000000010002e88       0x10 /opt/ps3dev/ppu/lib/gcc/powerpc64-ps3-elf/4.7.0/../../../../powerpc64-ps3-elf/lib/libc.a(lib_a-svfprintf.o)
 .rodata.cst8   0x0000000000000000        0x8 /opt/ps3dev/ppu/lib/gcc/powerpc64-ps3-elf/4.7.0/../../../../powerpc64-ps3-elf/lib/libc.a(lib_a-svfprintf.o)
 .rodata.str1.8
                0x0000000000000000       0x5a /opt/ps3dev/ppu/lib/gcc/powerpc64-ps3-elf/4.7.0/../../../../powerpc64-ps3-elf/lib/libc.a(lib_a-svfprintf.o)
 .rodata.zeroes.4727
                0x0000000010002e98       0x10 /opt/ps3dev/ppu/lib/gcc/powerpc64-ps3-elf/4.7.0/../../../../powerpc64-ps3-elf/lib/libc.a(lib_a-svfprintf.o)
 .rodata.str1.8
                0x0000000010002ea8       0x20 /opt/ps3dev/ppu/lib/gcc/powerpc64-ps3-elf/4.7.0/../../../../powerpc64-ps3-elf/lib/libc.a(lib_a-gdtoa-gethex.o)
                                         0x1b (size before relaxing)
 .rodata.zeroes.4671
                0x0000000010002ec8       0x10 /opt/ps3dev/ppu/lib/gcc/powerpc64-ps3-elf/4.7.0/../../../../powerpc64-ps3-elf/lib/libc.a(lib_a-svfiprintf.o)
 .rodata.str1.8
                0x0000000000000000       0x37 /opt/ps3dev/ppu/lib/gcc/powerpc64-ps3-elf/4.7.0/../../../../powerpc64-ps3-elf/lib/libc.a(lib_a-svfiprintf.o)
 .rodata.blanks.4670
                0x0000000010002ed8       0x10 /opt/ps3dev/ppu/lib/gcc/powerpc64-ps3-elf/4.7.0/../../../../powerpc64-ps3-elf/lib/libc.a(lib_a-svfiprintf.o)

.rodata1
 *(.rodata1)

.spu_image
 *(.spu_image .spu_image.*)
                0x0000000010010000                . = ALIGN (0x10000)

.data           0x0000000010010000     0x18e0
 *(.data .data.* .gnu.linkonce.d.*)
 .data          0x0000000010010000        0x0 /opt/ps3dev/ppu/lib/gcc/powerpc64-ps3-elf/4.7.0/../../../../powerpc64-ps3-elf/lib/lv2-crti.o
 .data          0x0000000010010000        0x0 /opt/ps3dev/ppu/lib/gcc/powerpc64-ps3-elf/4.7.0/crtbegin.o
 .data.__dso_handle
                0x0000000010010000        0x8 /opt/ps3dev/ppu/lib/gcc/powerpc64-ps3-elf/4.7.0/crtbegin.o
                0x0000000010010000                __dso_handle
 .data          0x0000000010010008        0x0 /opt/ps3dev/ppu/lib/gcc/powerpc64-ps3-elf/4.7.0/../../../../powerpc64-ps3-elf/lib/lv2-crt0.o
 .data          0x0000000010010008        0x0 /opt/ps3dev/ppu/lib/gcc/powerpc64-ps3-elf/4.7.0/../../../../powerpc64-ps3-elf/lib/lv2-sprx.o
 .data          0x0000000010010008        0x0 ghost1_png.bin.o
 .data          0x0000000010010008        0x0 ghost2_png.bin.o
 .data          0x0000000010010008        0x0 ghost3_png.bin.o
 .data          0x0000000010010008        0x0 ghost4_png.bin.o
 .data          0x0000000010010008        0x0 ghost5_png.bin.o
 .data          0x0000000010010008        0x0 ghost6_png.bin.o
 .data          0x0000000010010008        0x0 ghost7_png.bin.o
 .data          0x0000000010010008        0x0 ghost8_png.bin.o
 .data          0x0000000010010008        0x0 main.o
 .data          0x0000000010010008        0x0 /opt/ps3dev/psl1ght/ppu/lib/libtiny3d.a(matrix.o)
 .data          0x0000000010010008        0x0 /opt/ps3dev/psl1ght/ppu/lib/libtiny3d.a(tiny3d.o)
 .data.nv30_fp_yuv
                0x0000000010010008      0x11c /opt/ps3dev/psl1ght/ppu/lib/libtiny3d.a(tiny3d.o)
 .data.matrix_ident
                0x0000000010010124       0x40 /opt/ps3dev/psl1ght/ppu/lib/libtiny3d.a(tiny3d.o)
 .data.scale2D_y_viewport
                0x0000000010010164        0x4 /opt/ps3dev/psl1ght/ppu/lib/libtiny3d.a(tiny3d.o)
 .data.nv30_fp_yuv_color8
                0x0000000010010168      0x17c /opt/ps3dev/psl1ght/ppu/lib/libtiny3d.a(tiny3d.o)
 .data.polygon  0x00000000100102e4        0x4 /opt/ps3dev/psl1ght/ppu/lib/libtiny3d.a(tiny3d.o)
 .data.nv30_fp_texture
                0x00000000100102e8       0x1c /opt/ps3dev/psl1ght/ppu/lib/libtiny3d.a(tiny3d.o)
 .data.nv30_fp_yuv_color
                0x0000000010010304      0x12c /opt/ps3dev/psl1ght/ppu/lib/libtiny3d.a(tiny3d.o)
 .data.scale3D_y_viewport
                0x0000000010010430        0x4 /opt/ps3dev/psl1ght/ppu/lib/libtiny3d.a(tiny3d.o)
 .data.mod_vertex
                0x0000000010010434        0x4 /opt/ps3dev/psl1ght/ppu/lib/libtiny3d.a(tiny3d.o)
 .data.nv30_fp_texture_color2_alt
                0x0000000010010438       0x7c /opt/ps3dev/psl1ght/ppu/lib/libtiny3d.a(tiny3d.o)
 .data.nv30_fp_texture_color2_alt2
                0x00000000100104b4       0x6c /opt/ps3dev/psl1ght/ppu/lib/libtiny3d.a(tiny3d.o)
 .data.nv30_fp_texture2_alt
                0x0000000010010520       0x6c /opt/ps3dev/psl1ght/ppu/lib/libtiny3d.a(tiny3d.o)
 .data.nv30_fp_texture2
                0x000000001001058c       0x3c /opt/ps3dev/psl1ght/ppu/lib/libtiny3d.a(tiny3d.o)
 .data.nv30_fp_color
                0x00000000100105c8       0x1c /opt/ps3dev/psl1ght/ppu/lib/libtiny3d.a(tiny3d.o)
 .data.scale3D_x_viewport
                0x00000000100105e4        0x4 /opt/ps3dev/psl1ght/ppu/lib/libtiny3d.a(tiny3d.o)
 .data.nv30_fp_texture2_alt2
                0x00000000100105e8       0x5c /opt/ps3dev/psl1ght/ppu/lib/libtiny3d.a(tiny3d.o)
 .data.scale2D_x_viewport
                0x0000000010010644        0x4 /opt/ps3dev/psl1ght/ppu/lib/libtiny3d.a(tiny3d.o)
 .data.size_rsx_vertex
                0x0000000010010648        0x4 /opt/ps3dev/psl1ght/ppu/lib/libtiny3d.a(tiny3d.o)
 .data.nv30_fp_yuv8
                0x000000001001064c      0x17c /opt/ps3dev/psl1ght/ppu/lib/libtiny3d.a(tiny3d.o)
 .data.nv30_fp_texture_color
                0x00000000100107c8       0x2c /opt/ps3dev/psl1ght/ppu/lib/libtiny3d.a(tiny3d.o)
 .data.nv30_fp_texture_color2
                0x00000000100107f4       0x4c /opt/ps3dev/psl1ght/ppu/lib/libtiny3d.a(tiny3d.o)
 .data.current_shader
                0x0000000010010840        0x4 /opt/ps3dev/psl1ght/ppu/lib/libtiny3d.a(tiny3d.o)
 .data.min_vertex
                0x0000000010010844        0x4 /opt/ps3dev/psl1ght/ppu/lib/libtiny3d.a(tiny3d.o)
 .data          0x0000000010010848        0x0 /opt/ps3dev/psl1ght/ppu/lib/libtiny3d.a(vshader_text_normal.vcg.o)
 .data          0x0000000010010848        0x0 /opt/ps3dev/psl1ght/ppu/lib/libtiny3d.a(realityVP.o)
 .data          0x0000000010010848        0x0 /opt/ps3dev/psl1ght/ppu/lib/libtiny3d.a(rsxutil.o)
 .data          0x0000000010010848        0x0 /opt/ps3dev/psl1ght/ppu/lib/libsysmodule.a(sprx.o)
 .data          0x0000000010010848        0x0 /opt/ps3dev/psl1ght/ppu/lib/libgcm_sys.a(sprx.o)
 .data          0x0000000010010848        0x0 /opt/ps3dev/psl1ght/ppu/lib/librsx.a(init.o)
 .data          0x0000000010010848        0x0 /opt/ps3dev/psl1ght/ppu/lib/librsx.a(buffer.o)
 .data          0x0000000010010848        0x0 /opt/ps3dev/psl1ght/ppu/lib/librsx.a(commands.o)
 .data          0x0000000010010848        0x0 /opt/ps3dev/psl1ght/ppu/lib/librsx.a(mm.o)
 .data          0x0000000010010848        0x0 /opt/ps3dev/psl1ght/ppu/lib/librsx.a(vertex_program.o)
 .data          0x0000000010010848        0x0 /opt/ps3dev/psl1ght/ppu/lib/librsx.a(fragment_program.o)
 .data          0x0000000010010848        0x0 /opt/ps3dev/psl1ght/ppu/lib/libsysutil.a(sprx.o)
 .data          0x0000000010010848        0x0 /opt/ps3dev/psl1ght/ppu/lib/libsysutil.a(sysutil_wrapper.o)
 .data          0x0000000010010848        0x0 /opt/ps3dev/psl1ght/ppu/lib/libio.a(sprx.o)
 .data          0x0000000010010848        0x0 /opt/ps3dev/psl1ght/ppu/lib/libpngdec.a(pngdec.o)
 .data          0x0000000010010848        0x0 /opt/ps3dev/psl1ght/ppu/lib/libpngdec.a(sprx.o)
 .data          0x0000000010010848        0x0 /opt/ps3dev/ppu/lib/gcc/powerpc64-ps3-elf/4.7.0/../../../../powerpc64-ps3-elf/lib/libm.a(lib_a-sf_cos.o)
 .data          0x0000000010010848        0x0 /opt/ps3dev/ppu/lib/gcc/powerpc64-ps3-elf/4.7.0/../../../../powerpc64-ps3-elf/lib/libm.a(lib_a-sf_sin.o)
 .data          0x0000000010010848        0x0 /opt/ps3dev/ppu/lib/gcc/powerpc64-ps3-elf/4.7.0/../../../../powerpc64-ps3-elf/lib/libm.a(lib_a-sf_tan.o)
 .data          0x0000000010010848        0x0 /opt/ps3dev/ppu/lib/gcc/powerpc64-ps3-elf/4.7.0/../../../../powerpc64-ps3-elf/lib/libm.a(lib_a-wf_sqrt.o)
 .data          0x0000000010010848        0x0 /opt/ps3dev/ppu/lib/gcc/powerpc64-ps3-elf/4.7.0/../../../../powerpc64-ps3-elf/lib/libm.a(lib_a-ef_rem_pio2.o)
 .data          0x0000000010010848        0x0 /opt/ps3dev/ppu/lib/gcc/powerpc64-ps3-elf/4.7.0/../../../../powerpc64-ps3-elf/lib/libm.a(lib_a-ef_sqrt.o)
 .data          0x0000000010010848        0x0 /opt/ps3dev/ppu/lib/gcc/powerpc64-ps3-elf/4.7.0/../../../../powerpc64-ps3-elf/lib/libm.a(lib_a-kf_cos.o)
 .data          0x0000000010010848        0x0 /opt/ps3dev/ppu/lib/gcc/powerpc64-ps3-elf/4.7.0/../../../../powerpc64-ps3-elf/lib/libm.a(lib_a-kf_rem_pio2.o)
 .data          0x0000000010010848        0x0 /opt/ps3dev/ppu/lib/gcc/powerpc64-ps3-elf/4.7.0/../../../../powerpc64-ps3-elf/lib/libm.a(lib_a-kf_sin.o)
 .data          0x0000000010010848        0x0 /opt/ps3dev/ppu/lib/gcc/powerpc64-ps3-elf/4.7.0/../../../../powerpc64-ps3-elf/lib/libm.a(lib_a-kf_tan.o)
 .data          0x0000000010010848        0x0 /opt/ps3dev/ppu/lib/gcc/powerpc64-ps3-elf/4.7.0/../../../../powerpc64-ps3-elf/lib/libm.a(lib_a-sf_fabs.o)
 .data          0x0000000010010848        0x0 /opt/ps3dev/ppu/lib/gcc/powerpc64-ps3-elf/4.7.0/../../../../powerpc64-ps3-elf/lib/libm.a(lib_a-sf_floor.o)
 .data          0x0000000010010848        0x0 /opt/ps3dev/ppu/lib/gcc/powerpc64-ps3-elf/4.7.0/../../../../powerpc64-ps3-elf/lib/libm.a(lib_a-sf_fpclassify.o)
 .data          0x0000000010010848        0x0 /opt/ps3dev/ppu/lib/gcc/powerpc64-ps3-elf/4.7.0/../../../../powerpc64-ps3-elf/lib/libm.a(lib_a-sf_scalbn.o)
 .data          0x0000000010010848        0x0 /opt/ps3dev/ppu/lib/gcc/powerpc64-ps3-elf/4.7.0/../../../../powerpc64-ps3-elf/lib/libm.a(lib_a-s_lib_ver.o)
 .data.__fdlib_version
                0x0000000010010848        0x4 /opt/ps3dev/ppu/lib/gcc/powerpc64-ps3-elf/4.7.0/../../../../powerpc64-ps3-elf/lib/libm.a(lib_a-s_lib_ver.o)
                0x0000000010010848                __fdlib_version
 .data          0x000000001001084c        0x0 /opt/ps3dev/ppu/lib/gcc/powerpc64-ps3-elf/4.7.0/../../../../powerpc64-ps3-elf/lib/libm.a(lib_a-s_matherr.o)
 .data          0x000000001001084c        0x0 /opt/ps3dev/ppu/lib/gcc/powerpc64-ps3-elf/4.7.0/../../../../powerpc64-ps3-elf/lib/libm.a(lib_a-sf_copysign.o)
 .data          0x000000001001084c        0x0 /opt/ps3dev/ppu/lib/gcc/powerpc64-ps3-elf/4.7.0/../../../../powerpc64-ps3-elf/lib/libsysbase.a(syscalls.o)
 .data          0x000000001001084c        0x0 /opt/ps3dev/ppu/lib/gcc/powerpc64-ps3-elf/4.7.0/../../../../powerpc64-ps3-elf/lib/libsysbase.a(sleep.o)
 .data          0x000000001001084c        0x0 /opt/ps3dev/ppu/lib/gcc/powerpc64-ps3-elf/4.7.0/../../../../powerpc64-ps3-elf/lib/libc.a(lib_a-assert.o)
 .data          0x000000001001084c        0x0 /opt/ps3dev/ppu/lib/gcc/powerpc64-ps3-elf/4.7.0/../../../../powerpc64-ps3-elf/lib/libc.a(lib_a-atexit.o)
 .data          0x000000001001084c        0x0 /opt/ps3dev/ppu/lib/gcc/powerpc64-ps3-elf/4.7.0/../../../../powerpc64-ps3-elf/lib/libc.a(lib_a-errno.o)
 .data          0x000000001001084c        0x0 /opt/ps3dev/ppu/lib/gcc/powerpc64-ps3-elf/4.7.0/../../../../powerpc64-ps3-elf/lib/libc.a(lib_a-exit.o)
 .data          0x000000001001084c        0x0 /opt/ps3dev/ppu/lib/gcc/powerpc64-ps3-elf/4.7.0/../../../../powerpc64-ps3-elf/lib/libc.a(lib_a-fiprintf.o)
 .data          0x000000001001084c        0x0 /opt/ps3dev/ppu/lib/gcc/powerpc64-ps3-elf/4.7.0/../../../../powerpc64-ps3-elf/lib/libc.a(lib_a-getreent.o)
 .data          0x000000001001084c        0x0 /opt/ps3dev/ppu/lib/gcc/powerpc64-ps3-elf/4.7.0/../../../../powerpc64-ps3-elf/lib/libc.a(lib_a-impure.o)
 *fill*         0x000000001001084c        0x4 00
 .data.impure_data
                0x0000000010010850      0x778 /opt/ps3dev/ppu/lib/gcc/powerpc64-ps3-elf/4.7.0/../../../../powerpc64-ps3-elf/lib/libc.a(lib_a-impure.o)
 .data._impure_ptr
                0x0000000010010fc8        0x8 /opt/ps3dev/ppu/lib/gcc/powerpc64-ps3-elf/4.7.0/../../../../powerpc64-ps3-elf/lib/libc.a(lib_a-impure.o)
                0x0000000010010fc8                _impure_ptr
 .data          0x0000000010010fd0        0x0 /opt/ps3dev/ppu/lib/gcc/powerpc64-ps3-elf/4.7.0/../../../../powerpc64-ps3-elf/lib/libc.a(lib_a-malign.o)
 .data          0x0000000010010fd0        0x0 /opt/ps3dev/ppu/lib/gcc/powerpc64-ps3-elf/4.7.0/../../../../powerpc64-ps3-elf/lib/libc.a(lib_a-malignr.o)
 .data          0x0000000010010fd0        0x0 /opt/ps3dev/ppu/lib/gcc/powerpc64-ps3-elf/4.7.0/../../../../powerpc64-ps3-elf/lib/libc.a(lib_a-malloc.o)
 .data          0x0000000010010fd0        0x0 /opt/ps3dev/ppu/lib/gcc/powerpc64-ps3-elf/4.7.0/../../../../powerpc64-ps3-elf/lib/libc.a(lib_a-mallocr.o)
 .data.rel.__malloc_av_
                0x0000000010010fd0      0x810 /opt/ps3dev/ppu/lib/gcc/powerpc64-ps3-elf/4.7.0/../../../../powerpc64-ps3-elf/lib/libc.a(lib_a-mallocr.o)
                0x0000000010010fd0                __malloc_av_
 .data.__malloc_trim_threshold
                0x00000000100117e0        0x8 /opt/ps3dev/ppu/lib/gcc/powerpc64-ps3-elf/4.7.0/../../../../powerpc64-ps3-elf/lib/libc.a(lib_a-mallocr.o)
                0x00000000100117e0                __malloc_trim_threshold
 .data.__malloc_sbrk_base
                0x00000000100117e8        0x8 /opt/ps3dev/ppu/lib/gcc/powerpc64-ps3-elf/4.7.0/../../../../powerpc64-ps3-elf/lib/libc.a(lib_a-mallocr.o)
                0x00000000100117e8                __malloc_sbrk_base
 .data          0x00000000100117f0        0x0 /opt/ps3dev/ppu/lib/gcc/powerpc64-ps3-elf/4.7.0/../../../../powerpc64-ps3-elf/lib/libc.a(lib_a-memcpy.o)
 .data          0x00000000100117f0        0x0 /opt/ps3dev/ppu/lib/gcc/powerpc64-ps3-elf/4.7.0/../../../../powerpc64-ps3-elf/lib/libc.a(lib_a-memset.o)
 .data          0x00000000100117f0        0x0 /opt/ps3dev/ppu/lib/gcc/powerpc64-ps3-elf/4.7.0/../../../../powerpc64-ps3-elf/lib/libc.a(lib_a-mlock.o)
 .data          0x00000000100117f0        0x0 /opt/ps3dev/ppu/lib/gcc/powerpc64-ps3-elf/4.7.0/../../../../powerpc64-ps3-elf/lib/libc.a(lib_a-printf.o)
 .data          0x00000000100117f0        0x0 /opt/ps3dev/ppu/lib/gcc/powerpc64-ps3-elf/4.7.0/../../../../powerpc64-ps3-elf/lib/libc.a(lib_a-rand.o)
 .data          0x00000000100117f0        0x0 /opt/ps3dev/ppu/lib/gcc/powerpc64-ps3-elf/4.7.0/../../../../powerpc64-ps3-elf/lib/libc.a(lib_a-strcasecmp.o)
 .data          0x00000000100117f0        0x0 /opt/ps3dev/ppu/lib/gcc/powerpc64-ps3-elf/4.7.0/../../../../powerpc64-ps3-elf/lib/libc.a(lib_a-vfiprintf.o)
 .data          0x00000000100117f0        0x0 /opt/ps3dev/ppu/lib/gcc/powerpc64-ps3-elf/4.7.0/../../../../powerpc64-ps3-elf/lib/libc.a(lib_a-vfprintf.o)
 .data          0x00000000100117f0        0x0 /opt/ps3dev/ppu/lib/gcc/powerpc64-ps3-elf/4.7.0/../../../../powerpc64-ps3-elf/lib/libc.a(lib_a-wsetup.o)
 .data          0x00000000100117f0        0x0 /opt/ps3dev/ppu/lib/gcc/powerpc64-ps3-elf/4.7.0/../../../../powerpc64-ps3-elf/lib/libc.a(lib_a-abort.o)
 .data          0x00000000100117f0        0x0 /opt/ps3dev/ppu/lib/gcc/powerpc64-ps3-elf/4.7.0/../../../../powerpc64-ps3-elf/lib/libc.a(lib_a-__atexit.o)
 .data          0x00000000100117f0        0x0 /opt/ps3dev/ppu/lib/gcc/powerpc64-ps3-elf/4.7.0/../../../../powerpc64-ps3-elf/lib/libc.a(lib_a-__call_atexit.o)
 .data          0x00000000100117f0        0x0 /opt/ps3dev/ppu/lib/gcc/powerpc64-ps3-elf/4.7.0/../../../../powerpc64-ps3-elf/lib/libc.a(lib_a-ctype_.o)
 .data.rel.__ctype_ptr__
                0x00000000100117f0        0x8 /opt/ps3dev/ppu/lib/gcc/powerpc64-ps3-elf/4.7.0/../../../../powerpc64-ps3-elf/lib/libc.a(lib_a-ctype_.o)
                0x00000000100117f0                __ctype_ptr__
 .data          0x00000000100117f8        0x0 /opt/ps3dev/ppu/lib/gcc/powerpc64-ps3-elf/4.7.0/../../../../powerpc64-ps3-elf/lib/libc.a(lib_a-dtoa.o)
 .data          0x00000000100117f8        0x0 /opt/ps3dev/ppu/lib/gcc/powerpc64-ps3-elf/4.7.0/../../../../powerpc64-ps3-elf/lib/libc.a(lib_a-fflush.o)
 .data          0x00000000100117f8        0x0 /opt/ps3dev/ppu/lib/gcc/powerpc64-ps3-elf/4.7.0/../../../../powerpc64-ps3-elf/lib/libc.a(lib_a-findfp.o)
 .data          0x00000000100117f8        0x0 /opt/ps3dev/ppu/lib/gcc/powerpc64-ps3-elf/4.7.0/../../../../powerpc64-ps3-elf/lib/libc.a(lib_a-fputwc.o)
 .data          0x00000000100117f8        0x0 /opt/ps3dev/ppu/lib/gcc/powerpc64-ps3-elf/4.7.0/../../../../powerpc64-ps3-elf/lib/libc.a(lib_a-freer.o)
 .data          0x00000000100117f8        0x0 /opt/ps3dev/ppu/lib/gcc/powerpc64-ps3-elf/4.7.0/../../../../powerpc64-ps3-elf/lib/libc.a(lib_a-fvwrite.o)
 .data          0x00000000100117f8        0x0 /opt/ps3dev/ppu/lib/gcc/powerpc64-ps3-elf/4.7.0/../../../../powerpc64-ps3-elf/lib/libc.a(lib_a-fwalk.o)
 .data          0x00000000100117f8        0x0 /opt/ps3dev/ppu/lib/gcc/powerpc64-ps3-elf/4.7.0/../../../../powerpc64-ps3-elf/lib/libc.a(lib_a-locale.o)
 .data.lc_message_charset
                0x00000000100117f8       0x20 /opt/ps3dev/ppu/lib/gcc/powerpc64-ps3-elf/4.7.0/../../../../powerpc64-ps3-elf/lib/libc.a(lib_a-locale.o)
 .data.lconv    0x0000000010011818       0x60 /opt/ps3dev/ppu/lib/gcc/powerpc64-ps3-elf/4.7.0/../../../../powerpc64-ps3-elf/lib/libc.a(lib_a-locale.o)
 .data.lc_ctype_charset
                0x0000000010011878       0x20 /opt/ps3dev/ppu/lib/gcc/powerpc64-ps3-elf/4.7.0/../../../../powerpc64-ps3-elf/lib/libc.a(lib_a-locale.o)
 .data.__mb_cur_max
                0x0000000010011898        0x4 /opt/ps3dev/ppu/lib/gcc/powerpc64-ps3-elf/4.7.0/../../../../powerpc64-ps3-elf/lib/libc.a(lib_a-locale.o)
                0x0000000010011898                __mb_cur_max
 .data          0x000000001001189c        0x0 /opt/ps3dev/ppu/lib/gcc/powerpc64-ps3-elf/4.7.0/../../../../powerpc64-ps3-elf/lib/libc.a(lib_a-lock_recursive.o)
 .data          0x000000001001189c        0x0 /opt/ps3dev/ppu/lib/gcc/powerpc64-ps3-elf/4.7.0/../../../../powerpc64-ps3-elf/lib/libc.a(lib_a-makebuf.o)
 .data          0x000000001001189c        0x0 /opt/ps3dev/ppu/lib/gcc/powerpc64-ps3-elf/4.7.0/../../../../powerpc64-ps3-elf/lib/libc.a(lib_a-memchr.o)
 .data          0x000000001001189c        0x0 /opt/ps3dev/ppu/lib/gcc/powerpc64-ps3-elf/4.7.0/../../../../powerpc64-ps3-elf/lib/libc.a(lib_a-memmove.o)
 .data          0x000000001001189c        0x0 /opt/ps3dev/ppu/lib/gcc/powerpc64-ps3-elf/4.7.0/../../../../powerpc64-ps3-elf/lib/libc.a(lib_a-mprec.o)
 .data          0x000000001001189c        0x0 /opt/ps3dev/ppu/lib/gcc/powerpc64-ps3-elf/4.7.0/../../../../powerpc64-ps3-elf/lib/libc.a(lib_a-reallocr.o)
 .data          0x000000001001189c        0x0 /opt/ps3dev/ppu/lib/gcc/powerpc64-ps3-elf/4.7.0/../../../../powerpc64-ps3-elf/lib/libc.a(lib_a-s_fpclassify.o)
 .data          0x000000001001189c        0x0 /opt/ps3dev/ppu/lib/gcc/powerpc64-ps3-elf/4.7.0/../../../../powerpc64-ps3-elf/lib/libc.a(lib_a-signal.o)
 .data          0x000000001001189c        0x0 /opt/ps3dev/ppu/lib/gcc/powerpc64-ps3-elf/4.7.0/../../../../powerpc64-ps3-elf/lib/libc.a(lib_a-stdio.o)
 .data          0x000000001001189c        0x0 /opt/ps3dev/ppu/lib/gcc/powerpc64-ps3-elf/4.7.0/../../../../powerpc64-ps3-elf/lib/libc.a(lib_a-strcmp.o)
 .data          0x000000001001189c        0x0 /opt/ps3dev/ppu/lib/gcc/powerpc64-ps3-elf/4.7.0/../../../../powerpc64-ps3-elf/lib/libc.a(lib_a-strlen.o)
 .data          0x000000001001189c        0x0 /opt/ps3dev/ppu/lib/gcc/powerpc64-ps3-elf/4.7.0/../../../../powerpc64-ps3-elf/lib/libc.a(lib_a-wbuf.o)
 .data          0x000000001001189c        0x0 /opt/ps3dev/ppu/lib/gcc/powerpc64-ps3-elf/4.7.0/../../../../powerpc64-ps3-elf/lib/libc.a(lib_a-wcrtomb.o)
 .data          0x000000001001189c        0x0 /opt/ps3dev/ppu/lib/gcc/powerpc64-ps3-elf/4.7.0/../../../../powerpc64-ps3-elf/lib/libc.a(lib_a-wctomb_r.o)
 *fill*         0x000000001001189c        0x4 00
 .data.rel.__wctomb
                0x00000000100118a0        0x8 /opt/ps3dev/ppu/lib/gcc/powerpc64-ps3-elf/4.7.0/../../../../powerpc64-ps3-elf/lib/libc.a(lib_a-wctomb_r.o)
                0x00000000100118a0                __wctomb
 .data          0x00000000100118a8        0x0 /opt/ps3dev/ppu/lib/gcc/powerpc64-ps3-elf/4.7.0/../../../../powerpc64-ps3-elf/lib/libc.a(lib_a-callocr.o)
 .data          0x00000000100118a8        0x0 /opt/ps3dev/ppu/lib/gcc/powerpc64-ps3-elf/4.7.0/../../../../powerpc64-ps3-elf/lib/libc.a(lib_a-fclose.o)
 .data          0x00000000100118a8        0x0 /opt/ps3dev/ppu/lib/gcc/powerpc64-ps3-elf/4.7.0/../../../../powerpc64-ps3-elf/lib/libc.a(lib_a-lock_internal.o)
 .data          0x00000000100118a8        0x0 /opt/ps3dev/psl1ght/ppu/lib/librt.a(sbrk.o)
 .data          0x00000000100118a8        0x0 /opt/ps3dev/psl1ght/ppu/lib/librt.a(exit.o)
 .data          0x00000000100118a8        0x0 /opt/ps3dev/psl1ght/ppu/lib/librt.a(close.o)
 .data          0x00000000100118a8        0x0 /opt/ps3dev/psl1ght/ppu/lib/librt.a(lseek.o)
 .data          0x00000000100118a8        0x0 /opt/ps3dev/psl1ght/ppu/lib/librt.a(read.o)
 .data          0x00000000100118a8        0x0 /opt/ps3dev/psl1ght/ppu/lib/librt.a(open.o)
 .data          0x00000000100118a8        0x0 /opt/ps3dev/psl1ght/ppu/lib/librt.a(sleep.o)
 .data          0x00000000100118a8        0x0 /opt/ps3dev/psl1ght/ppu/lib/librt.a(write.o)
 .data          0x00000000100118a8        0x0 /opt/ps3dev/psl1ght/ppu/lib/librt.a(fstat.o)
 .data          0x00000000100118a8        0x0 /opt/ps3dev/psl1ght/ppu/lib/librt.a(socket.o)
 .data          0x00000000100118a8        0x0 /opt/ps3dev/psl1ght/ppu/lib/librt.a(lock.o)
 .data          0x00000000100118a8        0x0 /opt/ps3dev/psl1ght/ppu/lib/librt.a(dirent.o)
 .data          0x00000000100118a8        0x0 /opt/ps3dev/psl1ght/ppu/lib/librt.a(mkdir.o)
 .data          0x00000000100118a8        0x0 /opt/ps3dev/psl1ght/ppu/lib/librt.a(times.o)
 .data          0x00000000100118a8        0x0 /opt/ps3dev/psl1ght/ppu/lib/librt.a(umask.o)
 .data.g_umask  0x00000000100118a8        0x4 /opt/ps3dev/psl1ght/ppu/lib/librt.a(umask.o)
                0x00000000100118a8                g_umask
 .data          0x00000000100118ac        0x0 /opt/ps3dev/psl1ght/ppu/lib/librt.a(lv2errno.o)
 .data          0x00000000100118ac        0x0 /opt/ps3dev/psl1ght/ppu/lib/librt.a(heap.o)
 .data          0x00000000100118ac        0x0 /opt/ps3dev/psl1ght/ppu/lib/librt.a(chmod.o)
 .data          0x00000000100118ac        0x0 /opt/ps3dev/psl1ght/ppu/lib/librt.a(rmdir.o)
 .data          0x00000000100118ac        0x0 /opt/ps3dev/psl1ght/ppu/lib/librt.a(isatty.o)
 .data          0x00000000100118ac        0x0 /opt/ps3dev/psl1ght/ppu/lib/librt.a(gettod.o)
 .data          0x00000000100118ac        0x0 /opt/ps3dev/psl1ght/ppu/lib/librt.a(settod.o)
 .data          0x00000000100118ac        0x0 /opt/ps3dev/psl1ght/ppu/lib/liblv2.a(sprx.o)
 .data          0x00000000100118ac        0x0 /opt/ps3dev/ppu/lib/gcc/powerpc64-ps3-elf/4.7.0/../../../../powerpc64-ps3-elf/lib/libsysbase.a(close.o)
 .data          0x00000000100118ac        0x0 /opt/ps3dev/ppu/lib/gcc/powerpc64-ps3-elf/4.7.0/../../../../powerpc64-ps3-elf/lib/libsysbase.a(sbrk.o)
 .data          0x00000000100118ac        0x0 /opt/ps3dev/ppu/lib/gcc/powerpc64-ps3-elf/4.7.0/../../../../powerpc64-ps3-elf/lib/libsysbase.a(_exit.o)
 .data          0x00000000100118ac        0x0 /opt/ps3dev/ppu/lib/gcc/powerpc64-ps3-elf/4.7.0/../../../../powerpc64-ps3-elf/lib/libsysbase.a(fstat.o)
 .data          0x00000000100118ac        0x0 /opt/ps3dev/ppu/lib/gcc/powerpc64-ps3-elf/4.7.0/../../../../powerpc64-ps3-elf/lib/libsysbase.a(isatty.o)
 .data          0x00000000100118ac        0x0 /opt/ps3dev/ppu/lib/gcc/powerpc64-ps3-elf/4.7.0/../../../../powerpc64-ps3-elf/lib/libsysbase.a(lseek.o)
 .data          0x00000000100118ac        0x0 /opt/ps3dev/ppu/lib/gcc/powerpc64-ps3-elf/4.7.0/../../../../powerpc64-ps3-elf/lib/libsysbase.a(read.o)
 .data          0x00000000100118ac        0x0 /opt/ps3dev/ppu/lib/gcc/powerpc64-ps3-elf/4.7.0/../../../../powerpc64-ps3-elf/lib/libsysbase.a(write.o)
 .data          0x00000000100118ac        0x0 /opt/ps3dev/ppu/lib/gcc/powerpc64-ps3-elf/4.7.0/../../../../powerpc64-ps3-elf/lib/libsysbase.a(lock.o)
 .data          0x00000000100118ac        0x0 /opt/ps3dev/ppu/lib/gcc/powerpc64-ps3-elf/4.7.0/../../../../powerpc64-ps3-elf/lib/libsysbase.a(getpid.o)
 .data          0x00000000100118ac        0x0 /opt/ps3dev/ppu/lib/gcc/powerpc64-ps3-elf/4.7.0/../../../../powerpc64-ps3-elf/lib/libsysbase.a(kill.o)
 .data          0x00000000100118ac        0x0 /opt/ps3dev/ppu/lib/gcc/powerpc64-ps3-elf/4.7.0/../../../../powerpc64-ps3-elf/lib/libc.a(lib_a-sscanf.o)
 .data          0x00000000100118ac        0x0 /opt/ps3dev/ppu/lib/gcc/powerpc64-ps3-elf/4.7.0/../../../../powerpc64-ps3-elf/lib/libc.a(lib_a-strncpy.o)
 .data          0x00000000100118ac        0x0 /opt/ps3dev/ppu/lib/gcc/powerpc64-ps3-elf/4.7.0/../../../../powerpc64-ps3-elf/lib/libc.a(lib_a-svfscanf.o)
 .data          0x00000000100118ac        0x0 /opt/ps3dev/ppu/lib/gcc/powerpc64-ps3-elf/4.7.0/../../../../powerpc64-ps3-elf/lib/libc.a(lib_a-iswspace.o)
 .data          0x00000000100118ac        0x0 /opt/ps3dev/ppu/lib/gcc/powerpc64-ps3-elf/4.7.0/../../../../powerpc64-ps3-elf/lib/libc.a(lib_a-mbrtowc.o)
 .data          0x00000000100118ac        0x0 /opt/ps3dev/ppu/lib/gcc/powerpc64-ps3-elf/4.7.0/../../../../powerpc64-ps3-elf/lib/libc.a(lib_a-mbtowc_r.o)
 *fill*         0x00000000100118ac        0x4 00
 .data.rel.__mbtowc
                0x00000000100118b0        0x8 /opt/ps3dev/ppu/lib/gcc/powerpc64-ps3-elf/4.7.0/../../../../powerpc64-ps3-elf/lib/libc.a(lib_a-mbtowc_r.o)
                0x00000000100118b0                __mbtowc
 .data          0x00000000100118b8        0x0 /opt/ps3dev/ppu/lib/gcc/powerpc64-ps3-elf/4.7.0/../../../../powerpc64-ps3-elf/lib/libc.a(lib_a-sccl.o)
 .data          0x00000000100118b8        0x0 /opt/ps3dev/ppu/lib/gcc/powerpc64-ps3-elf/4.7.0/../../../../powerpc64-ps3-elf/lib/libc.a(lib_a-sf_nan.o)
 .data          0x00000000100118b8        0x0 /opt/ps3dev/ppu/lib/gcc/powerpc64-ps3-elf/4.7.0/../../../../powerpc64-ps3-elf/lib/libc.a(lib_a-sprintf.o)
 .data          0x00000000100118b8        0x0 /opt/ps3dev/ppu/lib/gcc/powerpc64-ps3-elf/4.7.0/../../../../powerpc64-ps3-elf/lib/libc.a(lib_a-strtod.o)
 .data.fpi.3227
                0x00000000100118b8       0x14 /opt/ps3dev/ppu/lib/gcc/powerpc64-ps3-elf/4.7.0/../../../../powerpc64-ps3-elf/lib/libc.a(lib_a-strtod.o)
 .data.fpinan.3263
                0x00000000100118cc       0x14 /opt/ps3dev/ppu/lib/gcc/powerpc64-ps3-elf/4.7.0/../../../../powerpc64-ps3-elf/lib/libc.a(lib_a-strtod.o)
 .data          0x00000000100118e0        0x0 /opt/ps3dev/ppu/lib/gcc/powerpc64-ps3-elf/4.7.0/../../../../powerpc64-ps3-elf/lib/libc.a(lib_a-strtoll_r.o)
 .data          0x00000000100118e0        0x0 /opt/ps3dev/ppu/lib/gcc/powerpc64-ps3-elf/4.7.0/../../../../powerpc64-ps3-elf/lib/libc.a(lib_a-strtol.o)
 .data          0x00000000100118e0        0x0 /opt/ps3dev/ppu/lib/gcc/powerpc64-ps3-elf/4.7.0/../../../../powerpc64-ps3-elf/lib/libc.a(lib_a-strtoull_r.o)
 .data          0x00000000100118e0        0x0 /opt/ps3dev/ppu/lib/gcc/powerpc64-ps3-elf/4.7.0/../../../../powerpc64-ps3-elf/lib/libc.a(lib_a-strtoul.o)
 .data          0x00000000100118e0        0x0 /opt/ps3dev/ppu/lib/gcc/powerpc64-ps3-elf/4.7.0/../../../../powerpc64-ps3-elf/lib/libc.a(lib_a-svfiscanf.o)
 .data          0x00000000100118e0        0x0 /opt/ps3dev/ppu/lib/gcc/powerpc64-ps3-elf/4.7.0/../../../../powerpc64-ps3-elf/lib/libc.a(lib_a-svfprintf.o)
 .data          0x00000000100118e0        0x0 /opt/ps3dev/ppu/lib/gcc/powerpc64-ps3-elf/4.7.0/../../../../powerpc64-ps3-elf/lib/libc.a(lib_a-ungetc.o)
 .data          0x00000000100118e0        0x0 /opt/ps3dev/ppu/lib/gcc/powerpc64-ps3-elf/4.7.0/../../../../powerpc64-ps3-elf/lib/libc.a(lib_a-gdtoa-gethex.o)
 .data          0x00000000100118e0        0x0 /opt/ps3dev/ppu/lib/gcc/powerpc64-ps3-elf/4.7.0/../../../../powerpc64-ps3-elf/lib/libc.a(lib_a-gdtoa-hexnan.o)
 .data          0x00000000100118e0        0x0 /opt/ps3dev/ppu/lib/gcc/powerpc64-ps3-elf/4.7.0/../../../../powerpc64-ps3-elf/lib/libc.a(lib_a-strncmp.o)
 .data          0x00000000100118e0        0x0 /opt/ps3dev/ppu/lib/gcc/powerpc64-ps3-elf/4.7.0/../../../../powerpc64-ps3-elf/lib/libc.a(lib_a-svfiprintf.o)
 .data          0x00000000100118e0        0x0 /opt/ps3dev/ppu/lib/gcc/powerpc64-ps3-elf/4.7.0/crtend.o
 .data          0x00000000100118e0        0x0 /opt/ps3dev/ppu/lib/gcc/powerpc64-ps3-elf/4.7.0/../../../../powerpc64-ps3-elf/lib/lv2-crtn.o
 *(.gnu.linkonce.d.*personality*)

.tm_clone_table
                0x00000000100118e0        0x0
 .tm_clone_table
                0x00000000100118e0        0x0 /opt/ps3dev/ppu/lib/gcc/powerpc64-ps3-elf/4.7.0/crtbegin.o
 .tm_clone_table
                0x00000000100118e0        0x0 /opt/ps3dev/ppu/lib/gcc/powerpc64-ps3-elf/4.7.0/crtend.o

.data1
 *(.data1)

.sdata
 *(.sdata .sdata.* .gnu.linkonce.s.*)
                0x00000000100118e0                _edata = .
                0x00000000100118e0                PROVIDE (edata, .)
                0x00000000100118e0                __bss_start = .

.tocbss
 *(.tocbss)

.sbss           0x00000000100118e0        0x0
                0x00000000100118e0                PROVIDE (__sbss_start, .)
                0x00000000100118e0                PROVIDE (___sbss_start, .)
 *(.dynsbss)
 *(.sbss .sbss.* .gnu.linkonce.sb.*)
 *(.scommon)
                0x00000000100118e0                PROVIDE (__sbss_end, .)
                0x00000000100118e0                PROVIDE (___sbss_end, .)

.plt
 *(.plt)

.bss            0x0000000010011900     0x2e18
 *(.dynbss)
 *(.bss .bss.* .gnu.linkonce.b.*)
 .bss           0x0000000010011900        0x0 /opt/ps3dev/ppu/lib/gcc/powerpc64-ps3-elf/4.7.0/../../../../powerpc64-ps3-elf/lib/lv2-crti.o
 .bss           0x0000000010011900        0x0 /opt/ps3dev/ppu/lib/gcc/powerpc64-ps3-elf/4.7.0/crtbegin.o
 .bss.completed.4578
                0x0000000010011900        0x1 /opt/ps3dev/ppu/lib/gcc/powerpc64-ps3-elf/4.7.0/crtbegin.o
 *fill*         0x0000000010011901        0x7 00
 .bss.dtor_idx.4580
                0x0000000010011908        0x8 /opt/ps3dev/ppu/lib/gcc/powerpc64-ps3-elf/4.7.0/crtbegin.o
 .bss.object.4590
                0x0000000010011910       0x30 /opt/ps3dev/ppu/lib/gcc/powerpc64-ps3-elf/4.7.0/crtbegin.o
 .bss           0x0000000010011940        0x8 /opt/ps3dev/ppu/lib/gcc/powerpc64-ps3-elf/4.7.0/../../../../powerpc64-ps3-elf/lib/lv2-crt0.o
                0x0000000010011940                __libc_stack_end
 .bss           0x0000000010011948        0x0 /opt/ps3dev/ppu/lib/gcc/powerpc64-ps3-elf/4.7.0/../../../../powerpc64-ps3-elf/lib/lv2-sprx.o
 .bss           0x0000000010011948        0x0 ghost1_png.bin.o
 .bss           0x0000000010011948        0x0 ghost2_png.bin.o
 .bss           0x0000000010011948        0x0 ghost3_png.bin.o
 .bss           0x0000000010011948        0x0 ghost4_png.bin.o
 .bss           0x0000000010011948        0x0 ghost5_png.bin.o
 .bss           0x0000000010011948        0x0 ghost6_png.bin.o
 .bss           0x0000000010011948        0x0 ghost7_png.bin.o
 .bss           0x0000000010011948        0x0 ghost8_png.bin.o
 .bss           0x0000000010011948        0x0 main.o
 .bss.rotar.5588
                0x0000000010011948        0x4 main.o
 .bss.rotZ.5587
                0x000000001001194c        0x4 main.o
 .bss.count_frames.5586
                0x0000000010011950        0x4 main.o
 .bss           0x0000000010011954        0x0 /opt/ps3dev/psl1ght/ppu/lib/libtiny3d.a(matrix.o)
 .bss           0x0000000010011954        0x0 /opt/ps3dev/psl1ght/ppu/lib/libtiny3d.a(tiny3d.o)
 .bss.set_apply_matrix
                0x0000000010011954        0x4 /opt/ps3dev/psl1ght/ppu/lib/libtiny3d.a(tiny3d.o)
 .bss.pos_rsx_vertex
                0x0000000010011958        0x4 /opt/ps3dev/psl1ght/ppu/lib/libtiny3d.a(tiny3d.o)
 .bss.tiny3d_menu_open
                0x000000001001195c        0x4 /opt/ps3dev/psl1ght/ppu/lib/libtiny3d.a(tiny3d.o)
 .bss.inited.5531
                0x0000000010011960        0x4 /opt/ps3dev/psl1ght/ppu/lib/libtiny3d.a(tiny3d.o)
 .bss.Video_currentBuffer
                0x0000000010011964        0x4 /opt/ps3dev/psl1ght/ppu/lib/libtiny3d.a(tiny3d.o)
                0x0000000010011964                Video_currentBuffer
 .bss.use_2d    0x0000000010011968        0x4 /opt/ps3dev/psl1ght/ppu/lib/libtiny3d.a(tiny3d.o)
 .bss.x_viewport
                0x000000001001196c        0x4 /opt/ps3dev/psl1ght/ppu/lib/libtiny3d.a(tiny3d.o)
 .bss.apply_matrix
                0x0000000010011970       0x40 /opt/ps3dev/psl1ght/ppu/lib/libtiny3d.a(tiny3d.o)
 .bss.list_base
                0x00000000100119b0        0x8 /opt/ps3dev/psl1ght/ppu/lib/libtiny3d.a(tiny3d.o)
 .bss.light     0x00000000100119b8       0xa0 /opt/ps3dev/psl1ght/ppu/lib/libtiny3d.a(tiny3d.o)
 .bss.model_view
                0x0000000010011a58       0x40 /opt/ps3dev/psl1ght/ppu/lib/libtiny3d.a(tiny3d.o)
 .bss.data_shader
                0x0000000010011a98      0x5a0 /opt/ps3dev/psl1ght/ppu/lib/libtiny3d.a(tiny3d.o)
 .bss.render_target
                0x0000000010012038       0x10 /opt/ps3dev/psl1ght/ppu/lib/libtiny3d.a(tiny3d.o)
 .bss.tiny_3d_alarm
                0x0000000010012048        0x4 /opt/ps3dev/psl1ght/ppu/lib/libtiny3d.a(tiny3d.o)
 .bss.flag_vertex
                0x000000001001204c        0x4 /opt/ps3dev/psl1ght/ppu/lib/libtiny3d.a(tiny3d.o)
 .bss.material  0x0000000010012050       0x40 /opt/ps3dev/psl1ght/ppu/lib/libtiny3d.a(tiny3d.o)
 .bss.grab_list
                0x0000000010012090        0x4 /opt/ps3dev/psl1ght/ppu/lib/libtiny3d.a(tiny3d.o)
 .bss.user_viewport
                0x0000000010012094        0x4 /opt/ps3dev/psl1ght/ppu/lib/libtiny3d.a(tiny3d.o)
 .bss.y_viewport
                0x0000000010012098        0x4 /opt/ps3dev/psl1ght/ppu/lib/libtiny3d.a(tiny3d.o)
 .bss.n_vertex  0x000000001001209c        0x4 /opt/ps3dev/psl1ght/ppu/lib/libtiny3d.a(tiny3d.o)
 .bss.off_head_vertex
                0x00000000100120a0        0x4 /opt/ps3dev/psl1ght/ppu/lib/libtiny3d.a(tiny3d.o)
 .bss.curr_list_index
                0x00000000100120a4        0x4 /opt/ps3dev/psl1ght/ppu/lib/libtiny3d.a(tiny3d.o)
 .bss.off_start_vertex
                0x00000000100120a8        0x4 /opt/ps3dev/psl1ght/ppu/lib/libtiny3d.a(tiny3d.o)
 *fill*         0x00000000100120ac        0x4 00
 .bss.rsx_vertex
                0x00000000100120b0        0x8 /opt/ps3dev/psl1ght/ppu/lib/libtiny3d.a(tiny3d.o)
 .bss.vertex_data
                0x00000000100120b8       0x40 /opt/ps3dev/psl1ght/ppu/lib/libtiny3d.a(tiny3d.o)
 .bss.project_mat
                0x00000000100120f8       0x40 /opt/ps3dev/psl1ght/ppu/lib/libtiny3d.a(tiny3d.o)
 .bss.select_fp
                0x0000000010012138        0x4 /opt/ps3dev/psl1ght/ppu/lib/libtiny3d.a(tiny3d.o)
 .bss.tiny3d_drawing_status
                0x000000001001213c        0x4 /opt/ps3dev/psl1ght/ppu/lib/libtiny3d.a(tiny3d.o)
 .bss.enable_yuv
                0x0000000010012140        0x4 /opt/ps3dev/psl1ght/ppu/lib/libtiny3d.a(tiny3d.o)
 *fill*         0x0000000010012144        0x4 00
 .bss.CtrlReg   0x0000000010012148        0x8 /opt/ps3dev/psl1ght/ppu/lib/libtiny3d.a(tiny3d.o)
 .bss.curr_list
                0x0000000010012150        0x8 /opt/ps3dev/psl1ght/ppu/lib/libtiny3d.a(tiny3d.o)
 .bss.last_list
                0x0000000010012158        0x8 /opt/ps3dev/psl1ght/ppu/lib/libtiny3d.a(tiny3d.o)
 .bss           0x0000000010012160        0x0 /opt/ps3dev/psl1ght/ppu/lib/libtiny3d.a(vshader_text_normal.vcg.o)
 .bss           0x0000000010012160        0x0 /opt/ps3dev/psl1ght/ppu/lib/libtiny3d.a(realityVP.o)
 .bss           0x0000000010012160        0x0 /opt/ps3dev/psl1ght/ppu/lib/libtiny3d.a(rsxutil.o)
 .bss.depth_buffer
                0x0000000010012160        0x8 /opt/ps3dev/psl1ght/ppu/lib/libtiny3d.a(rsxutil.o)
 .bss.depth_offset
                0x0000000010012168        0x4 /opt/ps3dev/psl1ght/ppu/lib/libtiny3d.a(rsxutil.o)
 .bss.zformat   0x000000001001216c        0x4 /opt/ps3dev/psl1ght/ppu/lib/libtiny3d.a(rsxutil.o)
 .bss.offset    0x0000000010012170        0x8 /opt/ps3dev/psl1ght/ppu/lib/libtiny3d.a(rsxutil.o)
 .bss.depth_pitch
                0x0000000010012178        0x4 /opt/ps3dev/psl1ght/ppu/lib/libtiny3d.a(rsxutil.o)
 .bss           0x000000001001217c        0x0 /opt/ps3dev/psl1ght/ppu/lib/libsysmodule.a(sprx.o)
 .bss           0x000000001001217c        0x0 /opt/ps3dev/psl1ght/ppu/lib/libgcm_sys.a(sprx.o)
 .bss           0x000000001001217c        0x0 /opt/ps3dev/psl1ght/ppu/lib/librsx.a(init.o)
 .bss           0x000000001001217c        0x0 /opt/ps3dev/psl1ght/ppu/lib/librsx.a(buffer.o)
 .bss           0x000000001001217c        0x0 /opt/ps3dev/psl1ght/ppu/lib/librsx.a(commands.o)
 .bss           0x000000001001217c        0x0 /opt/ps3dev/psl1ght/ppu/lib/librsx.a(mm.o)
 *fill*         0x000000001001217c        0x4 00
 .bss.__rsxheap_initialized
                0x0000000010012180        0x8 /opt/ps3dev/psl1ght/ppu/lib/librsx.a(mm.o)
 .bss.__rsx_config
                0x0000000010012188       0x18 /opt/ps3dev/psl1ght/ppu/lib/librsx.a(mm.o)
 .bss.__rsx_heap
                0x00000000100121a0       0x48 /opt/ps3dev/psl1ght/ppu/lib/librsx.a(mm.o)
 .bss           0x00000000100121e8        0x0 /opt/ps3dev/psl1ght/ppu/lib/librsx.a(vertex_program.o)
 .bss           0x00000000100121e8        0x0 /opt/ps3dev/psl1ght/ppu/lib/librsx.a(fragment_program.o)
 .bss           0x00000000100121e8        0x0 /opt/ps3dev/psl1ght/ppu/lib/libsysutil.a(sprx.o)
 .bss           0x00000000100121e8        0x0 /opt/ps3dev/psl1ght/ppu/lib/libsysutil.a(sysutil_wrapper.o)
 .bss           0x00000000100121e8        0x0 /opt/ps3dev/psl1ght/ppu/lib/libio.a(sprx.o)
 .bss           0x00000000100121e8        0x0 /opt/ps3dev/psl1ght/ppu/lib/libpngdec.a(pngdec.o)
 .bss           0x00000000100121e8        0x0 /opt/ps3dev/psl1ght/ppu/lib/libpngdec.a(sprx.o)
 .bss           0x00000000100121e8        0x0 /opt/ps3dev/ppu/lib/gcc/powerpc64-ps3-elf/4.7.0/../../../../powerpc64-ps3-elf/lib/libm.a(lib_a-sf_cos.o)
 .bss           0x00000000100121e8        0x0 /opt/ps3dev/ppu/lib/gcc/powerpc64-ps3-elf/4.7.0/../../../../powerpc64-ps3-elf/lib/libm.a(lib_a-sf_sin.o)
 .bss           0x00000000100121e8        0x0 /opt/ps3dev/ppu/lib/gcc/powerpc64-ps3-elf/4.7.0/../../../../powerpc64-ps3-elf/lib/libm.a(lib_a-sf_tan.o)
 .bss           0x00000000100121e8        0x0 /opt/ps3dev/ppu/lib/gcc/powerpc64-ps3-elf/4.7.0/../../../../powerpc64-ps3-elf/lib/libm.a(lib_a-wf_sqrt.o)
 .bss           0x00000000100121e8        0x0 /opt/ps3dev/ppu/lib/gcc/powerpc64-ps3-elf/4.7.0/../../../../powerpc64-ps3-elf/lib/libm.a(lib_a-ef_rem_pio2.o)
 .bss           0x00000000100121e8        0x0 /opt/ps3dev/ppu/lib/gcc/powerpc64-ps3-elf/4.7.0/../../../../powerpc64-ps3-elf/lib/libm.a(lib_a-ef_sqrt.o)
 .bss           0x00000000100121e8        0x0 /opt/ps3dev/ppu/lib/gcc/powerpc64-ps3-elf/4.7.0/../../../../powerpc64-ps3-elf/lib/libm.a(lib_a-kf_cos.o)
 .bss           0x00000000100121e8        0x0 /opt/ps3dev/ppu/lib/gcc/powerpc64-ps3-elf/4.7.0/../../../../powerpc64-ps3-elf/lib/libm.a(lib_a-kf_rem_pio2.o)
 .bss           0x00000000100121e8        0x0 /opt/ps3dev/ppu/lib/gcc/powerpc64-ps3-elf/4.7.0/../../../../powerpc64-ps3-elf/lib/libm.a(lib_a-kf_sin.o)
 .bss           0x00000000100121e8        0x0 /opt/ps3dev/ppu/lib/gcc/powerpc64-ps3-elf/4.7.0/../../../../powerpc64-ps3-elf/lib/libm.a(lib_a-kf_tan.o)
 .bss           0x00000000100121e8        0x0 /opt/ps3dev/ppu/lib/gcc/powerpc64-ps3-elf/4.7.0/../../../../powerpc64-ps3-elf/lib/libm.a(lib_a-sf_fabs.o)
 .bss           0x00000000100121e8        0x0 /opt/ps3dev/ppu/lib/gcc/powerpc64-ps3-elf/4.7.0/../../../../powerpc64-ps3-elf/lib/libm.a(lib_a-sf_floor.o)
 .bss           0x00000000100121e8        0x0 /opt/ps3dev/ppu/lib/gcc/powerpc64-ps3-elf/4.7.0/../../../../powerpc64-ps3-elf/lib/libm.a(lib_a-sf_fpclassify.o)
 .bss           0x00000000100121e8        0x0 /opt/ps3dev/ppu/lib/gcc/powerpc64-ps3-elf/4.7.0/../../../../powerpc64-ps3-elf/lib/libm.a(lib_a-sf_scalbn.o)
 .bss           0x00000000100121e8        0x0 /opt/ps3dev/ppu/lib/gcc/powerpc64-ps3-elf/4.7.0/../../../../powerpc64-ps3-elf/lib/libm.a(lib_a-s_lib_ver.o)
 .bss           0x00000000100121e8        0x0 /opt/ps3dev/ppu/lib/gcc/powerpc64-ps3-elf/4.7.0/../../../../powerpc64-ps3-elf/lib/libm.a(lib_a-s_matherr.o)
 .bss           0x00000000100121e8        0x0 /opt/ps3dev/ppu/lib/gcc/powerpc64-ps3-elf/4.7.0/../../../../powerpc64-ps3-elf/lib/libm.a(lib_a-sf_copysign.o)
 .bss           0x00000000100121e8        0x0 /opt/ps3dev/ppu/lib/gcc/powerpc64-ps3-elf/4.7.0/../../../../powerpc64-ps3-elf/lib/libsysbase.a(syscalls.o)
 .bss.__syscalls
                0x00000000100121e8      0x170 /opt/ps3dev/ppu/lib/gcc/powerpc64-ps3-elf/4.7.0/../../../../powerpc64-ps3-elf/lib/libsysbase.a(syscalls.o)
                0x00000000100121e8                __syscalls
 .bss           0x0000000010012358        0x0 /opt/ps3dev/ppu/lib/gcc/powerpc64-ps3-elf/4.7.0/../../../../powerpc64-ps3-elf/lib/libsysbase.a(sleep.o)
 .bss           0x0000000010012358        0x0 /opt/ps3dev/ppu/lib/gcc/powerpc64-ps3-elf/4.7.0/../../../../powerpc64-ps3-elf/lib/libc.a(lib_a-assert.o)
 .bss           0x0000000010012358        0x0 /opt/ps3dev/ppu/lib/gcc/powerpc64-ps3-elf/4.7.0/../../../../powerpc64-ps3-elf/lib/libc.a(lib_a-atexit.o)
 .bss           0x0000000010012358        0x0 /opt/ps3dev/ppu/lib/gcc/powerpc64-ps3-elf/4.7.0/../../../../powerpc64-ps3-elf/lib/libc.a(lib_a-errno.o)
 .bss           0x0000000010012358        0x0 /opt/ps3dev/ppu/lib/gcc/powerpc64-ps3-elf/4.7.0/../../../../powerpc64-ps3-elf/lib/libc.a(lib_a-exit.o)
 .bss           0x0000000010012358        0x0 /opt/ps3dev/ppu/lib/gcc/powerpc64-ps3-elf/4.7.0/../../../../powerpc64-ps3-elf/lib/libc.a(lib_a-fiprintf.o)
 .bss           0x0000000010012358        0x0 /opt/ps3dev/ppu/lib/gcc/powerpc64-ps3-elf/4.7.0/../../../../powerpc64-ps3-elf/lib/libc.a(lib_a-getreent.o)
 .bss           0x0000000010012358        0x0 /opt/ps3dev/ppu/lib/gcc/powerpc64-ps3-elf/4.7.0/../../../../powerpc64-ps3-elf/lib/libc.a(lib_a-impure.o)
 .bss           0x0000000010012358        0x0 /opt/ps3dev/ppu/lib/gcc/powerpc64-ps3-elf/4.7.0/../../../../powerpc64-ps3-elf/lib/libc.a(lib_a-malign.o)
 .bss           0x0000000010012358        0x0 /opt/ps3dev/ppu/lib/gcc/powerpc64-ps3-elf/4.7.0/../../../../powerpc64-ps3-elf/lib/libc.a(lib_a-malignr.o)
 .bss           0x0000000010012358        0x0 /opt/ps3dev/ppu/lib/gcc/powerpc64-ps3-elf/4.7.0/../../../../powerpc64-ps3-elf/lib/libc.a(lib_a-malloc.o)
 .bss           0x0000000010012358        0x0 /opt/ps3dev/ppu/lib/gcc/powerpc64-ps3-elf/4.7.0/../../../../powerpc64-ps3-elf/lib/libc.a(lib_a-mallocr.o)
 .bss.__malloc_max_total_mem
                0x0000000010012358        0x8 /opt/ps3dev/ppu/lib/gcc/powerpc64-ps3-elf/4.7.0/../../../../powerpc64-ps3-elf/lib/libc.a(lib_a-mallocr.o)
                0x0000000010012358                __malloc_max_total_mem
 .bss.__malloc_max_sbrked_mem
                0x0000000010012360        0x8 /opt/ps3dev/ppu/lib/gcc/powerpc64-ps3-elf/4.7.0/../../../../powerpc64-ps3-elf/lib/libc.a(lib_a-mallocr.o)
                0x0000000010012360                __malloc_max_sbrked_mem
 .bss.__malloc_top_pad
                0x0000000010012368        0x8 /opt/ps3dev/ppu/lib/gcc/powerpc64-ps3-elf/4.7.0/../../../../powerpc64-ps3-elf/lib/libc.a(lib_a-mallocr.o)
                0x0000000010012368                __malloc_top_pad
 .bss.__malloc_current_mallinfo
                0x0000000010012370       0x28 /opt/ps3dev/ppu/lib/gcc/powerpc64-ps3-elf/4.7.0/../../../../powerpc64-ps3-elf/lib/libc.a(lib_a-mallocr.o)
                0x0000000010012370                __malloc_current_mallinfo
 .bss           0x0000000010012398        0x0 /opt/ps3dev/ppu/lib/gcc/powerpc64-ps3-elf/4.7.0/../../../../powerpc64-ps3-elf/lib/libc.a(lib_a-memcpy.o)
 .bss           0x0000000010012398        0x0 /opt/ps3dev/ppu/lib/gcc/powerpc64-ps3-elf/4.7.0/../../../../powerpc64-ps3-elf/lib/libc.a(lib_a-memset.o)
 .bss           0x0000000010012398        0x0 /opt/ps3dev/ppu/lib/gcc/powerpc64-ps3-elf/4.7.0/../../../../powerpc64-ps3-elf/lib/libc.a(lib_a-mlock.o)
 .bss.__malloc_lock_object
                0x0000000010012398       0x18 /opt/ps3dev/ppu/lib/gcc/powerpc64-ps3-elf/4.7.0/../../../../powerpc64-ps3-elf/lib/libc.a(lib_a-mlock.o)
 .bss           0x00000000100123b0        0x0 /opt/ps3dev/ppu/lib/gcc/powerpc64-ps3-elf/4.7.0/../../../../powerpc64-ps3-elf/lib/libc.a(lib_a-printf.o)
 .bss           0x00000000100123b0        0x0 /opt/ps3dev/ppu/lib/gcc/powerpc64-ps3-elf/4.7.0/../../../../powerpc64-ps3-elf/lib/libc.a(lib_a-rand.o)
 .bss           0x00000000100123b0        0x0 /opt/ps3dev/ppu/lib/gcc/powerpc64-ps3-elf/4.7.0/../../../../powerpc64-ps3-elf/lib/libc.a(lib_a-strcasecmp.o)
 .bss           0x00000000100123b0        0x0 /opt/ps3dev/ppu/lib/gcc/powerpc64-ps3-elf/4.7.0/../../../../powerpc64-ps3-elf/lib/libc.a(lib_a-vfiprintf.o)
 .bss           0x00000000100123b0        0x0 /opt/ps3dev/ppu/lib/gcc/powerpc64-ps3-elf/4.7.0/../../../../powerpc64-ps3-elf/lib/libc.a(lib_a-vfprintf.o)
 .bss           0x00000000100123b0        0x0 /opt/ps3dev/ppu/lib/gcc/powerpc64-ps3-elf/4.7.0/../../../../powerpc64-ps3-elf/lib/libc.a(lib_a-wsetup.o)
 .bss           0x00000000100123b0        0x0 /opt/ps3dev/ppu/lib/gcc/powerpc64-ps3-elf/4.7.0/../../../../powerpc64-ps3-elf/lib/libc.a(lib_a-abort.o)
 .bss           0x00000000100123b0        0x0 /opt/ps3dev/ppu/lib/gcc/powerpc64-ps3-elf/4.7.0/../../../../powerpc64-ps3-elf/lib/libc.a(lib_a-__atexit.o)
 .bss.__atexit_lock
                0x00000000100123b0       0x18 /opt/ps3dev/ppu/lib/gcc/powerpc64-ps3-elf/4.7.0/../../../../powerpc64-ps3-elf/lib/libc.a(lib_a-__atexit.o)
                0x00000000100123b0                __atexit_lock
 .bss           0x00000000100123c8        0x0 /opt/ps3dev/ppu/lib/gcc/powerpc64-ps3-elf/4.7.0/../../../../powerpc64-ps3-elf/lib/libc.a(lib_a-__call_atexit.o)
 .bss           0x00000000100123c8        0x0 /opt/ps3dev/ppu/lib/gcc/powerpc64-ps3-elf/4.7.0/../../../../powerpc64-ps3-elf/lib/libc.a(lib_a-ctype_.o)
 .bss           0x00000000100123c8        0x0 /opt/ps3dev/ppu/lib/gcc/powerpc64-ps3-elf/4.7.0/../../../../powerpc64-ps3-elf/lib/libc.a(lib_a-dtoa.o)
 .bss           0x00000000100123c8        0x0 /opt/ps3dev/ppu/lib/gcc/powerpc64-ps3-elf/4.7.0/../../../../powerpc64-ps3-elf/lib/libc.a(lib_a-fflush.o)
 .bss           0x00000000100123c8        0x0 /opt/ps3dev/ppu/lib/gcc/powerpc64-ps3-elf/4.7.0/../../../../powerpc64-ps3-elf/lib/libc.a(lib_a-findfp.o)
 .bss.__sfp_lock
                0x00000000100123c8       0x18 /opt/ps3dev/ppu/lib/gcc/powerpc64-ps3-elf/4.7.0/../../../../powerpc64-ps3-elf/lib/libc.a(lib_a-findfp.o)
 .bss.__sinit_lock
                0x00000000100123e0       0x18 /opt/ps3dev/ppu/lib/gcc/powerpc64-ps3-elf/4.7.0/../../../../powerpc64-ps3-elf/lib/libc.a(lib_a-findfp.o)
 .bss           0x00000000100123f8        0x0 /opt/ps3dev/ppu/lib/gcc/powerpc64-ps3-elf/4.7.0/../../../../powerpc64-ps3-elf/lib/libc.a(lib_a-fputwc.o)
 .bss           0x00000000100123f8        0x0 /opt/ps3dev/ppu/lib/gcc/powerpc64-ps3-elf/4.7.0/../../../../powerpc64-ps3-elf/lib/libc.a(lib_a-freer.o)
 .bss           0x00000000100123f8        0x0 /opt/ps3dev/ppu/lib/gcc/powerpc64-ps3-elf/4.7.0/../../../../powerpc64-ps3-elf/lib/libc.a(lib_a-fvwrite.o)
 .bss           0x00000000100123f8        0x0 /opt/ps3dev/ppu/lib/gcc/powerpc64-ps3-elf/4.7.0/../../../../powerpc64-ps3-elf/lib/libc.a(lib_a-fwalk.o)
 .bss           0x00000000100123f8        0x0 /opt/ps3dev/ppu/lib/gcc/powerpc64-ps3-elf/4.7.0/../../../../powerpc64-ps3-elf/lib/libc.a(lib_a-locale.o)
 .bss._PathLocale
                0x00000000100123f8        0x8 /opt/ps3dev/ppu/lib/gcc/powerpc64-ps3-elf/4.7.0/../../../../powerpc64-ps3-elf/lib/libc.a(lib_a-locale.o)
                0x00000000100123f8                _PathLocale
 .bss.__nlocale_changed
                0x0000000010012400        0x4 /opt/ps3dev/ppu/lib/gcc/powerpc64-ps3-elf/4.7.0/../../../../powerpc64-ps3-elf/lib/libc.a(lib_a-locale.o)
                0x0000000010012400                __nlocale_changed
 .bss.__mlocale_changed
                0x0000000010012404        0x4 /opt/ps3dev/ppu/lib/gcc/powerpc64-ps3-elf/4.7.0/../../../../powerpc64-ps3-elf/lib/libc.a(lib_a-locale.o)
                0x0000000010012404                __mlocale_changed
 .bss           0x0000000010012408        0x0 /opt/ps3dev/ppu/lib/gcc/powerpc64-ps3-elf/4.7.0/../../../../powerpc64-ps3-elf/lib/libc.a(lib_a-lock_recursive.o)
 .bss           0x0000000010012408        0x0 /opt/ps3dev/ppu/lib/gcc/powerpc64-ps3-elf/4.7.0/../../../../powerpc64-ps3-elf/lib/libc.a(lib_a-makebuf.o)
 .bss           0x0000000010012408        0x0 /opt/ps3dev/ppu/lib/gcc/powerpc64-ps3-elf/4.7.0/../../../../powerpc64-ps3-elf/lib/libc.a(lib_a-memchr.o)
 .bss           0x0000000010012408        0x0 /opt/ps3dev/ppu/lib/gcc/powerpc64-ps3-elf/4.7.0/../../../../powerpc64-ps3-elf/lib/libc.a(lib_a-memmove.o)
 .bss           0x0000000010012408        0x0 /opt/ps3dev/ppu/lib/gcc/powerpc64-ps3-elf/4.7.0/../../../../powerpc64-ps3-elf/lib/libc.a(lib_a-mprec.o)
 .bss           0x0000000010012408        0x0 /opt/ps3dev/ppu/lib/gcc/powerpc64-ps3-elf/4.7.0/../../../../powerpc64-ps3-elf/lib/libc.a(lib_a-reallocr.o)
 .bss           0x0000000010012408        0x0 /opt/ps3dev/ppu/lib/gcc/powerpc64-ps3-elf/4.7.0/../../../../powerpc64-ps3-elf/lib/libc.a(lib_a-s_fpclassify.o)
 .bss           0x0000000010012408        0x0 /opt/ps3dev/ppu/lib/gcc/powerpc64-ps3-elf/4.7.0/../../../../powerpc64-ps3-elf/lib/libc.a(lib_a-signal.o)
 .bss           0x0000000010012408        0x0 /opt/ps3dev/ppu/lib/gcc/powerpc64-ps3-elf/4.7.0/../../../../powerpc64-ps3-elf/lib/libc.a(lib_a-stdio.o)
 .bss           0x0000000010012408        0x0 /opt/ps3dev/ppu/lib/gcc/powerpc64-ps3-elf/4.7.0/../../../../powerpc64-ps3-elf/lib/libc.a(lib_a-strcmp.o)
 .bss           0x0000000010012408        0x0 /opt/ps3dev/ppu/lib/gcc/powerpc64-ps3-elf/4.7.0/../../../../powerpc64-ps3-elf/lib/libc.a(lib_a-strlen.o)
 .bss           0x0000000010012408        0x0 /opt/ps3dev/ppu/lib/gcc/powerpc64-ps3-elf/4.7.0/../../../../powerpc64-ps3-elf/lib/libc.a(lib_a-wbuf.o)
 .bss           0x0000000010012408        0x0 /opt/ps3dev/ppu/lib/gcc/powerpc64-ps3-elf/4.7.0/../../../../powerpc64-ps3-elf/lib/libc.a(lib_a-wcrtomb.o)
 .bss           0x0000000010012408        0x0 /opt/ps3dev/ppu/lib/gcc/powerpc64-ps3-elf/4.7.0/../../../../powerpc64-ps3-elf/lib/libc.a(lib_a-wctomb_r.o)
 .bss           0x0000000010012408        0x0 /opt/ps3dev/ppu/lib/gcc/powerpc64-ps3-elf/4.7.0/../../../../powerpc64-ps3-elf/lib/libc.a(lib_a-callocr.o)
 .bss           0x0000000010012408        0x0 /opt/ps3dev/ppu/lib/gcc/powerpc64-ps3-elf/4.7.0/../../../../powerpc64-ps3-elf/lib/libc.a(lib_a-fclose.o)
 .bss           0x0000000010012408        0x0 /opt/ps3dev/ppu/lib/gcc/powerpc64-ps3-elf/4.7.0/../../../../powerpc64-ps3-elf/lib/libc.a(lib_a-lock_internal.o)
 .bss.metaLock  0x0000000010012408       0x18 /opt/ps3dev/ppu/lib/gcc/powerpc64-ps3-elf/4.7.0/../../../../powerpc64-ps3-elf/lib/libc.a(lib_a-lock_internal.o)
 .bss           0x0000000010012420        0x0 /opt/ps3dev/psl1ght/ppu/lib/librt.a(sbrk.o)
 .bss.__sbrk_baseaddr
                0x0000000010012420        0x4 /opt/ps3dev/psl1ght/ppu/lib/librt.a(sbrk.o)
 *fill*         0x0000000010012424        0x4 00
 .bss.__sbrk_curr_regionentry
                0x0000000010012428        0x8 /opt/ps3dev/psl1ght/ppu/lib/librt.a(sbrk.o)
 *fill*         0x0000000010012430       0x10 00
 .bss.__region_list_entries
                0x0000000010012440     0x2020 /opt/ps3dev/psl1ght/ppu/lib/librt.a(sbrk.o)
 .bss.__sbrk_spinlock
                0x0000000010014460        0x4 /opt/ps3dev/psl1ght/ppu/lib/librt.a(sbrk.o)
 *fill*         0x0000000010014464        0x4 00
 .bss.__region_heap
                0x0000000010014468       0x48 /opt/ps3dev/psl1ght/ppu/lib/librt.a(sbrk.o)
 .bss           0x00000000100144b0        0x0 /opt/ps3dev/psl1ght/ppu/lib/librt.a(exit.o)
 .bss           0x00000000100144b0        0x0 /opt/ps3dev/psl1ght/ppu/lib/librt.a(close.o)
 .bss           0x00000000100144b0        0x0 /opt/ps3dev/psl1ght/ppu/lib/librt.a(lseek.o)
 .bss           0x00000000100144b0        0x0 /opt/ps3dev/psl1ght/ppu/lib/librt.a(read.o)
 .bss           0x00000000100144b0        0x0 /opt/ps3dev/psl1ght/ppu/lib/librt.a(open.o)
 .bss           0x00000000100144b0        0x0 /opt/ps3dev/psl1ght/ppu/lib/librt.a(sleep.o)
 .bss           0x00000000100144b0        0x0 /opt/ps3dev/psl1ght/ppu/lib/librt.a(write.o)
 .bss           0x00000000100144b0        0x0 /opt/ps3dev/psl1ght/ppu/lib/librt.a(fstat.o)
 .bss           0x00000000100144b0        0x0 /opt/ps3dev/psl1ght/ppu/lib/librt.a(socket.o)
 .bss           0x00000000100144b0        0x0 /opt/ps3dev/psl1ght/ppu/lib/librt.a(lock.o)
 .bss           0x00000000100144b0        0x0 /opt/ps3dev/psl1ght/ppu/lib/librt.a(dirent.o)
 .bss           0x00000000100144b0        0x0 /opt/ps3dev/psl1ght/ppu/lib/librt.a(mkdir.o)
 .bss           0x00000000100144b0        0x0 /opt/ps3dev/psl1ght/ppu/lib/librt.a(times.o)
 .bss           0x00000000100144b0        0x0 /opt/ps3dev/psl1ght/ppu/lib/librt.a(umask.o)
 .bss           0x00000000100144b0        0x0 /opt/ps3dev/psl1ght/ppu/lib/librt.a(lv2errno.o)
 .bss           0x00000000100144b0        0x0 /opt/ps3dev/psl1ght/ppu/lib/librt.a(heap.o)
 .bss           0x00000000100144b0        0x0 /opt/ps3dev/psl1ght/ppu/lib/librt.a(chmod.o)
 .bss           0x00000000100144b0        0x0 /opt/ps3dev/psl1ght/ppu/lib/librt.a(rmdir.o)
 .bss           0x00000000100144b0        0x0 /opt/ps3dev/psl1ght/ppu/lib/librt.a(isatty.o)
 .bss           0x00000000100144b0        0x0 /opt/ps3dev/psl1ght/ppu/lib/librt.a(gettod.o)
 .bss           0x00000000100144b0        0x0 /opt/ps3dev/psl1ght/ppu/lib/librt.a(settod.o)
 .bss           0x00000000100144b0        0x0 /opt/ps3dev/psl1ght/ppu/lib/liblv2.a(sprx.o)
 .bss           0x00000000100144b0        0x0 /opt/ps3dev/ppu/lib/gcc/powerpc64-ps3-elf/4.7.0/../../../../powerpc64-ps3-elf/lib/libsysbase.a(close.o)
 .bss           0x00000000100144b0        0x0 /opt/ps3dev/ppu/lib/gcc/powerpc64-ps3-elf/4.7.0/../../../../powerpc64-ps3-elf/lib/libsysbase.a(sbrk.o)
 .bss           0x00000000100144b0        0x0 /opt/ps3dev/ppu/lib/gcc/powerpc64-ps3-elf/4.7.0/../../../../powerpc64-ps3-elf/lib/libsysbase.a(_exit.o)
 .bss           0x00000000100144b0        0x0 /opt/ps3dev/ppu/lib/gcc/powerpc64-ps3-elf/4.7.0/../../../../powerpc64-ps3-elf/lib/libsysbase.a(fstat.o)
 .bss           0x00000000100144b0        0x0 /opt/ps3dev/ppu/lib/gcc/powerpc64-ps3-elf/4.7.0/../../../../powerpc64-ps3-elf/lib/libsysbase.a(isatty.o)
 .bss           0x00000000100144b0        0x0 /opt/ps3dev/ppu/lib/gcc/powerpc64-ps3-elf/4.7.0/../../../../powerpc64-ps3-elf/lib/libsysbase.a(lseek.o)
 .bss           0x00000000100144b0        0x0 /opt/ps3dev/ppu/lib/gcc/powerpc64-ps3-elf/4.7.0/../../../../powerpc64-ps3-elf/lib/libsysbase.a(read.o)
 .bss           0x00000000100144b0        0x0 /opt/ps3dev/ppu/lib/gcc/powerpc64-ps3-elf/4.7.0/../../../../powerpc64-ps3-elf/lib/libsysbase.a(write.o)
 .bss           0x00000000100144b0        0x0 /opt/ps3dev/ppu/lib/gcc/powerpc64-ps3-elf/4.7.0/../../../../powerpc64-ps3-elf/lib/libsysbase.a(lock.o)
 .bss           0x00000000100144b0        0x0 /opt/ps3dev/ppu/lib/gcc/powerpc64-ps3-elf/4.7.0/../../../../powerpc64-ps3-elf/lib/libsysbase.a(getpid.o)
 .bss           0x00000000100144b0        0x0 /opt/ps3dev/ppu/lib/gcc/powerpc64-ps3-elf/4.7.0/../../../../powerpc64-ps3-elf/lib/libsysbase.a(kill.o)
 .bss           0x00000000100144b0        0x0 /opt/ps3dev/ppu/lib/gcc/powerpc64-ps3-elf/4.7.0/../../../../powerpc64-ps3-elf/lib/libc.a(lib_a-sscanf.o)
 .bss           0x00000000100144b0        0x0 /opt/ps3dev/ppu/lib/gcc/powerpc64-ps3-elf/4.7.0/../../../../powerpc64-ps3-elf/lib/libc.a(lib_a-strncpy.o)
 .bss           0x00000000100144b0        0x0 /opt/ps3dev/ppu/lib/gcc/powerpc64-ps3-elf/4.7.0/../../../../powerpc64-ps3-elf/lib/libc.a(lib_a-svfscanf.o)
 .bss           0x00000000100144b0        0x0 /opt/ps3dev/ppu/lib/gcc/powerpc64-ps3-elf/4.7.0/../../../../powerpc64-ps3-elf/lib/libc.a(lib_a-iswspace.o)
 .bss           0x00000000100144b0        0x0 /opt/ps3dev/ppu/lib/gcc/powerpc64-ps3-elf/4.7.0/../../../../powerpc64-ps3-elf/lib/libc.a(lib_a-mbrtowc.o)
 .bss           0x00000000100144b0        0x0 /opt/ps3dev/ppu/lib/gcc/powerpc64-ps3-elf/4.7.0/../../../../powerpc64-ps3-elf/lib/libc.a(lib_a-mbtowc_r.o)
 .bss           0x00000000100144b0        0x0 /opt/ps3dev/ppu/lib/gcc/powerpc64-ps3-elf/4.7.0/../../../../powerpc64-ps3-elf/lib/libc.a(lib_a-sccl.o)
 .bss           0x00000000100144b0        0x0 /opt/ps3dev/ppu/lib/gcc/powerpc64-ps3-elf/4.7.0/../../../../powerpc64-ps3-elf/lib/libc.a(lib_a-sf_nan.o)
 .bss           0x00000000100144b0        0x0 /opt/ps3dev/ppu/lib/gcc/powerpc64-ps3-elf/4.7.0/../../../../powerpc64-ps3-elf/lib/libc.a(lib_a-sprintf.o)
 .bss           0x00000000100144b0        0x0 /opt/ps3dev/ppu/lib/gcc/powerpc64-ps3-elf/4.7.0/../../../../powerpc64-ps3-elf/lib/libc.a(lib_a-strtod.o)
 .bss           0x00000000100144b0        0x0 /opt/ps3dev/ppu/lib/gcc/powerpc64-ps3-elf/4.7.0/../../../../powerpc64-ps3-elf/lib/libc.a(lib_a-strtoll_r.o)
 .bss           0x00000000100144b0        0x0 /opt/ps3dev/ppu/lib/gcc/powerpc64-ps3-elf/4.7.0/../../../../powerpc64-ps3-elf/lib/libc.a(lib_a-strtol.o)
 .bss           0x00000000100144b0        0x0 /opt/ps3dev/ppu/lib/gcc/powerpc64-ps3-elf/4.7.0/../../../../powerpc64-ps3-elf/lib/libc.a(lib_a-strtoull_r.o)
 .bss           0x00000000100144b0        0x0 /opt/ps3dev/ppu/lib/gcc/powerpc64-ps3-elf/4.7.0/../../../../powerpc64-ps3-elf/lib/libc.a(lib_a-strtoul.o)
 .bss           0x00000000100144b0        0x0 /opt/ps3dev/ppu/lib/gcc/powerpc64-ps3-elf/4.7.0/../../../../powerpc64-ps3-elf/lib/libc.a(lib_a-svfiscanf.o)
 .bss           0x00000000100144b0        0x0 /opt/ps3dev/ppu/lib/gcc/powerpc64-ps3-elf/4.7.0/../../../../powerpc64-ps3-elf/lib/libc.a(lib_a-svfprintf.o)
 .bss           0x00000000100144b0        0x0 /opt/ps3dev/ppu/lib/gcc/powerpc64-ps3-elf/4.7.0/../../../../powerpc64-ps3-elf/lib/libc.a(lib_a-ungetc.o)
 .bss           0x00000000100144b0        0x0 /opt/ps3dev/ppu/lib/gcc/powerpc64-ps3-elf/4.7.0/../../../../powerpc64-ps3-elf/lib/libc.a(lib_a-gdtoa-gethex.o)
 .bss           0x00000000100144b0        0x0 /opt/ps3dev/ppu/lib/gcc/powerpc64-ps3-elf/4.7.0/../../../../powerpc64-ps3-elf/lib/libc.a(lib_a-gdtoa-hexnan.o)
 .bss           0x00000000100144b0        0x0 /opt/ps3dev/ppu/lib/gcc/powerpc64-ps3-elf/4.7.0/../../../../powerpc64-ps3-elf/lib/libc.a(lib_a-strncmp.o)
 .bss           0x00000000100144b0        0x0 /opt/ps3dev/ppu/lib/gcc/powerpc64-ps3-elf/4.7.0/../../../../powerpc64-ps3-elf/lib/libc.a(lib_a-svfiprintf.o)
 .bss           0x00000000100144b0        0x0 /opt/ps3dev/ppu/lib/gcc/powerpc64-ps3-elf/4.7.0/crtend.o
 .bss           0x00000000100144b0        0x0 /opt/ps3dev/ppu/lib/gcc/powerpc64-ps3-elf/4.7.0/../../../../powerpc64-ps3-elf/lib/lv2-crtn.o
 *(COMMON)
 COMMON         0x00000000100144b0      0x140 main.o
                0x00000000100144b0                ghost
                0x0000000010014510                texture_ghost
                0x00000000100145d0                texture_ghost_offset
 COMMON         0x00000000100145f0       0x24 /opt/ps3dev/psl1ght/ppu/lib/libtiny3d.a(rsxutil.o)
                0x00000000100145f0                Video_buffer
                0x0000000010014600                Video_aspect
                0x0000000010014604                Video_pitch
                0x0000000010014608                context
                0x0000000010014610                Video_Resolution
 *fill*         0x0000000010014614        0x4 00
 COMMON         0x0000000010014618      0x100 /opt/ps3dev/ppu/lib/gcc/powerpc64-ps3-elf/4.7.0/../../../../powerpc64-ps3-elf/lib/libc.a(lib_a-gdtoa-gethex.o)
                0x0000000010014618                __hexdig
                0x0000000010014718                . = ALIGN (0x8)

.iplt           0x0000000010014718        0x0
 .iplt          0x0000000000000000        0x0 linker stubs
                0x0000000020000000                . = ALIGN (0x10000000)

.rsx_image
 *(.rsx_*)
                0x0000000020000000                _end = .
                0x0000000020000000                __end = .
                0x0000000020000000                PROVIDE (end, .)
                0x0000000020000000                . = ALIGN (0x8)

.stab
 *(.stab)

.stabstr
 *(.stabstr)

.stab.excl
 *(.stab.excl)

.stab.exclstr
 *(.stab.exclstr)

.stab.index
 *(.stab.index)

.stab.indexstr
 *(.stab.indexstr)

.comment        0x0000000000000000       0x11
 *(.comment)
 .comment       0x0000000000000000       0x11 /opt/ps3dev/ppu/lib/gcc/powerpc64-ps3-elf/4.7.0/crtbegin.o
                                         0x12 (size before relaxing)
 .comment       0x0000000000000000       0x12 /opt/ps3dev/ppu/lib/gcc/powerpc64-ps3-elf/4.7.0/../../../../powerpc64-ps3-elf/lib/lv2-crt0.o
 .comment       0x0000000000000000       0x12 main.o
 .comment       0x0000000000000000       0x12 /opt/ps3dev/psl1ght/ppu/lib/libtiny3d.a(matrix.o)
 .comment       0x0000000000000000       0x12 /opt/ps3dev/psl1ght/ppu/lib/libtiny3d.a(tiny3d.o)
 .comment       0x0000000000000000       0x12 /opt/ps3dev/psl1ght/ppu/lib/libtiny3d.a(realityVP.o)
 .comment       0x0000000000000000       0x12 /opt/ps3dev/psl1ght/ppu/lib/libtiny3d.a(rsxutil.o)
 .comment       0x0000000000000000       0x12 /opt/ps3dev/psl1ght/ppu/lib/libsysmodule.a(sprx.o)
 .comment       0x0000000000000000       0x12 /opt/ps3dev/psl1ght/ppu/lib/libgcm_sys.a(sprx.o)
 .comment       0x0000000000000000       0x12 /opt/ps3dev/psl1ght/ppu/lib/librsx.a(init.o)
 .comment       0x0000000000000000       0x12 /opt/ps3dev/psl1ght/ppu/lib/librsx.a(buffer.o)
 .comment       0x0000000000000000       0x12 /opt/ps3dev/psl1ght/ppu/lib/librsx.a(commands.o)
 .comment       0x0000000000000000       0x12 /opt/ps3dev/psl1ght/ppu/lib/librsx.a(mm.o)
 .comment       0x0000000000000000       0x12 /opt/ps3dev/psl1ght/ppu/lib/librsx.a(vertex_program.o)
 .comment       0x0000000000000000       0x12 /opt/ps3dev/psl1ght/ppu/lib/librsx.a(fragment_program.o)
 .comment       0x0000000000000000       0x12 /opt/ps3dev/psl1ght/ppu/lib/libsysutil.a(sprx.o)
 .comment       0x0000000000000000       0x12 /opt/ps3dev/psl1ght/ppu/lib/libsysutil.a(sysutil_wrapper.o)
 .comment       0x0000000000000000       0x12 /opt/ps3dev/psl1ght/ppu/lib/libio.a(sprx.o)
 .comment       0x0000000000000000       0x12 /opt/ps3dev/psl1ght/ppu/lib/libpngdec.a(pngdec.o)
 .comment       0x0000000000000000       0x12 /opt/ps3dev/psl1ght/ppu/lib/libpngdec.a(sprx.o)
 .comment       0x0000000000000000       0x12 /opt/ps3dev/ppu/lib/gcc/powerpc64-ps3-elf/4.7.0/../../../../powerpc64-ps3-elf/lib/libm.a(lib_a-sf_cos.o)
 .comment       0x0000000000000000       0x12 /opt/ps3dev/ppu/lib/gcc/powerpc64-ps3-elf/4.7.0/../../../../powerpc64-ps3-elf/lib/libm.a(lib_a-sf_sin.o)
 .comment       0x0000000000000000       0x12 /opt/ps3dev/ppu/lib/gcc/powerpc64-ps3-elf/4.7.0/../../../../powerpc64-ps3-elf/lib/libm.a(lib_a-sf_tan.o)
 .comment       0x0000000000000000       0x12 /opt/ps3dev/ppu/lib/gcc/powerpc64-ps3-elf/4.7.0/../../../../powerpc64-ps3-elf/lib/libm.a(lib_a-wf_sqrt.o)
 .comment       0x0000000000000000       0x12 /opt/ps3dev/ppu/lib/gcc/powerpc64-ps3-elf/4.7.0/../../../../powerpc64-ps3-elf/lib/libm.a(lib_a-ef_rem_pio2.o)
 .comment       0x0000000000000000       0x12 /opt/ps3dev/ppu/lib/gcc/powerpc64-ps3-elf/4.7.0/../../../../powerpc64-ps3-elf/lib/libm.a(lib_a-ef_sqrt.o)
 .comment       0x0000000000000000       0x12 /opt/ps3dev/ppu/lib/gcc/powerpc64-ps3-elf/4.7.0/../../../../powerpc64-ps3-elf/lib/libm.a(lib_a-kf_cos.o)
 .comment       0x0000000000000000       0x12 /opt/ps3dev/ppu/lib/gcc/powerpc64-ps3-elf/4.7.0/../../../../powerpc64-ps3-elf/lib/libm.a(lib_a-kf_rem_pio2.o)
 .comment       0x0000000000000000       0x12 /opt/ps3dev/ppu/lib/gcc/powerpc64-ps3-elf/4.7.0/../../../../powerpc64-ps3-elf/lib/libm.a(lib_a-kf_sin.o)
 .comment       0x0000000000000000       0x12 /opt/ps3dev/ppu/lib/gcc/powerpc64-ps3-elf/4.7.0/../../../../powerpc64-ps3-elf/lib/libm.a(lib_a-kf_tan.o)
 .comment       0x0000000000000000       0x12 /opt/ps3dev/ppu/lib/gcc/powerpc64-ps3-elf/4.7.0/../../../../powerpc64-ps3-elf/lib/libm.a(lib_a-sf_fabs.o)
 .comment       0x0000000000000000       0x12 /opt/ps3dev/ppu/lib/gcc/powerpc64-ps3-elf/4.7.0/../../../../powerpc64-ps3-elf/lib/libm.a(lib_a-sf_floor.o)
 .comment       0x0000000000000000       0x12 /opt/ps3dev/ppu/lib/gcc/powerpc64-ps3-elf/4.7.0/../../../../powerpc64-ps3-elf/lib/libm.a(lib_a-sf_fpclassify.o)
 .comment       0x0000000000000000       0x12 /opt/ps3dev/ppu/lib/gcc/powerpc64-ps3-elf/4.7.0/../../../../powerpc64-ps3-elf/lib/libm.a(lib_a-sf_scalbn.o)
 .comment       0x0000000000000000       0x12 /opt/ps3dev/ppu/lib/gcc/powerpc64-ps3-elf/4.7.0/../../../../powerpc64-ps3-elf/lib/libm.a(lib_a-s_lib_ver.o)
 .comment       0x0000000000000000       0x12 /opt/ps3dev/ppu/lib/gcc/powerpc64-ps3-elf/4.7.0/../../../../powerpc64-ps3-elf/lib/libm.a(lib_a-s_matherr.o)
 .comment       0x0000000000000000       0x12 /opt/ps3dev/ppu/lib/gcc/powerpc64-ps3-elf/4.7.0/../../../../powerpc64-ps3-elf/lib/libm.a(lib_a-sf_copysign.o)
 .comment       0x0000000000000000       0x12 /opt/ps3dev/ppu/lib/gcc/powerpc64-ps3-elf/4.7.0/../../../../powerpc64-ps3-elf/lib/libsysbase.a(syscalls.o)
 .comment       0x0000000000000000       0x12 /opt/ps3dev/ppu/lib/gcc/powerpc64-ps3-elf/4.7.0/../../../../powerpc64-ps3-elf/lib/libsysbase.a(sleep.o)
 .comment       0x0000000000000000       0x12 /opt/ps3dev/ppu/lib/gcc/powerpc64-ps3-elf/4.7.0/../../../../powerpc64-ps3-elf/lib/libc.a(lib_a-assert.o)
 .comment       0x0000000000000000       0x12 /opt/ps3dev/ppu/lib/gcc/powerpc64-ps3-elf/4.7.0/../../../../powerpc64-ps3-elf/lib/libc.a(lib_a-atexit.o)
 .comment       0x0000000000000000       0x12 /opt/ps3dev/ppu/lib/gcc/powerpc64-ps3-elf/4.7.0/../../../../powerpc64-ps3-elf/lib/libc.a(lib_a-errno.o)
 .comment       0x0000000000000000       0x12 /opt/ps3dev/ppu/lib/gcc/powerpc64-ps3-elf/4.7.0/../../../../powerpc64-ps3-elf/lib/libc.a(lib_a-exit.o)
 .comment       0x0000000000000000       0x12 /opt/ps3dev/ppu/lib/gcc/powerpc64-ps3-elf/4.7.0/../../../../powerpc64-ps3-elf/lib/libc.a(lib_a-fiprintf.o)
 .comment       0x0000000000000000       0x12 /opt/ps3dev/ppu/lib/gcc/powerpc64-ps3-elf/4.7.0/../../../../powerpc64-ps3-elf/lib/libc.a(lib_a-getreent.o)
 .comment       0x0000000000000000       0x12 /opt/ps3dev/ppu/lib/gcc/powerpc64-ps3-elf/4.7.0/../../../../powerpc64-ps3-elf/lib/libc.a(lib_a-impure.o)
 .comment       0x0000000000000000       0x12 /opt/ps3dev/ppu/lib/gcc/powerpc64-ps3-elf/4.7.0/../../../../powerpc64-ps3-elf/lib/libc.a(lib_a-malign.o)
 .comment       0x0000000000000000       0x12 /opt/ps3dev/ppu/lib/gcc/powerpc64-ps3-elf/4.7.0/../../../../powerpc64-ps3-elf/lib/libc.a(lib_a-malignr.o)
 .comment       0x0000000000000000       0x12 /opt/ps3dev/ppu/lib/gcc/powerpc64-ps3-elf/4.7.0/../../../../powerpc64-ps3-elf/lib/libc.a(lib_a-malloc.o)
 .comment       0x0000000000000000       0x12 /opt/ps3dev/ppu/lib/gcc/powerpc64-ps3-elf/4.7.0/../../../../powerpc64-ps3-elf/lib/libc.a(lib_a-mallocr.o)
 .comment       0x0000000000000000       0x12 /opt/ps3dev/ppu/lib/gcc/powerpc64-ps3-elf/4.7.0/../../../../powerpc64-ps3-elf/lib/libc.a(lib_a-memcpy.o)
 .comment       0x0000000000000000       0x12 /opt/ps3dev/ppu/lib/gcc/powerpc64-ps3-elf/4.7.0/../../../../powerpc64-ps3-elf/lib/libc.a(lib_a-memset.o)
 .comment       0x0000000000000000       0x12 /opt/ps3dev/ppu/lib/gcc/powerpc64-ps3-elf/4.7.0/../../../../powerpc64-ps3-elf/lib/libc.a(lib_a-mlock.o)
 .comment       0x0000000000000000       0x12 /opt/ps3dev/ppu/lib/gcc/powerpc64-ps3-elf/4.7.0/../../../../powerpc64-ps3-elf/lib/libc.a(lib_a-printf.o)
 .comment       0x0000000000000000       0x12 /opt/ps3dev/ppu/lib/gcc/powerpc64-ps3-elf/4.7.0/../../../../powerpc64-ps3-elf/lib/libc.a(lib_a-rand.o)
 .comment       0x0000000000000000       0x12 /opt/ps3dev/ppu/lib/gcc/powerpc64-ps3-elf/4.7.0/../../../../powerpc64-ps3-elf/lib/libc.a(lib_a-strcasecmp.o)
 .comment       0x0000000000000000       0x12 /opt/ps3dev/ppu/lib/gcc/powerpc64-ps3-elf/4.7.0/../../../../powerpc64-ps3-elf/lib/libc.a(lib_a-vfiprintf.o)
 .comment       0x0000000000000000       0x12 /opt/ps3dev/ppu/lib/gcc/powerpc64-ps3-elf/4.7.0/../../../../powerpc64-ps3-elf/lib/libc.a(lib_a-vfprintf.o)
 .comment       0x0000000000000000       0x12 /opt/ps3dev/ppu/lib/gcc/powerpc64-ps3-elf/4.7.0/../../../../powerpc64-ps3-elf/lib/libc.a(lib_a-wsetup.o)
 .comment       0x0000000000000000       0x12 /opt/ps3dev/ppu/lib/gcc/powerpc64-ps3-elf/4.7.0/../../../../powerpc64-ps3-elf/lib/libc.a(lib_a-abort.o)
 .comment       0x0000000000000000       0x12 /opt/ps3dev/ppu/lib/gcc/powerpc64-ps3-elf/4.7.0/../../../../powerpc64-ps3-elf/lib/libc.a(lib_a-__atexit.o)
 .comment       0x0000000000000000       0x12 /opt/ps3dev/ppu/lib/gcc/powerpc64-ps3-elf/4.7.0/../../../../powerpc64-ps3-elf/lib/libc.a(lib_a-__call_atexit.o)
 .comment       0x0000000000000000       0x12 /opt/ps3dev/ppu/lib/gcc/powerpc64-ps3-elf/4.7.0/../../../../powerpc64-ps3-elf/lib/libc.a(lib_a-ctype_.o)
 .comment       0x0000000000000000       0x12 /opt/ps3dev/ppu/lib/gcc/powerpc64-ps3-elf/4.7.0/../../../../powerpc64-ps3-elf/lib/libc.a(lib_a-dtoa.o)
 .comment       0x0000000000000000       0x12 /opt/ps3dev/ppu/lib/gcc/powerpc64-ps3-elf/4.7.0/../../../../powerpc64-ps3-elf/lib/libc.a(lib_a-fflush.o)
 .comment       0x0000000000000000       0x12 /opt/ps3dev/ppu/lib/gcc/powerpc64-ps3-elf/4.7.0/../../../../powerpc64-ps3-elf/lib/libc.a(lib_a-findfp.o)
 .comment       0x0000000000000000       0x12 /opt/ps3dev/ppu/lib/gcc/powerpc64-ps3-elf/4.7.0/../../../../powerpc64-ps3-elf/lib/libc.a(lib_a-fputwc.o)
 .comment       0x0000000000000000       0x12 /opt/ps3dev/ppu/lib/gcc/powerpc64-ps3-elf/4.7.0/../../../../powerpc64-ps3-elf/lib/libc.a(lib_a-freer.o)
 .comment       0x0000000000000000       0x12 /opt/ps3dev/ppu/lib/gcc/powerpc64-ps3-elf/4.7.0/../../../../powerpc64-ps3-elf/lib/libc.a(lib_a-fvwrite.o)
 .comment       0x0000000000000000       0x12 /opt/ps3dev/ppu/lib/gcc/powerpc64-ps3-elf/4.7.0/../../../../powerpc64-ps3-elf/lib/libc.a(lib_a-fwalk.o)
 .comment       0x0000000000000000       0x12 /opt/ps3dev/ppu/lib/gcc/powerpc64-ps3-elf/4.7.0/../../../../powerpc64-ps3-elf/lib/libc.a(lib_a-locale.o)
 .comment       0x0000000000000000       0x12 /opt/ps3dev/ppu/lib/gcc/powerpc64-ps3-elf/4.7.0/../../../../powerpc64-ps3-elf/lib/libc.a(lib_a-lock_recursive.o)
 .comment       0x0000000000000000       0x12 /opt/ps3dev/ppu/lib/gcc/powerpc64-ps3-elf/4.7.0/../../../../powerpc64-ps3-elf/lib/libc.a(lib_a-makebuf.o)
 .comment       0x0000000000000000       0x12 /opt/ps3dev/ppu/lib/gcc/powerpc64-ps3-elf/4.7.0/../../../../powerpc64-ps3-elf/lib/libc.a(lib_a-memchr.o)
 .comment       0x0000000000000000       0x12 /opt/ps3dev/ppu/lib/gcc/powerpc64-ps3-elf/4.7.0/../../../../powerpc64-ps3-elf/lib/libc.a(lib_a-memmove.o)
 .comment       0x0000000000000000       0x12 /opt/ps3dev/ppu/lib/gcc/powerpc64-ps3-elf/4.7.0/../../../../powerpc64-ps3-elf/lib/libc.a(lib_a-mprec.o)
 .comment       0x0000000000000000       0x12 /opt/ps3dev/ppu/lib/gcc/powerpc64-ps3-elf/4.7.0/../../../../powerpc64-ps3-elf/lib/libc.a(lib_a-reallocr.o)
 .comment       0x0000000000000000       0x12 /opt/ps3dev/ppu/lib/gcc/powerpc64-ps3-elf/4.7.0/../../../../powerpc64-ps3-elf/lib/libc.a(lib_a-s_fpclassify.o)
 .comment       0x0000000000000000       0x12 /opt/ps3dev/ppu/lib/gcc/powerpc64-ps3-elf/4.7.0/../../../../powerpc64-ps3-elf/lib/libc.a(lib_a-signal.o)
 .comment       0x0000000000000000       0x12 /opt/ps3dev/ppu/lib/gcc/powerpc64-ps3-elf/4.7.0/../../../../powerpc64-ps3-elf/lib/libc.a(lib_a-stdio.o)
 .comment       0x0000000000000000       0x12 /opt/ps3dev/ppu/lib/gcc/powerpc64-ps3-elf/4.7.0/../../../../powerpc64-ps3-elf/lib/libc.a(lib_a-strcmp.o)
 .comment       0x0000000000000000       0x12 /opt/ps3dev/ppu/lib/gcc/powerpc64-ps3-elf/4.7.0/../../../../powerpc64-ps3-elf/lib/libc.a(lib_a-strlen.o)
 .comment       0x0000000000000000       0x12 /opt/ps3dev/ppu/lib/gcc/powerpc64-ps3-elf/4.7.0/../../../../powerpc64-ps3-elf/lib/libc.a(lib_a-wbuf.o)
 .comment       0x0000000000000000       0x12 /opt/ps3dev/ppu/lib/gcc/powerpc64-ps3-elf/4.7.0/../../../../powerpc64-ps3-elf/lib/libc.a(lib_a-wcrtomb.o)
 .comment       0x0000000000000000       0x12 /opt/ps3dev/ppu/lib/gcc/powerpc64-ps3-elf/4.7.0/../../../../powerpc64-ps3-elf/lib/libc.a(lib_a-wctomb_r.o)
 .comment       0x0000000000000000       0x12 /opt/ps3dev/ppu/lib/gcc/powerpc64-ps3-elf/4.7.0/../../../../powerpc64-ps3-elf/lib/libc.a(lib_a-callocr.o)
 .comment       0x0000000000000000       0x12 /opt/ps3dev/ppu/lib/gcc/powerpc64-ps3-elf/4.7.0/../../../../powerpc64-ps3-elf/lib/libc.a(lib_a-fclose.o)
 .comment       0x0000000000000000       0x12 /opt/ps3dev/ppu/lib/gcc/powerpc64-ps3-elf/4.7.0/../../../../powerpc64-ps3-elf/lib/libc.a(lib_a-lock_internal.o)
 .comment       0x0000000000000000       0x12 /opt/ps3dev/psl1ght/ppu/lib/librt.a(sbrk.o)
 .comment       0x0000000000000000       0x12 /opt/ps3dev/psl1ght/ppu/lib/librt.a(exit.o)
 .comment       0x0000000000000000       0x12 /opt/ps3dev/psl1ght/ppu/lib/librt.a(close.o)
 .comment       0x0000000000000000       0x12 /opt/ps3dev/psl1ght/ppu/lib/librt.a(lseek.o)
 .comment       0x0000000000000000       0x12 /opt/ps3dev/psl1ght/ppu/lib/librt.a(read.o)
 .comment       0x0000000000000000       0x12 /opt/ps3dev/psl1ght/ppu/lib/librt.a(open.o)
 .comment       0x0000000000000000       0x12 /opt/ps3dev/psl1ght/ppu/lib/librt.a(sleep.o)
 .comment       0x0000000000000000       0x12 /opt/ps3dev/psl1ght/ppu/lib/librt.a(write.o)
 .comment       0x0000000000000000       0x12 /opt/ps3dev/psl1ght/ppu/lib/librt.a(fstat.o)
 .comment       0x0000000000000000       0x12 /opt/ps3dev/psl1ght/ppu/lib/librt.a(socket.o)
 .comment       0x0000000000000000       0x12 /opt/ps3dev/psl1ght/ppu/lib/librt.a(lock.o)
 .comment       0x0000000000000000       0x12 /opt/ps3dev/psl1ght/ppu/lib/librt.a(dirent.o)
 .comment       0x0000000000000000       0x12 /opt/ps3dev/psl1ght/ppu/lib/librt.a(mkdir.o)
 .comment       0x0000000000000000       0x12 /opt/ps3dev/psl1ght/ppu/lib/librt.a(times.o)
 .comment       0x0000000000000000       0x12 /opt/ps3dev/psl1ght/ppu/lib/librt.a(umask.o)
 .comment       0x0000000000000000       0x12 /opt/ps3dev/psl1ght/ppu/lib/librt.a(lv2errno.o)
 .comment       0x0000000000000000       0x12 /opt/ps3dev/psl1ght/ppu/lib/librt.a(heap.o)
 .comment       0x0000000000000000       0x12 /opt/ps3dev/psl1ght/ppu/lib/librt.a(chmod.o)
 .comment       0x0000000000000000       0x12 /opt/ps3dev/psl1ght/ppu/lib/librt.a(rmdir.o)
 .comment       0x0000000000000000       0x12 /opt/ps3dev/psl1ght/ppu/lib/librt.a(isatty.o)
 .comment       0x0000000000000000       0x12 /opt/ps3dev/psl1ght/ppu/lib/librt.a(gettod.o)
 .comment       0x0000000000000000       0x12 /opt/ps3dev/psl1ght/ppu/lib/librt.a(settod.o)
 .comment       0x0000000000000000       0x12 /opt/ps3dev/psl1ght/ppu/lib/liblv2.a(sprx.o)
 .comment       0x0000000000000000       0x12 /opt/ps3dev/ppu/lib/gcc/powerpc64-ps3-elf/4.7.0/../../../../powerpc64-ps3-elf/lib/libsysbase.a(close.o)
 .comment       0x0000000000000000       0x12 /opt/ps3dev/ppu/lib/gcc/powerpc64-ps3-elf/4.7.0/../../../../powerpc64-ps3-elf/lib/libsysbase.a(sbrk.o)
 .comment       0x0000000000000000       0x12 /opt/ps3dev/ppu/lib/gcc/powerpc64-ps3-elf/4.7.0/../../../../powerpc64-ps3-elf/lib/libsysbase.a(_exit.o)
 .comment       0x0000000000000000       0x12 /opt/ps3dev/ppu/lib/gcc/powerpc64-ps3-elf/4.7.0/../../../../powerpc64-ps3-elf/lib/libsysbase.a(fstat.o)
 .comment       0x0000000000000000       0x12 /opt/ps3dev/ppu/lib/gcc/powerpc64-ps3-elf/4.7.0/../../../../powerpc64-ps3-elf/lib/libsysbase.a(isatty.o)
 .comment       0x0000000000000000       0x12 /opt/ps3dev/ppu/lib/gcc/powerpc64-ps3-elf/4.7.0/../../../../powerpc64-ps3-elf/lib/libsysbase.a(lseek.o)
 .comment       0x0000000000000000       0x12 /opt/ps3dev/ppu/lib/gcc/powerpc64-ps3-elf/4.7.0/../../../../powerpc64-ps3-elf/lib/libsysbase.a(read.o)
 .comment       0x0000000000000000       0x12 /opt/ps3dev/ppu/lib/gcc/powerpc64-ps3-elf/4.7.0/../../../../powerpc64-ps3-elf/lib/libsysbase.a(write.o)
 .comment       0x0000000000000000       0x12 /opt/ps3dev/ppu/lib/gcc/powerpc64-ps3-elf/4.7.0/../../../../powerpc64-ps3-elf/lib/libsysbase.a(lock.o)
 .comment       0x0000000000000000       0x12 /opt/ps3dev/ppu/lib/gcc/powerpc64-ps3-elf/4.7.0/../../../../powerpc64-ps3-elf/lib/libsysbase.a(getpid.o)
 .comment       0x0000000000000000       0x12 /opt/ps3dev/ppu/lib/gcc/powerpc64-ps3-elf/4.7.0/../../../../powerpc64-ps3-elf/lib/libsysbase.a(kill.o)
 .comment       0x0000000000000000       0x12 /opt/ps3dev/ppu/lib/gcc/powerpc64-ps3-elf/4.7.0/../../../../powerpc64-ps3-elf/lib/libc.a(lib_a-sscanf.o)
 .comment       0x0000000000000000       0x12 /opt/ps3dev/ppu/lib/gcc/powerpc64-ps3-elf/4.7.0/../../../../powerpc64-ps3-elf/lib/libc.a(lib_a-strncpy.o)
 .comment       0x0000000000000000       0x12 /opt/ps3dev/ppu/lib/gcc/powerpc64-ps3-elf/4.7.0/../../../../powerpc64-ps3-elf/lib/libc.a(lib_a-svfscanf.o)
 .comment       0x0000000000000000       0x12 /opt/ps3dev/ppu/lib/gcc/powerpc64-ps3-elf/4.7.0/../../../../powerpc64-ps3-elf/lib/libc.a(lib_a-iswspace.o)
 .comment       0x0000000000000000       0x12 /opt/ps3dev/ppu/lib/gcc/powerpc64-ps3-elf/4.7.0/../../../../powerpc64-ps3-elf/lib/libc.a(lib_a-mbrtowc.o)
 .comment       0x0000000000000000       0x12 /opt/ps3dev/ppu/lib/gcc/powerpc64-ps3-elf/4.7.0/../../../../powerpc64-ps3-elf/lib/libc.a(lib_a-mbtowc_r.o)
 .comment       0x0000000000000000       0x12 /opt/ps3dev/ppu/lib/gcc/powerpc64-ps3-elf/4.7.0/../../../../powerpc64-ps3-elf/lib/libc.a(lib_a-sccl.o)
 .comment       0x0000000000000000       0x12 /opt/ps3dev/ppu/lib/gcc/powerpc64-ps3-elf/4.7.0/../../../../powerpc64-ps3-elf/lib/libc.a(lib_a-sf_nan.o)
 .comment       0x0000000000000000       0x12 /opt/ps3dev/ppu/lib/gcc/powerpc64-ps3-elf/4.7.0/../../../../powerpc64-ps3-elf/lib/libc.a(lib_a-sprintf.o)
 .comment       0x0000000000000000       0x12 /opt/ps3dev/ppu/lib/gcc/powerpc64-ps3-elf/4.7.0/../../../../powerpc64-ps3-elf/lib/libc.a(lib_a-strtod.o)
 .comment       0x0000000000000000       0x12 /opt/ps3dev/ppu/lib/gcc/powerpc64-ps3-elf/4.7.0/../../../../powerpc64-ps3-elf/lib/libc.a(lib_a-strtoll_r.o)
 .comment       0x0000000000000000       0x12 /opt/ps3dev/ppu/lib/gcc/powerpc64-ps3-elf/4.7.0/../../../../powerpc64-ps3-elf/lib/libc.a(lib_a-strtol.o)
 .comment       0x0000000000000000       0x12 /opt/ps3dev/ppu/lib/gcc/powerpc64-ps3-elf/4.7.0/../../../../powerpc64-ps3-elf/lib/libc.a(lib_a-strtoull_r.o)
 .comment       0x0000000000000000       0x12 /opt/ps3dev/ppu/lib/gcc/powerpc64-ps3-elf/4.7.0/../../../../powerpc64-ps3-elf/lib/libc.a(lib_a-strtoul.o)
 .comment       0x0000000000000000       0x12 /opt/ps3dev/ppu/lib/gcc/powerpc64-ps3-elf/4.7.0/../../../../powerpc64-ps3-elf/lib/libc.a(lib_a-svfiscanf.o)
 .comment       0x0000000000000000       0x12 /opt/ps3dev/ppu/lib/gcc/powerpc64-ps3-elf/4.7.0/../../../../powerpc64-ps3-elf/lib/libc.a(lib_a-svfprintf.o)
 .comment       0x0000000000000000       0x12 /opt/ps3dev/ppu/lib/gcc/powerpc64-ps3-elf/4.7.0/../../../../powerpc64-ps3-elf/lib/libc.a(lib_a-ungetc.o)
 .comment       0x0000000000000000       0x12 /opt/ps3dev/ppu/lib/gcc/powerpc64-ps3-elf/4.7.0/../../../../powerpc64-ps3-elf/lib/libc.a(lib_a-gdtoa-gethex.o)
 .comment       0x0000000000000000       0x12 /opt/ps3dev/ppu/lib/gcc/powerpc64-ps3-elf/4.7.0/../../../../powerpc64-ps3-elf/lib/libc.a(lib_a-gdtoa-hexnan.o)
 .comment       0x0000000000000000       0x12 /opt/ps3dev/ppu/lib/gcc/powerpc64-ps3-elf/4.7.0/../../../../powerpc64-ps3-elf/lib/libc.a(lib_a-strncmp.o)
 .comment       0x0000000000000000       0x12 /opt/ps3dev/ppu/lib/gcc/powerpc64-ps3-elf/4.7.0/../../../../powerpc64-ps3-elf/lib/libc.a(lib_a-svfiprintf.o)
 .comment       0x0000000000000000       0x12 /opt/ps3dev/ppu/lib/gcc/powerpc64-ps3-elf/4.7.0/crtend.o

.debug
 *(.debug)

.line
 *(.line)

.debug_srcinfo
 *(.debug_srcinfo)

.debug_sfnames
 *(.debug_sfnames)

.debug_aranges  0x0000000000000000     0x1860
 *(.debug_aranges)
 .debug_aranges
                0x0000000000000000       0x30 /opt/ps3dev/ppu/lib/gcc/powerpc64-ps3-elf/4.7.0/../../../../powerpc64-ps3-elf/lib/libm.a(lib_a-sf_cos.o)
 .debug_aranges
                0x0000000000000030       0x30 /opt/ps3dev/ppu/lib/gcc/powerpc64-ps3-elf/4.7.0/../../../../powerpc64-ps3-elf/lib/libm.a(lib_a-sf_sin.o)
 .debug_aranges
                0x0000000000000060       0x30 /opt/ps3dev/ppu/lib/gcc/powerpc64-ps3-elf/4.7.0/../../../../powerpc64-ps3-elf/lib/libm.a(lib_a-sf_tan.o)
 .debug_aranges
                0x0000000000000090       0x30 /opt/ps3dev/ppu/lib/gcc/powerpc64-ps3-elf/4.7.0/../../../../powerpc64-ps3-elf/lib/libm.a(lib_a-wf_sqrt.o)
 .debug_aranges
                0x00000000000000c0       0x30 /opt/ps3dev/ppu/lib/gcc/powerpc64-ps3-elf/4.7.0/../../../../powerpc64-ps3-elf/lib/libm.a(lib_a-ef_rem_pio2.o)
 .debug_aranges
                0x00000000000000f0       0x30 /opt/ps3dev/ppu/lib/gcc/powerpc64-ps3-elf/4.7.0/../../../../powerpc64-ps3-elf/lib/libm.a(lib_a-ef_sqrt.o)
 .debug_aranges
                0x0000000000000120       0x30 /opt/ps3dev/ppu/lib/gcc/powerpc64-ps3-elf/4.7.0/../../../../powerpc64-ps3-elf/lib/libm.a(lib_a-kf_cos.o)
 .debug_aranges
                0x0000000000000150       0x30 /opt/ps3dev/ppu/lib/gcc/powerpc64-ps3-elf/4.7.0/../../../../powerpc64-ps3-elf/lib/libm.a(lib_a-kf_rem_pio2.o)
 .debug_aranges
                0x0000000000000180       0x30 /opt/ps3dev/ppu/lib/gcc/powerpc64-ps3-elf/4.7.0/../../../../powerpc64-ps3-elf/lib/libm.a(lib_a-kf_sin.o)
 .debug_aranges
                0x00000000000001b0       0x30 /opt/ps3dev/ppu/lib/gcc/powerpc64-ps3-elf/4.7.0/../../../../powerpc64-ps3-elf/lib/libm.a(lib_a-kf_tan.o)
 .debug_aranges
                0x00000000000001e0       0x30 /opt/ps3dev/ppu/lib/gcc/powerpc64-ps3-elf/4.7.0/../../../../powerpc64-ps3-elf/lib/libm.a(lib_a-sf_fabs.o)
 .debug_aranges
                0x0000000000000210       0x30 /opt/ps3dev/ppu/lib/gcc/powerpc64-ps3-elf/4.7.0/../../../../powerpc64-ps3-elf/lib/libm.a(lib_a-sf_floor.o)
 .debug_aranges
                0x0000000000000240       0x30 /opt/ps3dev/ppu/lib/gcc/powerpc64-ps3-elf/4.7.0/../../../../powerpc64-ps3-elf/lib/libm.a(lib_a-sf_fpclassify.o)
 .debug_aranges
                0x0000000000000270       0x30 /opt/ps3dev/ppu/lib/gcc/powerpc64-ps3-elf/4.7.0/../../../../powerpc64-ps3-elf/lib/libm.a(lib_a-sf_scalbn.o)
 .debug_aranges
                0x00000000000002a0       0x20 /opt/ps3dev/ppu/lib/gcc/powerpc64-ps3-elf/4.7.0/../../../../powerpc64-ps3-elf/lib/libm.a(lib_a-s_lib_ver.o)
 .debug_aranges
                0x00000000000002c0       0x30 /opt/ps3dev/ppu/lib/gcc/powerpc64-ps3-elf/4.7.0/../../../../powerpc64-ps3-elf/lib/libm.a(lib_a-s_matherr.o)
 .debug_aranges
                0x00000000000002f0       0x30 /opt/ps3dev/ppu/lib/gcc/powerpc64-ps3-elf/4.7.0/../../../../powerpc64-ps3-elf/lib/libm.a(lib_a-sf_copysign.o)
 .debug_aranges
                0x0000000000000320       0x20 /opt/ps3dev/ppu/lib/gcc/powerpc64-ps3-elf/4.7.0/../../../../powerpc64-ps3-elf/lib/libsysbase.a(syscalls.o)
 .debug_aranges
                0x0000000000000340       0x40 /opt/ps3dev/ppu/lib/gcc/powerpc64-ps3-elf/4.7.0/../../../../powerpc64-ps3-elf/lib/libsysbase.a(sleep.o)
 .debug_aranges
                0x0000000000000380       0x40 /opt/ps3dev/ppu/lib/gcc/powerpc64-ps3-elf/4.7.0/../../../../powerpc64-ps3-elf/lib/libc.a(lib_a-assert.o)
 .debug_aranges
                0x00000000000003c0       0x30 /opt/ps3dev/ppu/lib/gcc/powerpc64-ps3-elf/4.7.0/../../../../powerpc64-ps3-elf/lib/libc.a(lib_a-atexit.o)
 .debug_aranges
                0x00000000000003f0       0x30 /opt/ps3dev/ppu/lib/gcc/powerpc64-ps3-elf/4.7.0/../../../../powerpc64-ps3-elf/lib/libc.a(lib_a-errno.o)
 .debug_aranges
                0x0000000000000420       0x30 /opt/ps3dev/ppu/lib/gcc/powerpc64-ps3-elf/4.7.0/../../../../powerpc64-ps3-elf/lib/libc.a(lib_a-exit.o)
 .debug_aranges
                0x0000000000000450       0x40 /opt/ps3dev/ppu/lib/gcc/powerpc64-ps3-elf/4.7.0/../../../../powerpc64-ps3-elf/lib/libc.a(lib_a-fiprintf.o)
 .debug_aranges
                0x0000000000000490       0x30 /opt/ps3dev/ppu/lib/gcc/powerpc64-ps3-elf/4.7.0/../../../../powerpc64-ps3-elf/lib/libc.a(lib_a-getreent.o)
 .debug_aranges
                0x00000000000004c0       0x20 /opt/ps3dev/ppu/lib/gcc/powerpc64-ps3-elf/4.7.0/../../../../powerpc64-ps3-elf/lib/libc.a(lib_a-impure.o)
 .debug_aranges
                0x00000000000004e0       0x30 /opt/ps3dev/ppu/lib/gcc/powerpc64-ps3-elf/4.7.0/../../../../powerpc64-ps3-elf/lib/libc.a(lib_a-malign.o)
 .debug_aranges
                0x0000000000000510       0x30 /opt/ps3dev/ppu/lib/gcc/powerpc64-ps3-elf/4.7.0/../../../../powerpc64-ps3-elf/lib/libc.a(lib_a-malignr.o)
 .debug_aranges
                0x0000000000000540       0x40 /opt/ps3dev/ppu/lib/gcc/powerpc64-ps3-elf/4.7.0/../../../../powerpc64-ps3-elf/lib/libc.a(lib_a-malloc.o)
 .debug_aranges
                0x0000000000000580       0x30 /opt/ps3dev/ppu/lib/gcc/powerpc64-ps3-elf/4.7.0/../../../../powerpc64-ps3-elf/lib/libc.a(lib_a-mallocr.o)
 .debug_aranges
                0x00000000000005b0       0x30 /opt/ps3dev/ppu/lib/gcc/powerpc64-ps3-elf/4.7.0/../../../../powerpc64-ps3-elf/lib/libc.a(lib_a-memcpy.o)
 .debug_aranges
                0x00000000000005e0       0x30 /opt/ps3dev/ppu/lib/gcc/powerpc64-ps3-elf/4.7.0/../../../../powerpc64-ps3-elf/lib/libc.a(lib_a-memset.o)
 .debug_aranges
                0x0000000000000610       0x40 /opt/ps3dev/ppu/lib/gcc/powerpc64-ps3-elf/4.7.0/../../../../powerpc64-ps3-elf/lib/libc.a(lib_a-mlock.o)
 .debug_aranges
                0x0000000000000650       0x40 /opt/ps3dev/ppu/lib/gcc/powerpc64-ps3-elf/4.7.0/../../../../powerpc64-ps3-elf/lib/libc.a(lib_a-printf.o)
 .debug_aranges
                0x0000000000000690       0x40 /opt/ps3dev/ppu/lib/gcc/powerpc64-ps3-elf/4.7.0/../../../../powerpc64-ps3-elf/lib/libc.a(lib_a-rand.o)
 .debug_aranges
                0x00000000000006d0       0x30 /opt/ps3dev/ppu/lib/gcc/powerpc64-ps3-elf/4.7.0/../../../../powerpc64-ps3-elf/lib/libc.a(lib_a-strcasecmp.o)
 .debug_aranges
                0x0000000000000700       0x50 /opt/ps3dev/ppu/lib/gcc/powerpc64-ps3-elf/4.7.0/../../../../powerpc64-ps3-elf/lib/libc.a(lib_a-vfiprintf.o)
 .debug_aranges
                0x0000000000000750       0x40 /opt/ps3dev/ppu/lib/gcc/powerpc64-ps3-elf/4.7.0/../../../../powerpc64-ps3-elf/lib/libc.a(lib_a-vfprintf.o)
 .debug_aranges
                0x0000000000000790       0x30 /opt/ps3dev/ppu/lib/gcc/powerpc64-ps3-elf/4.7.0/../../../../powerpc64-ps3-elf/lib/libc.a(lib_a-wsetup.o)
 .debug_aranges
                0x00000000000007c0       0x30 /opt/ps3dev/ppu/lib/gcc/powerpc64-ps3-elf/4.7.0/../../../../powerpc64-ps3-elf/lib/libc.a(lib_a-abort.o)
 .debug_aranges
                0x00000000000007f0       0x30 /opt/ps3dev/ppu/lib/gcc/powerpc64-ps3-elf/4.7.0/../../../../powerpc64-ps3-elf/lib/libc.a(lib_a-__atexit.o)
 .debug_aranges
                0x0000000000000820       0x30 /opt/ps3dev/ppu/lib/gcc/powerpc64-ps3-elf/4.7.0/../../../../powerpc64-ps3-elf/lib/libc.a(lib_a-__call_atexit.o)
 .debug_aranges
                0x0000000000000850       0x20 /opt/ps3dev/ppu/lib/gcc/powerpc64-ps3-elf/4.7.0/../../../../powerpc64-ps3-elf/lib/libc.a(lib_a-ctype_.o)
 .debug_aranges
                0x0000000000000870       0x40 /opt/ps3dev/ppu/lib/gcc/powerpc64-ps3-elf/4.7.0/../../../../powerpc64-ps3-elf/lib/libc.a(lib_a-dtoa.o)
 .debug_aranges
                0x00000000000008b0       0x50 /opt/ps3dev/ppu/lib/gcc/powerpc64-ps3-elf/4.7.0/../../../../powerpc64-ps3-elf/lib/libc.a(lib_a-fflush.o)
 .debug_aranges
                0x0000000000000900      0x100 /opt/ps3dev/ppu/lib/gcc/powerpc64-ps3-elf/4.7.0/../../../../powerpc64-ps3-elf/lib/libc.a(lib_a-findfp.o)
 .debug_aranges
                0x0000000000000a00       0x40 /opt/ps3dev/ppu/lib/gcc/powerpc64-ps3-elf/4.7.0/../../../../powerpc64-ps3-elf/lib/libc.a(lib_a-fputwc.o)
 .debug_aranges
                0x0000000000000a40       0x40 /opt/ps3dev/ppu/lib/gcc/powerpc64-ps3-elf/4.7.0/../../../../powerpc64-ps3-elf/lib/libc.a(lib_a-freer.o)
 .debug_aranges
                0x0000000000000a80       0x30 /opt/ps3dev/ppu/lib/gcc/powerpc64-ps3-elf/4.7.0/../../../../powerpc64-ps3-elf/lib/libc.a(lib_a-fvwrite.o)
 .debug_aranges
                0x0000000000000ab0       0x40 /opt/ps3dev/ppu/lib/gcc/powerpc64-ps3-elf/4.7.0/../../../../powerpc64-ps3-elf/lib/libc.a(lib_a-fwalk.o)
 .debug_aranges
                0x0000000000000af0       0xa0 /opt/ps3dev/ppu/lib/gcc/powerpc64-ps3-elf/4.7.0/../../../../powerpc64-ps3-elf/lib/libc.a(lib_a-locale.o)
 .debug_aranges
                0x0000000000000b90       0x70 /opt/ps3dev/ppu/lib/gcc/powerpc64-ps3-elf/4.7.0/../../../../powerpc64-ps3-elf/lib/libc.a(lib_a-lock_recursive.o)
 .debug_aranges
                0x0000000000000c00       0x30 /opt/ps3dev/ppu/lib/gcc/powerpc64-ps3-elf/4.7.0/../../../../powerpc64-ps3-elf/lib/libc.a(lib_a-makebuf.o)
 .debug_aranges
                0x0000000000000c30       0x30 /opt/ps3dev/ppu/lib/gcc/powerpc64-ps3-elf/4.7.0/../../../../powerpc64-ps3-elf/lib/libc.a(lib_a-memchr.o)
 .debug_aranges
                0x0000000000000c60       0x30 /opt/ps3dev/ppu/lib/gcc/powerpc64-ps3-elf/4.7.0/../../../../powerpc64-ps3-elf/lib/libc.a(lib_a-memmove.o)
 .debug_aranges
                0x0000000000000c90      0x150 /opt/ps3dev/ppu/lib/gcc/powerpc64-ps3-elf/4.7.0/../../../../powerpc64-ps3-elf/lib/libc.a(lib_a-mprec.o)
 .debug_aranges
                0x0000000000000de0       0x30 /opt/ps3dev/ppu/lib/gcc/powerpc64-ps3-elf/4.7.0/../../../../powerpc64-ps3-elf/lib/libc.a(lib_a-reallocr.o)
 .debug_aranges
                0x0000000000000e10       0x30 /opt/ps3dev/ppu/lib/gcc/powerpc64-ps3-elf/4.7.0/../../../../powerpc64-ps3-elf/lib/libc.a(lib_a-s_fpclassify.o)
 .debug_aranges
                0x0000000000000e40       0xa0 /opt/ps3dev/ppu/lib/gcc/powerpc64-ps3-elf/4.7.0/../../../../powerpc64-ps3-elf/lib/libc.a(lib_a-signal.o)
 .debug_aranges
                0x0000000000000ee0       0x70 /opt/ps3dev/ppu/lib/gcc/powerpc64-ps3-elf/4.7.0/../../../../powerpc64-ps3-elf/lib/libc.a(lib_a-stdio.o)
 .debug_aranges
                0x0000000000000f50       0x30 /opt/ps3dev/ppu/lib/gcc/powerpc64-ps3-elf/4.7.0/../../../../powerpc64-ps3-elf/lib/libc.a(lib_a-strcmp.o)
 .debug_aranges
                0x0000000000000f80       0x30 /opt/ps3dev/ppu/lib/gcc/powerpc64-ps3-elf/4.7.0/../../../../powerpc64-ps3-elf/lib/libc.a(lib_a-strlen.o)
 .debug_aranges
                0x0000000000000fb0       0x40 /opt/ps3dev/ppu/lib/gcc/powerpc64-ps3-elf/4.7.0/../../../../powerpc64-ps3-elf/lib/libc.a(lib_a-wbuf.o)
 .debug_aranges
                0x0000000000000ff0       0x40 /opt/ps3dev/ppu/lib/gcc/powerpc64-ps3-elf/4.7.0/../../../../powerpc64-ps3-elf/lib/libc.a(lib_a-wcrtomb.o)
 .debug_aranges
                0x0000000000001030       0x40 /opt/ps3dev/ppu/lib/gcc/powerpc64-ps3-elf/4.7.0/../../../../powerpc64-ps3-elf/lib/libc.a(lib_a-wctomb_r.o)
 .debug_aranges
                0x0000000000001070       0x30 /opt/ps3dev/ppu/lib/gcc/powerpc64-ps3-elf/4.7.0/../../../../powerpc64-ps3-elf/lib/libc.a(lib_a-callocr.o)
 .debug_aranges
                0x00000000000010a0       0x40 /opt/ps3dev/ppu/lib/gcc/powerpc64-ps3-elf/4.7.0/../../../../powerpc64-ps3-elf/lib/libc.a(lib_a-fclose.o)
 .debug_aranges
                0x00000000000010e0       0x40 /opt/ps3dev/ppu/lib/gcc/powerpc64-ps3-elf/4.7.0/../../../../powerpc64-ps3-elf/lib/libc.a(lib_a-lock_internal.o)
 .debug_aranges
                0x0000000000001120       0x30 /opt/ps3dev/ppu/lib/gcc/powerpc64-ps3-elf/4.7.0/../../../../powerpc64-ps3-elf/lib/libsysbase.a(close.o)
 .debug_aranges
                0x0000000000001150       0x30 /opt/ps3dev/ppu/lib/gcc/powerpc64-ps3-elf/4.7.0/../../../../powerpc64-ps3-elf/lib/libsysbase.a(sbrk.o)
 .debug_aranges
                0x0000000000001180       0x30 /opt/ps3dev/ppu/lib/gcc/powerpc64-ps3-elf/4.7.0/../../../../powerpc64-ps3-elf/lib/libsysbase.a(_exit.o)
 .debug_aranges
                0x00000000000011b0       0x30 /opt/ps3dev/ppu/lib/gcc/powerpc64-ps3-elf/4.7.0/../../../../powerpc64-ps3-elf/lib/libsysbase.a(fstat.o)
 .debug_aranges
                0x00000000000011e0       0x30 /opt/ps3dev/ppu/lib/gcc/powerpc64-ps3-elf/4.7.0/../../../../powerpc64-ps3-elf/lib/libsysbase.a(isatty.o)
 .debug_aranges
                0x0000000000001210       0x30 /opt/ps3dev/ppu/lib/gcc/powerpc64-ps3-elf/4.7.0/../../../../powerpc64-ps3-elf/lib/libsysbase.a(lseek.o)
 .debug_aranges
                0x0000000000001240       0x30 /opt/ps3dev/ppu/lib/gcc/powerpc64-ps3-elf/4.7.0/../../../../powerpc64-ps3-elf/lib/libsysbase.a(read.o)
 .debug_aranges
                0x0000000000001270       0x30 /opt/ps3dev/ppu/lib/gcc/powerpc64-ps3-elf/4.7.0/../../../../powerpc64-ps3-elf/lib/libsysbase.a(write.o)
 .debug_aranges
                0x00000000000012a0       0x70 /opt/ps3dev/ppu/lib/gcc/powerpc64-ps3-elf/4.7.0/../../../../powerpc64-ps3-elf/lib/libsysbase.a(lock.o)
 .debug_aranges
                0x0000000000001310       0x30 /opt/ps3dev/ppu/lib/gcc/powerpc64-ps3-elf/4.7.0/../../../../powerpc64-ps3-elf/lib/libsysbase.a(getpid.o)
 .debug_aranges
                0x0000000000001340       0x30 /opt/ps3dev/ppu/lib/gcc/powerpc64-ps3-elf/4.7.0/../../../../powerpc64-ps3-elf/lib/libsysbase.a(kill.o)
 .debug_aranges
                0x0000000000001370       0x40 /opt/ps3dev/ppu/lib/gcc/powerpc64-ps3-elf/4.7.0/../../../../powerpc64-ps3-elf/lib/libc.a(lib_a-sscanf.o)
 .debug_aranges
                0x00000000000013b0       0x30 /opt/ps3dev/ppu/lib/gcc/powerpc64-ps3-elf/4.7.0/../../../../powerpc64-ps3-elf/lib/libc.a(lib_a-strncpy.o)
 .debug_aranges
                0x00000000000013e0       0x30 /opt/ps3dev/ppu/lib/gcc/powerpc64-ps3-elf/4.7.0/../../../../powerpc64-ps3-elf/lib/libc.a(lib_a-svfscanf.o)
 .debug_aranges
                0x0000000000001410       0x30 /opt/ps3dev/ppu/lib/gcc/powerpc64-ps3-elf/4.7.0/../../../../powerpc64-ps3-elf/lib/libc.a(lib_a-iswspace.o)
 .debug_aranges
                0x0000000000001440       0x40 /opt/ps3dev/ppu/lib/gcc/powerpc64-ps3-elf/4.7.0/../../../../powerpc64-ps3-elf/lib/libc.a(lib_a-mbrtowc.o)
 .debug_aranges
                0x0000000000001480       0x40 /opt/ps3dev/ppu/lib/gcc/powerpc64-ps3-elf/4.7.0/../../../../powerpc64-ps3-elf/lib/libc.a(lib_a-mbtowc_r.o)
 .debug_aranges
                0x00000000000014c0       0x30 /opt/ps3dev/ppu/lib/gcc/powerpc64-ps3-elf/4.7.0/../../../../powerpc64-ps3-elf/lib/libc.a(lib_a-sccl.o)
 .debug_aranges
                0x00000000000014f0       0x30 /opt/ps3dev/ppu/lib/gcc/powerpc64-ps3-elf/4.7.0/../../../../powerpc64-ps3-elf/lib/libc.a(lib_a-sf_nan.o)
 .debug_aranges
                0x0000000000001520       0x40 /opt/ps3dev/ppu/lib/gcc/powerpc64-ps3-elf/4.7.0/../../../../powerpc64-ps3-elf/lib/libc.a(lib_a-sprintf.o)
 .debug_aranges
                0x0000000000001560       0x50 /opt/ps3dev/ppu/lib/gcc/powerpc64-ps3-elf/4.7.0/../../../../powerpc64-ps3-elf/lib/libc.a(lib_a-strtod.o)
 .debug_aranges
                0x00000000000015b0       0x30 /opt/ps3dev/ppu/lib/gcc/powerpc64-ps3-elf/4.7.0/../../../../powerpc64-ps3-elf/lib/libc.a(lib_a-strtoll_r.o)
 .debug_aranges
                0x00000000000015e0       0x40 /opt/ps3dev/ppu/lib/gcc/powerpc64-ps3-elf/4.7.0/../../../../powerpc64-ps3-elf/lib/libc.a(lib_a-strtol.o)
 .debug_aranges
                0x0000000000001620       0x30 /opt/ps3dev/ppu/lib/gcc/powerpc64-ps3-elf/4.7.0/../../../../powerpc64-ps3-elf/lib/libc.a(lib_a-strtoull_r.o)
 .debug_aranges
                0x0000000000001650       0x40 /opt/ps3dev/ppu/lib/gcc/powerpc64-ps3-elf/4.7.0/../../../../powerpc64-ps3-elf/lib/libc.a(lib_a-strtoul.o)
 .debug_aranges
                0x0000000000001690       0x60 /opt/ps3dev/ppu/lib/gcc/powerpc64-ps3-elf/4.7.0/../../../../powerpc64-ps3-elf/lib/libc.a(lib_a-svfiscanf.o)
 .debug_aranges
                0x00000000000016f0       0x30 /opt/ps3dev/ppu/lib/gcc/powerpc64-ps3-elf/4.7.0/../../../../powerpc64-ps3-elf/lib/libc.a(lib_a-svfprintf.o)
 .debug_aranges
                0x0000000000001720       0x50 /opt/ps3dev/ppu/lib/gcc/powerpc64-ps3-elf/4.7.0/../../../../powerpc64-ps3-elf/lib/libc.a(lib_a-ungetc.o)
 .debug_aranges
                0x0000000000001770       0x50 /opt/ps3dev/ppu/lib/gcc/powerpc64-ps3-elf/4.7.0/../../../../powerpc64-ps3-elf/lib/libc.a(lib_a-gdtoa-gethex.o)
 .debug_aranges
                0x00000000000017c0       0x30 /opt/ps3dev/ppu/lib/gcc/powerpc64-ps3-elf/4.7.0/../../../../powerpc64-ps3-elf/lib/libc.a(lib_a-gdtoa-hexnan.o)
 .debug_aranges
                0x00000000000017f0       0x30 /opt/ps3dev/ppu/lib/gcc/powerpc64-ps3-elf/4.7.0/../../../../powerpc64-ps3-elf/lib/libc.a(lib_a-strncmp.o)
 .debug_aranges
                0x0000000000001820       0x40 /opt/ps3dev/ppu/lib/gcc/powerpc64-ps3-elf/4.7.0/../../../../powerpc64-ps3-elf/lib/libc.a(lib_a-svfiprintf.o)

.debug_pubnames
 *(.debug_pubnames)

.debug_info     0x0000000000000000    0x414f6
 *(.debug_info .gnu.linkonce.wi.*)
 .debug_info    0x0000000000000000      0x20d /opt/ps3dev/ppu/lib/gcc/powerpc64-ps3-elf/4.7.0/../../../../powerpc64-ps3-elf/lib/libm.a(lib_a-sf_cos.o)
 .debug_info    0x000000000000020d      0x201 /opt/ps3dev/ppu/lib/gcc/powerpc64-ps3-elf/4.7.0/../../../../powerpc64-ps3-elf/lib/libm.a(lib_a-sf_sin.o)
 .debug_info    0x000000000000040e      0x1a5 /opt/ps3dev/ppu/lib/gcc/powerpc64-ps3-elf/4.7.0/../../../../powerpc64-ps3-elf/lib/libm.a(lib_a-sf_tan.o)
 .debug_info    0x00000000000005b3      0x258 /opt/ps3dev/ppu/lib/gcc/powerpc64-ps3-elf/4.7.0/../../../../powerpc64-ps3-elf/lib/libm.a(lib_a-wf_sqrt.o)
 .debug_info    0x000000000000080b      0x3c4 /opt/ps3dev/ppu/lib/gcc/powerpc64-ps3-elf/4.7.0/../../../../powerpc64-ps3-elf/lib/libm.a(lib_a-ef_rem_pio2.o)
 .debug_info    0x0000000000000bcf      0x1c3 /opt/ps3dev/ppu/lib/gcc/powerpc64-ps3-elf/4.7.0/../../../../powerpc64-ps3-elf/lib/libm.a(lib_a-ef_sqrt.o)
 .debug_info    0x0000000000000d92      0x1a6 /opt/ps3dev/ppu/lib/gcc/powerpc64-ps3-elf/4.7.0/../../../../powerpc64-ps3-elf/lib/libm.a(lib_a-kf_cos.o)
 .debug_info    0x0000000000000f38      0x3f3 /opt/ps3dev/ppu/lib/gcc/powerpc64-ps3-elf/4.7.0/../../../../powerpc64-ps3-elf/lib/libm.a(lib_a-kf_rem_pio2.o)
 .debug_info    0x000000000000132b      0x19d /opt/ps3dev/ppu/lib/gcc/powerpc64-ps3-elf/4.7.0/../../../../powerpc64-ps3-elf/lib/libm.a(lib_a-kf_sin.o)
 .debug_info    0x00000000000014c8      0x24a /opt/ps3dev/ppu/lib/gcc/powerpc64-ps3-elf/4.7.0/../../../../powerpc64-ps3-elf/lib/libm.a(lib_a-kf_tan.o)
 .debug_info    0x0000000000001712       0xe4 /opt/ps3dev/ppu/lib/gcc/powerpc64-ps3-elf/4.7.0/../../../../powerpc64-ps3-elf/lib/libm.a(lib_a-sf_fabs.o)
 .debug_info    0x00000000000017f6      0x174 /opt/ps3dev/ppu/lib/gcc/powerpc64-ps3-elf/4.7.0/../../../../powerpc64-ps3-elf/lib/libm.a(lib_a-sf_floor.o)
 .debug_info    0x000000000000196a       0xe0 /opt/ps3dev/ppu/lib/gcc/powerpc64-ps3-elf/4.7.0/../../../../powerpc64-ps3-elf/lib/libm.a(lib_a-sf_fpclassify.o)
 .debug_info    0x0000000000001a4a      0x235 /opt/ps3dev/ppu/lib/gcc/powerpc64-ps3-elf/4.7.0/../../../../powerpc64-ps3-elf/lib/libm.a(lib_a-sf_scalbn.o)
 .debug_info    0x0000000000001c7f       0xc4 /opt/ps3dev/ppu/lib/gcc/powerpc64-ps3-elf/4.7.0/../../../../powerpc64-ps3-elf/lib/libm.a(lib_a-s_lib_ver.o)
 .debug_info    0x0000000000001d43      0x14d /opt/ps3dev/ppu/lib/gcc/powerpc64-ps3-elf/4.7.0/../../../../powerpc64-ps3-elf/lib/libm.a(lib_a-s_matherr.o)
 .debug_info    0x0000000000001e90      0x14c /opt/ps3dev/ppu/lib/gcc/powerpc64-ps3-elf/4.7.0/../../../../powerpc64-ps3-elf/lib/libm.a(lib_a-sf_copysign.o)
 .debug_info    0x0000000000001fdc     0x152c /opt/ps3dev/ppu/lib/gcc/powerpc64-ps3-elf/4.7.0/../../../../powerpc64-ps3-elf/lib/libsysbase.a(syscalls.o)
 .debug_info    0x0000000000003508     0x1602 /opt/ps3dev/ppu/lib/gcc/powerpc64-ps3-elf/4.7.0/../../../../powerpc64-ps3-elf/lib/libsysbase.a(sleep.o)
 .debug_info    0x0000000000004b0a      0xb27 /opt/ps3dev/ppu/lib/gcc/powerpc64-ps3-elf/4.7.0/../../../../powerpc64-ps3-elf/lib/libc.a(lib_a-assert.o)
 .debug_info    0x0000000000005631      0x12b /opt/ps3dev/ppu/lib/gcc/powerpc64-ps3-elf/4.7.0/../../../../powerpc64-ps3-elf/lib/libc.a(lib_a-atexit.o)
 .debug_info    0x000000000000575c      0xa07 /opt/ps3dev/ppu/lib/gcc/powerpc64-ps3-elf/4.7.0/../../../../powerpc64-ps3-elf/lib/libc.a(lib_a-errno.o)
 .debug_info    0x0000000000006163      0xa5d /opt/ps3dev/ppu/lib/gcc/powerpc64-ps3-elf/4.7.0/../../../../powerpc64-ps3-elf/lib/libc.a(lib_a-exit.o)
 .debug_info    0x0000000000006bc0      0xb45 /opt/ps3dev/ppu/lib/gcc/powerpc64-ps3-elf/4.7.0/../../../../powerpc64-ps3-elf/lib/libc.a(lib_a-fiprintf.o)
 .debug_info    0x0000000000007705      0xaa7 /opt/ps3dev/ppu/lib/gcc/powerpc64-ps3-elf/4.7.0/../../../../powerpc64-ps3-elf/lib/libc.a(lib_a-getreent.o)
 .debug_info    0x00000000000081ac      0x9f2 /opt/ps3dev/ppu/lib/gcc/powerpc64-ps3-elf/4.7.0/../../../../powerpc64-ps3-elf/lib/libc.a(lib_a-impure.o)
 .debug_info    0x0000000000008b9e      0xa62 /opt/ps3dev/ppu/lib/gcc/powerpc64-ps3-elf/4.7.0/../../../../powerpc64-ps3-elf/lib/libc.a(lib_a-malign.o)
 .debug_info    0x0000000000009600      0xc02 /opt/ps3dev/ppu/lib/gcc/powerpc64-ps3-elf/4.7.0/../../../../powerpc64-ps3-elf/lib/libc.a(lib_a-malignr.o)
 .debug_info    0x000000000000a202      0xab4 /opt/ps3dev/ppu/lib/gcc/powerpc64-ps3-elf/4.7.0/../../../../powerpc64-ps3-elf/lib/libc.a(lib_a-malloc.o)
 .debug_info    0x000000000000acb6      0xf6a /opt/ps3dev/ppu/lib/gcc/powerpc64-ps3-elf/4.7.0/../../../../powerpc64-ps3-elf/lib/libc.a(lib_a-mallocr.o)
 .debug_info    0x000000000000bc20      0x149 /opt/ps3dev/ppu/lib/gcc/powerpc64-ps3-elf/4.7.0/../../../../powerpc64-ps3-elf/lib/libc.a(lib_a-memcpy.o)
 .debug_info    0x000000000000bd69      0x12f /opt/ps3dev/ppu/lib/gcc/powerpc64-ps3-elf/4.7.0/../../../../powerpc64-ps3-elf/lib/libc.a(lib_a-memset.o)
 .debug_info    0x000000000000be98      0xa9d /opt/ps3dev/ppu/lib/gcc/powerpc64-ps3-elf/4.7.0/../../../../powerpc64-ps3-elf/lib/libc.a(lib_a-mlock.o)
 .debug_info    0x000000000000c935      0xb31 /opt/ps3dev/ppu/lib/gcc/powerpc64-ps3-elf/4.7.0/../../../../powerpc64-ps3-elf/lib/libc.a(lib_a-printf.o)
 .debug_info    0x000000000000d466      0xa5a /opt/ps3dev/ppu/lib/gcc/powerpc64-ps3-elf/4.7.0/../../../../powerpc64-ps3-elf/lib/libc.a(lib_a-rand.o)
 .debug_info    0x000000000000dec0      0x177 /opt/ps3dev/ppu/lib/gcc/powerpc64-ps3-elf/4.7.0/../../../../powerpc64-ps3-elf/lib/libc.a(lib_a-strcasecmp.o)
 .debug_info    0x000000000000e037     0x14ca /opt/ps3dev/ppu/lib/gcc/powerpc64-ps3-elf/4.7.0/../../../../powerpc64-ps3-elf/lib/libc.a(lib_a-vfiprintf.o)
 .debug_info    0x000000000000f501     0x1ba6 /opt/ps3dev/ppu/lib/gcc/powerpc64-ps3-elf/4.7.0/../../../../powerpc64-ps3-elf/lib/libc.a(lib_a-vfprintf.o)
 .debug_info    0x00000000000110a7      0xaca /opt/ps3dev/ppu/lib/gcc/powerpc64-ps3-elf/4.7.0/../../../../powerpc64-ps3-elf/lib/libc.a(lib_a-wsetup.o)
 .debug_info    0x0000000000011b71       0xfb /opt/ps3dev/ppu/lib/gcc/powerpc64-ps3-elf/4.7.0/../../../../powerpc64-ps3-elf/lib/libc.a(lib_a-abort.o)
 .debug_info    0x0000000000011c6c      0xb3a /opt/ps3dev/ppu/lib/gcc/powerpc64-ps3-elf/4.7.0/../../../../powerpc64-ps3-elf/lib/libc.a(lib_a-__atexit.o)
 .debug_info    0x00000000000127a6      0xb36 /opt/ps3dev/ppu/lib/gcc/powerpc64-ps3-elf/4.7.0/../../../../powerpc64-ps3-elf/lib/libc.a(lib_a-__call_atexit.o)
 .debug_info    0x00000000000132dc       0x79 /opt/ps3dev/ppu/lib/gcc/powerpc64-ps3-elf/4.7.0/../../../../powerpc64-ps3-elf/lib/libc.a(lib_a-ctype_.o)
 .debug_info    0x0000000000013355     0x15a1 /opt/ps3dev/ppu/lib/gcc/powerpc64-ps3-elf/4.7.0/../../../../powerpc64-ps3-elf/lib/libc.a(lib_a-dtoa.o)
 .debug_info    0x00000000000148f6      0xd2b /opt/ps3dev/ppu/lib/gcc/powerpc64-ps3-elf/4.7.0/../../../../powerpc64-ps3-elf/lib/libc.a(lib_a-fflush.o)
 .debug_info    0x0000000000015621     0x1152 /opt/ps3dev/ppu/lib/gcc/powerpc64-ps3-elf/4.7.0/../../../../powerpc64-ps3-elf/lib/libc.a(lib_a-findfp.o)
 .debug_info    0x0000000000016773      0xcef /opt/ps3dev/ppu/lib/gcc/powerpc64-ps3-elf/4.7.0/../../../../powerpc64-ps3-elf/lib/libc.a(lib_a-fputwc.o)
 .debug_info    0x0000000000017462      0xde7 /opt/ps3dev/ppu/lib/gcc/powerpc64-ps3-elf/4.7.0/../../../../powerpc64-ps3-elf/lib/libc.a(lib_a-freer.o)
 .debug_info    0x0000000000018249      0xe16 /opt/ps3dev/ppu/lib/gcc/powerpc64-ps3-elf/4.7.0/../../../../powerpc64-ps3-elf/lib/libc.a(lib_a-fvwrite.o)
 .debug_info    0x000000000001905f      0xb1e /opt/ps3dev/ppu/lib/gcc/powerpc64-ps3-elf/4.7.0/../../../../powerpc64-ps3-elf/lib/libc.a(lib_a-fwalk.o)
 .debug_info    0x0000000000019b7d      0xe2c /opt/ps3dev/ppu/lib/gcc/powerpc64-ps3-elf/4.7.0/../../../../powerpc64-ps3-elf/lib/libc.a(lib_a-locale.o)
 .debug_info    0x000000000001a9a9      0x3ee /opt/ps3dev/ppu/lib/gcc/powerpc64-ps3-elf/4.7.0/../../../../powerpc64-ps3-elf/lib/libc.a(lib_a-lock_recursive.o)
 .debug_info    0x000000000001ad97      0xc91 /opt/ps3dev/ppu/lib/gcc/powerpc64-ps3-elf/4.7.0/../../../../powerpc64-ps3-elf/lib/libc.a(lib_a-makebuf.o)
 .debug_info    0x000000000001ba28      0x143 /opt/ps3dev/ppu/lib/gcc/powerpc64-ps3-elf/4.7.0/../../../../powerpc64-ps3-elf/lib/libc.a(lib_a-memchr.o)
 .debug_info    0x000000000001bb6b      0x149 /opt/ps3dev/ppu/lib/gcc/powerpc64-ps3-elf/4.7.0/../../../../powerpc64-ps3-elf/lib/libc.a(lib_a-memmove.o)
 .debug_info    0x000000000001bcb4     0x1935 /opt/ps3dev/ppu/lib/gcc/powerpc64-ps3-elf/4.7.0/../../../../powerpc64-ps3-elf/lib/libc.a(lib_a-mprec.o)
 .debug_info    0x000000000001d5e9      0xe76 /opt/ps3dev/ppu/lib/gcc/powerpc64-ps3-elf/4.7.0/../../../../powerpc64-ps3-elf/lib/libc.a(lib_a-reallocr.o)
 .debug_info    0x000000000001e45f      0x158 /opt/ps3dev/ppu/lib/gcc/powerpc64-ps3-elf/4.7.0/../../../../powerpc64-ps3-elf/lib/libc.a(lib_a-s_fpclassify.o)
 .debug_info    0x000000000001e5b7      0xd82 /opt/ps3dev/ppu/lib/gcc/powerpc64-ps3-elf/4.7.0/../../../../powerpc64-ps3-elf/lib/libc.a(lib_a-signal.o)
 .debug_info    0x000000000001f339      0xd37 /opt/ps3dev/ppu/lib/gcc/powerpc64-ps3-elf/4.7.0/../../../../powerpc64-ps3-elf/lib/libc.a(lib_a-stdio.o)
 .debug_info    0x0000000000020070       0xf5 /opt/ps3dev/ppu/lib/gcc/powerpc64-ps3-elf/4.7.0/../../../../powerpc64-ps3-elf/lib/libc.a(lib_a-strcmp.o)
 .debug_info    0x0000000000020165       0xf5 /opt/ps3dev/ppu/lib/gcc/powerpc64-ps3-elf/4.7.0/../../../../powerpc64-ps3-elf/lib/libc.a(lib_a-strlen.o)
 .debug_info    0x000000000002025a      0xb58 /opt/ps3dev/ppu/lib/gcc/powerpc64-ps3-elf/4.7.0/../../../../powerpc64-ps3-elf/lib/libc.a(lib_a-wbuf.o)
 .debug_info    0x0000000000020db2      0xc16 /opt/ps3dev/ppu/lib/gcc/powerpc64-ps3-elf/4.7.0/../../../../powerpc64-ps3-elf/lib/libc.a(lib_a-wcrtomb.o)
 .debug_info    0x00000000000219c8      0xb28 /opt/ps3dev/ppu/lib/gcc/powerpc64-ps3-elf/4.7.0/../../../../powerpc64-ps3-elf/lib/libc.a(lib_a-wctomb_r.o)
 .debug_info    0x00000000000224f0      0xb5f /opt/ps3dev/ppu/lib/gcc/powerpc64-ps3-elf/4.7.0/../../../../powerpc64-ps3-elf/lib/libc.a(lib_a-callocr.o)
 .debug_info    0x000000000002304f      0xc32 /opt/ps3dev/ppu/lib/gcc/powerpc64-ps3-elf/4.7.0/../../../../powerpc64-ps3-elf/lib/libc.a(lib_a-fclose.o)
 .debug_info    0x0000000000023c81      0x2de /opt/ps3dev/ppu/lib/gcc/powerpc64-ps3-elf/4.7.0/../../../../powerpc64-ps3-elf/lib/libc.a(lib_a-lock_internal.o)
 .debug_info    0x0000000000023f5f     0x158c /opt/ps3dev/ppu/lib/gcc/powerpc64-ps3-elf/4.7.0/../../../../powerpc64-ps3-elf/lib/libsysbase.a(close.o)
 .debug_info    0x00000000000254eb     0x1594 /opt/ps3dev/ppu/lib/gcc/powerpc64-ps3-elf/4.7.0/../../../../powerpc64-ps3-elf/lib/libsysbase.a(sbrk.o)
 .debug_info    0x0000000000026a7f     0x1568 /opt/ps3dev/ppu/lib/gcc/powerpc64-ps3-elf/4.7.0/../../../../powerpc64-ps3-elf/lib/libsysbase.a(_exit.o)
 .debug_info    0x0000000000027fe7     0x159f /opt/ps3dev/ppu/lib/gcc/powerpc64-ps3-elf/4.7.0/../../../../powerpc64-ps3-elf/lib/libsysbase.a(fstat.o)
 .debug_info    0x0000000000029586     0x158c /opt/ps3dev/ppu/lib/gcc/powerpc64-ps3-elf/4.7.0/../../../../powerpc64-ps3-elf/lib/libsysbase.a(isatty.o)
 .debug_info    0x000000000002ab12     0x15af /opt/ps3dev/ppu/lib/gcc/powerpc64-ps3-elf/4.7.0/../../../../powerpc64-ps3-elf/lib/libsysbase.a(lseek.o)
 .debug_info    0x000000000002c0c1     0x15b6 /opt/ps3dev/ppu/lib/gcc/powerpc64-ps3-elf/4.7.0/../../../../powerpc64-ps3-elf/lib/libsysbase.a(read.o)
 .debug_info    0x000000000002d677     0x15b6 /opt/ps3dev/ppu/lib/gcc/powerpc64-ps3-elf/4.7.0/../../../../powerpc64-ps3-elf/lib/libsysbase.a(write.o)
 .debug_info    0x000000000002ec2d     0x1746 /opt/ps3dev/ppu/lib/gcc/powerpc64-ps3-elf/4.7.0/../../../../powerpc64-ps3-elf/lib/libsysbase.a(lock.o)
 .debug_info    0x0000000000030373     0x157e /opt/ps3dev/ppu/lib/gcc/powerpc64-ps3-elf/4.7.0/../../../../powerpc64-ps3-elf/lib/libsysbase.a(getpid.o)
 .debug_info    0x00000000000318f1      0xa07 /opt/ps3dev/ppu/lib/gcc/powerpc64-ps3-elf/4.7.0/../../../../powerpc64-ps3-elf/lib/libsysbase.a(kill.o)
 .debug_info    0x00000000000322f8      0xbb9 /opt/ps3dev/ppu/lib/gcc/powerpc64-ps3-elf/4.7.0/../../../../powerpc64-ps3-elf/lib/libc.a(lib_a-sscanf.o)
 .debug_info    0x0000000000032eb1      0x140 /opt/ps3dev/ppu/lib/gcc/powerpc64-ps3-elf/4.7.0/../../../../powerpc64-ps3-elf/lib/libc.a(lib_a-strncpy.o)
 .debug_info    0x0000000000032ff1     0x1508 /opt/ps3dev/ppu/lib/gcc/powerpc64-ps3-elf/4.7.0/../../../../powerpc64-ps3-elf/lib/libc.a(lib_a-svfscanf.o)
 .debug_info    0x00000000000344f9       0xdd /opt/ps3dev/ppu/lib/gcc/powerpc64-ps3-elf/4.7.0/../../../../powerpc64-ps3-elf/lib/libc.a(lib_a-iswspace.o)
 .debug_info    0x00000000000345d6      0xc2f /opt/ps3dev/ppu/lib/gcc/powerpc64-ps3-elf/4.7.0/../../../../powerpc64-ps3-elf/lib/libc.a(lib_a-mbrtowc.o)
 .debug_info    0x0000000000035205      0xb59 /opt/ps3dev/ppu/lib/gcc/powerpc64-ps3-elf/4.7.0/../../../../powerpc64-ps3-elf/lib/libc.a(lib_a-mbtowc_r.o)
 .debug_info    0x0000000000035d5e      0x117 /opt/ps3dev/ppu/lib/gcc/powerpc64-ps3-elf/4.7.0/../../../../powerpc64-ps3-elf/lib/libc.a(lib_a-sccl.o)
 .debug_info    0x0000000000035e75       0xe4 /opt/ps3dev/ppu/lib/gcc/powerpc64-ps3-elf/4.7.0/../../../../powerpc64-ps3-elf/lib/libc.a(lib_a-sf_nan.o)
 .debug_info    0x0000000000035f59      0xb6c /opt/ps3dev/ppu/lib/gcc/powerpc64-ps3-elf/4.7.0/../../../../powerpc64-ps3-elf/lib/libc.a(lib_a-sprintf.o)
 .debug_info    0x0000000000036ac5     0x1a7f /opt/ps3dev/ppu/lib/gcc/powerpc64-ps3-elf/4.7.0/../../../../powerpc64-ps3-elf/lib/libc.a(lib_a-strtod.o)
 .debug_info    0x0000000000038544      0xaa1 /opt/ps3dev/ppu/lib/gcc/powerpc64-ps3-elf/4.7.0/../../../../powerpc64-ps3-elf/lib/libc.a(lib_a-strtoll_r.o)
 .debug_info    0x0000000000038fe5      0xb2c /opt/ps3dev/ppu/lib/gcc/powerpc64-ps3-elf/4.7.0/../../../../powerpc64-ps3-elf/lib/libc.a(lib_a-strtol.o)
 .debug_info    0x0000000000039b11      0xaa1 /opt/ps3dev/ppu/lib/gcc/powerpc64-ps3-elf/4.7.0/../../../../powerpc64-ps3-elf/lib/libc.a(lib_a-strtoull_r.o)
 .debug_info    0x000000000003a5b2      0xb2c /opt/ps3dev/ppu/lib/gcc/powerpc64-ps3-elf/4.7.0/../../../../powerpc64-ps3-elf/lib/libc.a(lib_a-strtoul.o)
 .debug_info    0x000000000003b0de     0x1419 /opt/ps3dev/ppu/lib/gcc/powerpc64-ps3-elf/4.7.0/../../../../powerpc64-ps3-elf/lib/libc.a(lib_a-svfiscanf.o)
 .debug_info    0x000000000003c4f7     0x18a1 /opt/ps3dev/ppu/lib/gcc/powerpc64-ps3-elf/4.7.0/../../../../powerpc64-ps3-elf/lib/libc.a(lib_a-svfprintf.o)
 .debug_info    0x000000000003dd98      0xcbc /opt/ps3dev/ppu/lib/gcc/powerpc64-ps3-elf/4.7.0/../../../../powerpc64-ps3-elf/lib/libc.a(lib_a-ungetc.o)
 .debug_info    0x000000000003ea54     0x1450 /opt/ps3dev/ppu/lib/gcc/powerpc64-ps3-elf/4.7.0/../../../../powerpc64-ps3-elf/lib/libc.a(lib_a-gdtoa-gethex.o)
 .debug_info    0x000000000003fea4      0x360 /opt/ps3dev/ppu/lib/gcc/powerpc64-ps3-elf/4.7.0/../../../../powerpc64-ps3-elf/lib/libc.a(lib_a-gdtoa-hexnan.o)
 .debug_info    0x0000000000040204      0x10d /opt/ps3dev/ppu/lib/gcc/powerpc64-ps3-elf/4.7.0/../../../../powerpc64-ps3-elf/lib/libc.a(lib_a-strncmp.o)
 .debug_info    0x0000000000040311     0x11e5 /opt/ps3dev/ppu/lib/gcc/powerpc64-ps3-elf/4.7.0/../../../../powerpc64-ps3-elf/lib/libc.a(lib_a-svfiprintf.o)

.debug_abbrev   0x0000000000000000     0xaadf
 *(.debug_abbrev)
 .debug_abbrev  0x0000000000000000      0x111 /opt/ps3dev/ppu/lib/gcc/powerpc64-ps3-elf/4.7.0/../../../../powerpc64-ps3-elf/lib/libm.a(lib_a-sf_cos.o)
 .debug_abbrev  0x0000000000000111       0xff /opt/ps3dev/ppu/lib/gcc/powerpc64-ps3-elf/4.7.0/../../../../powerpc64-ps3-elf/lib/libm.a(lib_a-sf_sin.o)
 .debug_abbrev  0x0000000000000210      0x10a /opt/ps3dev/ppu/lib/gcc/powerpc64-ps3-elf/4.7.0/../../../../powerpc64-ps3-elf/lib/libm.a(lib_a-sf_tan.o)
 .debug_abbrev  0x000000000000031a      0x13c /opt/ps3dev/ppu/lib/gcc/powerpc64-ps3-elf/4.7.0/../../../../powerpc64-ps3-elf/lib/libm.a(lib_a-wf_sqrt.o)
 .debug_abbrev  0x0000000000000456      0x15f /opt/ps3dev/ppu/lib/gcc/powerpc64-ps3-elf/4.7.0/../../../../powerpc64-ps3-elf/lib/libm.a(lib_a-ef_rem_pio2.o)
 .debug_abbrev  0x00000000000005b5       0xd5 /opt/ps3dev/ppu/lib/gcc/powerpc64-ps3-elf/4.7.0/../../../../powerpc64-ps3-elf/lib/libm.a(lib_a-ef_sqrt.o)
 .debug_abbrev  0x000000000000068a       0x89 /opt/ps3dev/ppu/lib/gcc/powerpc64-ps3-elf/4.7.0/../../../../powerpc64-ps3-elf/lib/libm.a(lib_a-kf_cos.o)
 .debug_abbrev  0x0000000000000713      0x14f /opt/ps3dev/ppu/lib/gcc/powerpc64-ps3-elf/4.7.0/../../../../powerpc64-ps3-elf/lib/libm.a(lib_a-kf_rem_pio2.o)
 .debug_abbrev  0x0000000000000862       0xb6 /opt/ps3dev/ppu/lib/gcc/powerpc64-ps3-elf/4.7.0/../../../../powerpc64-ps3-elf/lib/libm.a(lib_a-kf_sin.o)
 .debug_abbrev  0x0000000000000918      0x11b /opt/ps3dev/ppu/lib/gcc/powerpc64-ps3-elf/4.7.0/../../../../powerpc64-ps3-elf/lib/libm.a(lib_a-kf_tan.o)
 .debug_abbrev  0x0000000000000a33       0x71 /opt/ps3dev/ppu/lib/gcc/powerpc64-ps3-elf/4.7.0/../../../../powerpc64-ps3-elf/lib/libm.a(lib_a-sf_fabs.o)
 .debug_abbrev  0x0000000000000aa4       0xc6 /opt/ps3dev/ppu/lib/gcc/powerpc64-ps3-elf/4.7.0/../../../../powerpc64-ps3-elf/lib/libm.a(lib_a-sf_floor.o)
 .debug_abbrev  0x0000000000000b6a       0x71 /opt/ps3dev/ppu/lib/gcc/powerpc64-ps3-elf/4.7.0/../../../../powerpc64-ps3-elf/lib/libm.a(lib_a-sf_fpclassify.o)
 .debug_abbrev  0x0000000000000bdb      0x111 /opt/ps3dev/ppu/lib/gcc/powerpc64-ps3-elf/4.7.0/../../../../powerpc64-ps3-elf/lib/libm.a(lib_a-sf_scalbn.o)
 .debug_abbrev  0x0000000000000cec       0x4f /opt/ps3dev/ppu/lib/gcc/powerpc64-ps3-elf/4.7.0/../../../../powerpc64-ps3-elf/lib/libm.a(lib_a-s_lib_ver.o)
 .debug_abbrev  0x0000000000000d3b       0x9c /opt/ps3dev/ppu/lib/gcc/powerpc64-ps3-elf/4.7.0/../../../../powerpc64-ps3-elf/lib/libm.a(lib_a-s_matherr.o)
 .debug_abbrev  0x0000000000000dd7       0xce /opt/ps3dev/ppu/lib/gcc/powerpc64-ps3-elf/4.7.0/../../../../powerpc64-ps3-elf/lib/libm.a(lib_a-sf_copysign.o)
 .debug_abbrev  0x0000000000000ea5      0x19c /opt/ps3dev/ppu/lib/gcc/powerpc64-ps3-elf/4.7.0/../../../../powerpc64-ps3-elf/lib/libsysbase.a(syscalls.o)
 .debug_abbrev  0x0000000000001041      0x21e /opt/ps3dev/ppu/lib/gcc/powerpc64-ps3-elf/4.7.0/../../../../powerpc64-ps3-elf/lib/libsysbase.a(sleep.o)
 .debug_abbrev  0x000000000000125f      0x1eb /opt/ps3dev/ppu/lib/gcc/powerpc64-ps3-elf/4.7.0/../../../../powerpc64-ps3-elf/lib/libc.a(lib_a-assert.o)
 .debug_abbrev  0x000000000000144a       0xb7 /opt/ps3dev/ppu/lib/gcc/powerpc64-ps3-elf/4.7.0/../../../../powerpc64-ps3-elf/lib/libc.a(lib_a-atexit.o)
 .debug_abbrev  0x0000000000001501      0x18f /opt/ps3dev/ppu/lib/gcc/powerpc64-ps3-elf/4.7.0/../../../../powerpc64-ps3-elf/lib/libc.a(lib_a-errno.o)
 .debug_abbrev  0x0000000000001690      0x1d7 /opt/ps3dev/ppu/lib/gcc/powerpc64-ps3-elf/4.7.0/../../../../powerpc64-ps3-elf/lib/libc.a(lib_a-exit.o)
 .debug_abbrev  0x0000000000001867      0x205 /opt/ps3dev/ppu/lib/gcc/powerpc64-ps3-elf/4.7.0/../../../../powerpc64-ps3-elf/lib/libc.a(lib_a-fiprintf.o)
 .debug_abbrev  0x0000000000001a6c      0x1e3 /opt/ps3dev/ppu/lib/gcc/powerpc64-ps3-elf/4.7.0/../../../../powerpc64-ps3-elf/lib/libc.a(lib_a-getreent.o)
 .debug_abbrev  0x0000000000001c4f      0x16f /opt/ps3dev/ppu/lib/gcc/powerpc64-ps3-elf/4.7.0/../../../../powerpc64-ps3-elf/lib/libc.a(lib_a-impure.o)
 .debug_abbrev  0x0000000000001dbe      0x1c8 /opt/ps3dev/ppu/lib/gcc/powerpc64-ps3-elf/4.7.0/../../../../powerpc64-ps3-elf/lib/libc.a(lib_a-malign.o)
 .debug_abbrev  0x0000000000001f86      0x20a /opt/ps3dev/ppu/lib/gcc/powerpc64-ps3-elf/4.7.0/../../../../powerpc64-ps3-elf/lib/libc.a(lib_a-malignr.o)
 .debug_abbrev  0x0000000000002190      0x1f5 /opt/ps3dev/ppu/lib/gcc/powerpc64-ps3-elf/4.7.0/../../../../powerpc64-ps3-elf/lib/libc.a(lib_a-malloc.o)
 .debug_abbrev  0x0000000000002385      0x293 /opt/ps3dev/ppu/lib/gcc/powerpc64-ps3-elf/4.7.0/../../../../powerpc64-ps3-elf/lib/libc.a(lib_a-mallocr.o)
 .debug_abbrev  0x0000000000002618       0xad /opt/ps3dev/ppu/lib/gcc/powerpc64-ps3-elf/4.7.0/../../../../powerpc64-ps3-elf/lib/libc.a(lib_a-memcpy.o)
 .debug_abbrev  0x00000000000026c5       0xa1 /opt/ps3dev/ppu/lib/gcc/powerpc64-ps3-elf/4.7.0/../../../../powerpc64-ps3-elf/lib/libc.a(lib_a-memset.o)
 .debug_abbrev  0x0000000000002766      0x1ca /opt/ps3dev/ppu/lib/gcc/powerpc64-ps3-elf/4.7.0/../../../../powerpc64-ps3-elf/lib/libc.a(lib_a-mlock.o)
 .debug_abbrev  0x0000000000002930      0x214 /opt/ps3dev/ppu/lib/gcc/powerpc64-ps3-elf/4.7.0/../../../../powerpc64-ps3-elf/lib/libc.a(lib_a-printf.o)
 .debug_abbrev  0x0000000000002b44      0x1b8 /opt/ps3dev/ppu/lib/gcc/powerpc64-ps3-elf/4.7.0/../../../../powerpc64-ps3-elf/lib/libc.a(lib_a-rand.o)
 .debug_abbrev  0x0000000000002cfc       0xaf /opt/ps3dev/ppu/lib/gcc/powerpc64-ps3-elf/4.7.0/../../../../powerpc64-ps3-elf/lib/libc.a(lib_a-strcasecmp.o)
 .debug_abbrev  0x0000000000002dab      0x3a4 /opt/ps3dev/ppu/lib/gcc/powerpc64-ps3-elf/4.7.0/../../../../powerpc64-ps3-elf/lib/libc.a(lib_a-vfiprintf.o)
 .debug_abbrev  0x000000000000314f      0x3aa /opt/ps3dev/ppu/lib/gcc/powerpc64-ps3-elf/4.7.0/../../../../powerpc64-ps3-elf/lib/libc.a(lib_a-vfprintf.o)
 .debug_abbrev  0x00000000000034f9      0x1e6 /opt/ps3dev/ppu/lib/gcc/powerpc64-ps3-elf/4.7.0/../../../../powerpc64-ps3-elf/lib/libc.a(lib_a-wsetup.o)
 .debug_abbrev  0x00000000000036df       0x97 /opt/ps3dev/ppu/lib/gcc/powerpc64-ps3-elf/4.7.0/../../../../powerpc64-ps3-elf/lib/libc.a(lib_a-abort.o)
 .debug_abbrev  0x0000000000003776      0x233 /opt/ps3dev/ppu/lib/gcc/powerpc64-ps3-elf/4.7.0/../../../../powerpc64-ps3-elf/lib/libc.a(lib_a-__atexit.o)
 .debug_abbrev  0x00000000000039a9      0x234 /opt/ps3dev/ppu/lib/gcc/powerpc64-ps3-elf/4.7.0/../../../../powerpc64-ps3-elf/lib/libc.a(lib_a-__call_atexit.o)
 .debug_abbrev  0x0000000000003bdd       0x4e /opt/ps3dev/ppu/lib/gcc/powerpc64-ps3-elf/4.7.0/../../../../powerpc64-ps3-elf/lib/libc.a(lib_a-ctype_.o)
 .debug_abbrev  0x0000000000003c2b      0x284 /opt/ps3dev/ppu/lib/gcc/powerpc64-ps3-elf/4.7.0/../../../../powerpc64-ps3-elf/lib/libc.a(lib_a-dtoa.o)
 .debug_abbrev  0x0000000000003eaf      0x2c3 /opt/ps3dev/ppu/lib/gcc/powerpc64-ps3-elf/4.7.0/../../../../powerpc64-ps3-elf/lib/libc.a(lib_a-fflush.o)
 .debug_abbrev  0x0000000000004172      0x312 /opt/ps3dev/ppu/lib/gcc/powerpc64-ps3-elf/4.7.0/../../../../powerpc64-ps3-elf/lib/libc.a(lib_a-findfp.o)
 .debug_abbrev  0x0000000000004484      0x29d /opt/ps3dev/ppu/lib/gcc/powerpc64-ps3-elf/4.7.0/../../../../powerpc64-ps3-elf/lib/libc.a(lib_a-fputwc.o)
 .debug_abbrev  0x0000000000004721      0x25c /opt/ps3dev/ppu/lib/gcc/powerpc64-ps3-elf/4.7.0/../../../../powerpc64-ps3-elf/lib/libc.a(lib_a-freer.o)
 .debug_abbrev  0x000000000000497d      0x238 /opt/ps3dev/ppu/lib/gcc/powerpc64-ps3-elf/4.7.0/../../../../powerpc64-ps3-elf/lib/libc.a(lib_a-fvwrite.o)
 .debug_abbrev  0x0000000000004bb5      0x1b3 /opt/ps3dev/ppu/lib/gcc/powerpc64-ps3-elf/4.7.0/../../../../powerpc64-ps3-elf/lib/libc.a(lib_a-fwalk.o)
 .debug_abbrev  0x0000000000004d68      0x2a3 /opt/ps3dev/ppu/lib/gcc/powerpc64-ps3-elf/4.7.0/../../../../powerpc64-ps3-elf/lib/libc.a(lib_a-locale.o)
 .debug_abbrev  0x000000000000500b      0x119 /opt/ps3dev/ppu/lib/gcc/powerpc64-ps3-elf/4.7.0/../../../../powerpc64-ps3-elf/lib/libc.a(lib_a-lock_recursive.o)
 .debug_abbrev  0x0000000000005124      0x1f7 /opt/ps3dev/ppu/lib/gcc/powerpc64-ps3-elf/4.7.0/../../../../powerpc64-ps3-elf/lib/libc.a(lib_a-makebuf.o)
 .debug_abbrev  0x000000000000531b       0xad /opt/ps3dev/ppu/lib/gcc/powerpc64-ps3-elf/4.7.0/../../../../powerpc64-ps3-elf/lib/libc.a(lib_a-memchr.o)
 .debug_abbrev  0x00000000000053c8       0xad /opt/ps3dev/ppu/lib/gcc/powerpc64-ps3-elf/4.7.0/../../../../powerpc64-ps3-elf/lib/libc.a(lib_a-memmove.o)
 .debug_abbrev  0x0000000000005475      0x35c /opt/ps3dev/ppu/lib/gcc/powerpc64-ps3-elf/4.7.0/../../../../powerpc64-ps3-elf/lib/libc.a(lib_a-mprec.o)
 .debug_abbrev  0x00000000000057d1      0x241 /opt/ps3dev/ppu/lib/gcc/powerpc64-ps3-elf/4.7.0/../../../../powerpc64-ps3-elf/lib/libc.a(lib_a-reallocr.o)
 .debug_abbrev  0x0000000000005a12       0xca /opt/ps3dev/ppu/lib/gcc/powerpc64-ps3-elf/4.7.0/../../../../powerpc64-ps3-elf/lib/libc.a(lib_a-s_fpclassify.o)
 .debug_abbrev  0x0000000000005adc      0x2a8 /opt/ps3dev/ppu/lib/gcc/powerpc64-ps3-elf/4.7.0/../../../../powerpc64-ps3-elf/lib/libc.a(lib_a-signal.o)
 .debug_abbrev  0x0000000000005d84      0x238 /opt/ps3dev/ppu/lib/gcc/powerpc64-ps3-elf/4.7.0/../../../../powerpc64-ps3-elf/lib/libc.a(lib_a-stdio.o)
 .debug_abbrev  0x0000000000005fbc       0x76 /opt/ps3dev/ppu/lib/gcc/powerpc64-ps3-elf/4.7.0/../../../../powerpc64-ps3-elf/lib/libc.a(lib_a-strcmp.o)
 .debug_abbrev  0x0000000000006032       0x83 /opt/ps3dev/ppu/lib/gcc/powerpc64-ps3-elf/4.7.0/../../../../powerpc64-ps3-elf/lib/libc.a(lib_a-strlen.o)
 .debug_abbrev  0x00000000000060b5      0x22d /opt/ps3dev/ppu/lib/gcc/powerpc64-ps3-elf/4.7.0/../../../../powerpc64-ps3-elf/lib/libc.a(lib_a-wbuf.o)
 .debug_abbrev  0x00000000000062e2      0x200 /opt/ps3dev/ppu/lib/gcc/powerpc64-ps3-elf/4.7.0/../../../../powerpc64-ps3-elf/lib/libc.a(lib_a-wcrtomb.o)
 .debug_abbrev  0x00000000000064e2      0x21c /opt/ps3dev/ppu/lib/gcc/powerpc64-ps3-elf/4.7.0/../../../../powerpc64-ps3-elf/lib/libc.a(lib_a-wctomb_r.o)
 .debug_abbrev  0x00000000000066fe      0x204 /opt/ps3dev/ppu/lib/gcc/powerpc64-ps3-elf/4.7.0/../../../../powerpc64-ps3-elf/lib/libc.a(lib_a-callocr.o)
 .debug_abbrev  0x0000000000006902      0x263 /opt/ps3dev/ppu/lib/gcc/powerpc64-ps3-elf/4.7.0/../../../../powerpc64-ps3-elf/lib/libc.a(lib_a-fclose.o)
 .debug_abbrev  0x0000000000006b65      0x12d /opt/ps3dev/ppu/lib/gcc/powerpc64-ps3-elf/4.7.0/../../../../powerpc64-ps3-elf/lib/libc.a(lib_a-lock_internal.o)
 .debug_abbrev  0x0000000000006c92      0x1e2 /opt/ps3dev/ppu/lib/gcc/powerpc64-ps3-elf/4.7.0/../../../../powerpc64-ps3-elf/lib/libsysbase.a(close.o)
 .debug_abbrev  0x0000000000006e74      0x1f1 /opt/ps3dev/ppu/lib/gcc/powerpc64-ps3-elf/4.7.0/../../../../powerpc64-ps3-elf/lib/libsysbase.a(sbrk.o)
 .debug_abbrev  0x0000000000007065      0x1cb /opt/ps3dev/ppu/lib/gcc/powerpc64-ps3-elf/4.7.0/../../../../powerpc64-ps3-elf/lib/libsysbase.a(_exit.o)
 .debug_abbrev  0x0000000000007230      0x1e2 /opt/ps3dev/ppu/lib/gcc/powerpc64-ps3-elf/4.7.0/../../../../powerpc64-ps3-elf/lib/libsysbase.a(fstat.o)
 .debug_abbrev  0x0000000000007412      0x1e2 /opt/ps3dev/ppu/lib/gcc/powerpc64-ps3-elf/4.7.0/../../../../powerpc64-ps3-elf/lib/libsysbase.a(isatty.o)
 .debug_abbrev  0x00000000000075f4      0x1e2 /opt/ps3dev/ppu/lib/gcc/powerpc64-ps3-elf/4.7.0/../../../../powerpc64-ps3-elf/lib/libsysbase.a(lseek.o)
 .debug_abbrev  0x00000000000077d6      0x1e2 /opt/ps3dev/ppu/lib/gcc/powerpc64-ps3-elf/4.7.0/../../../../powerpc64-ps3-elf/lib/libsysbase.a(read.o)
 .debug_abbrev  0x00000000000079b8      0x1e2 /opt/ps3dev/ppu/lib/gcc/powerpc64-ps3-elf/4.7.0/../../../../powerpc64-ps3-elf/lib/libsysbase.a(write.o)
 .debug_abbrev  0x0000000000007b9a      0x20f /opt/ps3dev/ppu/lib/gcc/powerpc64-ps3-elf/4.7.0/../../../../powerpc64-ps3-elf/lib/libsysbase.a(lock.o)
 .debug_abbrev  0x0000000000007da9      0x1e2 /opt/ps3dev/ppu/lib/gcc/powerpc64-ps3-elf/4.7.0/../../../../powerpc64-ps3-elf/lib/libsysbase.a(getpid.o)
 .debug_abbrev  0x0000000000007f8b      0x18d /opt/ps3dev/ppu/lib/gcc/powerpc64-ps3-elf/4.7.0/../../../../powerpc64-ps3-elf/lib/libsysbase.a(kill.o)
 .debug_abbrev  0x0000000000008118      0x212 /opt/ps3dev/ppu/lib/gcc/powerpc64-ps3-elf/4.7.0/../../../../powerpc64-ps3-elf/lib/libc.a(lib_a-sscanf.o)
 .debug_abbrev  0x000000000000832a       0xa1 /opt/ps3dev/ppu/lib/gcc/powerpc64-ps3-elf/4.7.0/../../../../powerpc64-ps3-elf/lib/libc.a(lib_a-strncpy.o)
 .debug_abbrev  0x00000000000083cb      0x2b4 /opt/ps3dev/ppu/lib/gcc/powerpc64-ps3-elf/4.7.0/../../../../powerpc64-ps3-elf/lib/libc.a(lib_a-svfscanf.o)
 .debug_abbrev  0x000000000000867f       0x85 /opt/ps3dev/ppu/lib/gcc/powerpc64-ps3-elf/4.7.0/../../../../powerpc64-ps3-elf/lib/libc.a(lib_a-iswspace.o)
 .debug_abbrev  0x0000000000008704      0x1f1 /opt/ps3dev/ppu/lib/gcc/powerpc64-ps3-elf/4.7.0/../../../../powerpc64-ps3-elf/lib/libc.a(lib_a-mbrtowc.o)
 .debug_abbrev  0x00000000000088f5      0x22b /opt/ps3dev/ppu/lib/gcc/powerpc64-ps3-elf/4.7.0/../../../../powerpc64-ps3-elf/lib/libc.a(lib_a-mbtowc_r.o)
 .debug_abbrev  0x0000000000008b20       0x89 /opt/ps3dev/ppu/lib/gcc/powerpc64-ps3-elf/4.7.0/../../../../powerpc64-ps3-elf/lib/libc.a(lib_a-sccl.o)
 .debug_abbrev  0x0000000000008ba9       0x74 /opt/ps3dev/ppu/lib/gcc/powerpc64-ps3-elf/4.7.0/../../../../powerpc64-ps3-elf/lib/libc.a(lib_a-sf_nan.o)
 .debug_abbrev  0x0000000000008c1d      0x205 /opt/ps3dev/ppu/lib/gcc/powerpc64-ps3-elf/4.7.0/../../../../powerpc64-ps3-elf/lib/libc.a(lib_a-sprintf.o)
 .debug_abbrev  0x0000000000008e22      0x3c3 /opt/ps3dev/ppu/lib/gcc/powerpc64-ps3-elf/4.7.0/../../../../powerpc64-ps3-elf/lib/libc.a(lib_a-strtod.o)
 .debug_abbrev  0x00000000000091e5      0x1be /opt/ps3dev/ppu/lib/gcc/powerpc64-ps3-elf/4.7.0/../../../../powerpc64-ps3-elf/lib/libc.a(lib_a-strtoll_r.o)
 .debug_abbrev  0x00000000000093a3      0x221 /opt/ps3dev/ppu/lib/gcc/powerpc64-ps3-elf/4.7.0/../../../../powerpc64-ps3-elf/lib/libc.a(lib_a-strtol.o)
 .debug_abbrev  0x00000000000095c4      0x1be /opt/ps3dev/ppu/lib/gcc/powerpc64-ps3-elf/4.7.0/../../../../powerpc64-ps3-elf/lib/libc.a(lib_a-strtoull_r.o)
 .debug_abbrev  0x0000000000009782      0x221 /opt/ps3dev/ppu/lib/gcc/powerpc64-ps3-elf/4.7.0/../../../../powerpc64-ps3-elf/lib/libc.a(lib_a-strtoul.o)
 .debug_abbrev  0x00000000000099a3      0x328 /opt/ps3dev/ppu/lib/gcc/powerpc64-ps3-elf/4.7.0/../../../../powerpc64-ps3-elf/lib/libc.a(lib_a-svfiscanf.o)
 .debug_abbrev  0x0000000000009ccb      0x364 /opt/ps3dev/ppu/lib/gcc/powerpc64-ps3-elf/4.7.0/../../../../powerpc64-ps3-elf/lib/libc.a(lib_a-svfprintf.o)
 .debug_abbrev  0x000000000000a02f      0x24c /opt/ps3dev/ppu/lib/gcc/powerpc64-ps3-elf/4.7.0/../../../../powerpc64-ps3-elf/lib/libc.a(lib_a-ungetc.o)
 .debug_abbrev  0x000000000000a27b      0x389 /opt/ps3dev/ppu/lib/gcc/powerpc64-ps3-elf/4.7.0/../../../../powerpc64-ps3-elf/lib/libc.a(lib_a-gdtoa-gethex.o)
 .debug_abbrev  0x000000000000a604      0x177 /opt/ps3dev/ppu/lib/gcc/powerpc64-ps3-elf/4.7.0/../../../../powerpc64-ps3-elf/lib/libc.a(lib_a-gdtoa-hexnan.o)
 .debug_abbrev  0x000000000000a77b       0x83 /opt/ps3dev/ppu/lib/gcc/powerpc64-ps3-elf/4.7.0/../../../../powerpc64-ps3-elf/lib/libc.a(lib_a-strncmp.o)
 .debug_abbrev  0x000000000000a7fe      0x2e1 /opt/ps3dev/ppu/lib/gcc/powerpc64-ps3-elf/4.7.0/../../../../powerpc64-ps3-elf/lib/libc.a(lib_a-svfiprintf.o)

.debug_line     0x0000000000000000    0x11eb0
 *(.debug_line)
 .debug_line    0x0000000000000000      0x16c /opt/ps3dev/ppu/lib/gcc/powerpc64-ps3-elf/4.7.0/../../../../powerpc64-ps3-elf/lib/libm.a(lib_a-sf_cos.o)
 .debug_line    0x000000000000016c      0x16c /opt/ps3dev/ppu/lib/gcc/powerpc64-ps3-elf/4.7.0/../../../../powerpc64-ps3-elf/lib/libm.a(lib_a-sf_sin.o)
 .debug_line    0x00000000000002d8      0x175 /opt/ps3dev/ppu/lib/gcc/powerpc64-ps3-elf/4.7.0/../../../../powerpc64-ps3-elf/lib/libm.a(lib_a-sf_tan.o)
 .debug_line    0x000000000000044d      0x166 /opt/ps3dev/ppu/lib/gcc/powerpc64-ps3-elf/4.7.0/../../../../powerpc64-ps3-elf/lib/libm.a(lib_a-wf_sqrt.o)
 .debug_line    0x00000000000005b3      0x20b /opt/ps3dev/ppu/lib/gcc/powerpc64-ps3-elf/4.7.0/../../../../powerpc64-ps3-elf/lib/libm.a(lib_a-ef_rem_pio2.o)
 .debug_line    0x00000000000007be      0x14e /opt/ps3dev/ppu/lib/gcc/powerpc64-ps3-elf/4.7.0/../../../../powerpc64-ps3-elf/lib/libm.a(lib_a-ef_sqrt.o)
 .debug_line    0x000000000000090c       0xea /opt/ps3dev/ppu/lib/gcc/powerpc64-ps3-elf/4.7.0/../../../../powerpc64-ps3-elf/lib/libm.a(lib_a-kf_cos.o)
 .debug_line    0x00000000000009f6      0x46b /opt/ps3dev/ppu/lib/gcc/powerpc64-ps3-elf/4.7.0/../../../../powerpc64-ps3-elf/lib/libm.a(lib_a-kf_rem_pio2.o)
 .debug_line    0x0000000000000e61       0xd9 /opt/ps3dev/ppu/lib/gcc/powerpc64-ps3-elf/4.7.0/../../../../powerpc64-ps3-elf/lib/libm.a(lib_a-kf_sin.o)
 .debug_line    0x0000000000000f3a      0x1cb /opt/ps3dev/ppu/lib/gcc/powerpc64-ps3-elf/4.7.0/../../../../powerpc64-ps3-elf/lib/libm.a(lib_a-kf_tan.o)
 .debug_line    0x0000000000001105      0x115 /opt/ps3dev/ppu/lib/gcc/powerpc64-ps3-elf/4.7.0/../../../../powerpc64-ps3-elf/lib/libm.a(lib_a-sf_fabs.o)
 .debug_line    0x000000000000121a      0x17c /opt/ps3dev/ppu/lib/gcc/powerpc64-ps3-elf/4.7.0/../../../../powerpc64-ps3-elf/lib/libm.a(lib_a-sf_floor.o)
 .debug_line    0x0000000000001396      0x150 /opt/ps3dev/ppu/lib/gcc/powerpc64-ps3-elf/4.7.0/../../../../powerpc64-ps3-elf/lib/libm.a(lib_a-sf_fpclassify.o)
 .debug_line    0x00000000000014e6      0x15d /opt/ps3dev/ppu/lib/gcc/powerpc64-ps3-elf/4.7.0/../../../../powerpc64-ps3-elf/lib/libm.a(lib_a-sf_scalbn.o)
 .debug_line    0x0000000000001643       0x6f /opt/ps3dev/ppu/lib/gcc/powerpc64-ps3-elf/4.7.0/../../../../powerpc64-ps3-elf/lib/libm.a(lib_a-s_lib_ver.o)
 .debug_line    0x00000000000016b2       0xb5 /opt/ps3dev/ppu/lib/gcc/powerpc64-ps3-elf/4.7.0/../../../../powerpc64-ps3-elf/lib/libm.a(lib_a-s_matherr.o)
 .debug_line    0x0000000000001767      0x128 /opt/ps3dev/ppu/lib/gcc/powerpc64-ps3-elf/4.7.0/../../../../powerpc64-ps3-elf/lib/libm.a(lib_a-sf_copysign.o)
 .debug_line    0x000000000000188f      0x273 /opt/ps3dev/ppu/lib/gcc/powerpc64-ps3-elf/4.7.0/../../../../powerpc64-ps3-elf/lib/libsysbase.a(syscalls.o)
 .debug_line    0x0000000000001b02      0x2e2 /opt/ps3dev/ppu/lib/gcc/powerpc64-ps3-elf/4.7.0/../../../../powerpc64-ps3-elf/lib/libsysbase.a(sleep.o)
 .debug_line    0x0000000000001de4      0x29f /opt/ps3dev/ppu/lib/gcc/powerpc64-ps3-elf/4.7.0/../../../../powerpc64-ps3-elf/lib/libc.a(lib_a-assert.o)
 .debug_line    0x0000000000002083       0xc4 /opt/ps3dev/ppu/lib/gcc/powerpc64-ps3-elf/4.7.0/../../../../powerpc64-ps3-elf/lib/libc.a(lib_a-atexit.o)
 .debug_line    0x0000000000002147      0x262 /opt/ps3dev/ppu/lib/gcc/powerpc64-ps3-elf/4.7.0/../../../../powerpc64-ps3-elf/lib/libc.a(lib_a-errno.o)
 .debug_line    0x00000000000023a9      0x27f /opt/ps3dev/ppu/lib/gcc/powerpc64-ps3-elf/4.7.0/../../../../powerpc64-ps3-elf/lib/libc.a(lib_a-exit.o)
 .debug_line    0x0000000000002628      0x290 /opt/ps3dev/ppu/lib/gcc/powerpc64-ps3-elf/4.7.0/../../../../powerpc64-ps3-elf/lib/libc.a(lib_a-fiprintf.o)
 .debug_line    0x00000000000028b8      0x1f1 /opt/ps3dev/ppu/lib/gcc/powerpc64-ps3-elf/4.7.0/../../../../powerpc64-ps3-elf/lib/libc.a(lib_a-getreent.o)
 .debug_line    0x0000000000002aa9      0x243 /opt/ps3dev/ppu/lib/gcc/powerpc64-ps3-elf/4.7.0/../../../../powerpc64-ps3-elf/lib/libc.a(lib_a-impure.o)
 .debug_line    0x0000000000002cec      0x265 /opt/ps3dev/ppu/lib/gcc/powerpc64-ps3-elf/4.7.0/../../../../powerpc64-ps3-elf/lib/libc.a(lib_a-malign.o)
 .debug_line    0x0000000000002f51      0x2d1 /opt/ps3dev/ppu/lib/gcc/powerpc64-ps3-elf/4.7.0/../../../../powerpc64-ps3-elf/lib/libc.a(lib_a-malignr.o)
 .debug_line    0x0000000000003222      0x27c /opt/ps3dev/ppu/lib/gcc/powerpc64-ps3-elf/4.7.0/../../../../powerpc64-ps3-elf/lib/libc.a(lib_a-malloc.o)
 .debug_line    0x000000000000349e      0x4d8 /opt/ps3dev/ppu/lib/gcc/powerpc64-ps3-elf/4.7.0/../../../../powerpc64-ps3-elf/lib/libc.a(lib_a-mallocr.o)
 .debug_line    0x0000000000003976      0x18c /opt/ps3dev/ppu/lib/gcc/powerpc64-ps3-elf/4.7.0/../../../../powerpc64-ps3-elf/lib/libc.a(lib_a-memcpy.o)
 .debug_line    0x0000000000003b02      0x187 /opt/ps3dev/ppu/lib/gcc/powerpc64-ps3-elf/4.7.0/../../../../powerpc64-ps3-elf/lib/libc.a(lib_a-memset.o)
 .debug_line    0x0000000000003c89      0x271 /opt/ps3dev/ppu/lib/gcc/powerpc64-ps3-elf/4.7.0/../../../../powerpc64-ps3-elf/lib/libc.a(lib_a-mlock.o)
 .debug_line    0x0000000000003efa      0x295 /opt/ps3dev/ppu/lib/gcc/powerpc64-ps3-elf/4.7.0/../../../../powerpc64-ps3-elf/lib/libc.a(lib_a-printf.o)
 .debug_line    0x000000000000418f      0x281 /opt/ps3dev/ppu/lib/gcc/powerpc64-ps3-elf/4.7.0/../../../../powerpc64-ps3-elf/lib/libc.a(lib_a-rand.o)
 .debug_line    0x0000000000004410       0xf2 /opt/ps3dev/ppu/lib/gcc/powerpc64-ps3-elf/4.7.0/../../../../powerpc64-ps3-elf/lib/libc.a(lib_a-strcasecmp.o)
 .debug_line    0x0000000000004502      0x78d /opt/ps3dev/ppu/lib/gcc/powerpc64-ps3-elf/4.7.0/../../../../powerpc64-ps3-elf/lib/libc.a(lib_a-vfiprintf.o)
 .debug_line    0x0000000000004c8f      0xb42 /opt/ps3dev/ppu/lib/gcc/powerpc64-ps3-elf/4.7.0/../../../../powerpc64-ps3-elf/lib/libc.a(lib_a-vfprintf.o)
 .debug_line    0x00000000000057d1      0x2ef /opt/ps3dev/ppu/lib/gcc/powerpc64-ps3-elf/4.7.0/../../../../powerpc64-ps3-elf/lib/libc.a(lib_a-wsetup.o)
 .debug_line    0x0000000000005ac0      0x11b /opt/ps3dev/ppu/lib/gcc/powerpc64-ps3-elf/4.7.0/../../../../powerpc64-ps3-elf/lib/libc.a(lib_a-abort.o)
 .debug_line    0x0000000000005bdb      0x2b2 /opt/ps3dev/ppu/lib/gcc/powerpc64-ps3-elf/4.7.0/../../../../powerpc64-ps3-elf/lib/libc.a(lib_a-__atexit.o)
 .debug_line    0x0000000000005e8d      0x2db /opt/ps3dev/ppu/lib/gcc/powerpc64-ps3-elf/4.7.0/../../../../powerpc64-ps3-elf/lib/libc.a(lib_a-__call_atexit.o)
 .debug_line    0x0000000000006168       0x70 /opt/ps3dev/ppu/lib/gcc/powerpc64-ps3-elf/4.7.0/../../../../powerpc64-ps3-elf/lib/libc.a(lib_a-ctype_.o)
 .debug_line    0x00000000000061d8      0x87a /opt/ps3dev/ppu/lib/gcc/powerpc64-ps3-elf/4.7.0/../../../../powerpc64-ps3-elf/lib/libc.a(lib_a-dtoa.o)
 .debug_line    0x0000000000006a52      0x3df /opt/ps3dev/ppu/lib/gcc/powerpc64-ps3-elf/4.7.0/../../../../powerpc64-ps3-elf/lib/libc.a(lib_a-fflush.o)
 .debug_line    0x0000000000006e31      0x464 /opt/ps3dev/ppu/lib/gcc/powerpc64-ps3-elf/4.7.0/../../../../powerpc64-ps3-elf/lib/libc.a(lib_a-findfp.o)
 .debug_line    0x0000000000007295      0x30b /opt/ps3dev/ppu/lib/gcc/powerpc64-ps3-elf/4.7.0/../../../../powerpc64-ps3-elf/lib/libc.a(lib_a-fputwc.o)
 .debug_line    0x00000000000075a0      0x371 /opt/ps3dev/ppu/lib/gcc/powerpc64-ps3-elf/4.7.0/../../../../powerpc64-ps3-elf/lib/libc.a(lib_a-freer.o)
 .debug_line    0x0000000000007911      0x3e6 /opt/ps3dev/ppu/lib/gcc/powerpc64-ps3-elf/4.7.0/../../../../powerpc64-ps3-elf/lib/libc.a(lib_a-fvwrite.o)
 .debug_line    0x0000000000007cf7      0x2cd /opt/ps3dev/ppu/lib/gcc/powerpc64-ps3-elf/4.7.0/../../../../powerpc64-ps3-elf/lib/libc.a(lib_a-fwalk.o)
 .debug_line    0x0000000000007fc4      0x346 /opt/ps3dev/ppu/lib/gcc/powerpc64-ps3-elf/4.7.0/../../../../powerpc64-ps3-elf/lib/libc.a(lib_a-locale.o)
 .debug_line    0x000000000000830a      0x167 /opt/ps3dev/ppu/lib/gcc/powerpc64-ps3-elf/4.7.0/../../../../powerpc64-ps3-elf/lib/libc.a(lib_a-lock_recursive.o)
 .debug_line    0x0000000000008471      0x314 /opt/ps3dev/ppu/lib/gcc/powerpc64-ps3-elf/4.7.0/../../../../powerpc64-ps3-elf/lib/libc.a(lib_a-makebuf.o)
 .debug_line    0x0000000000008785      0x14f /opt/ps3dev/ppu/lib/gcc/powerpc64-ps3-elf/4.7.0/../../../../powerpc64-ps3-elf/lib/libc.a(lib_a-memchr.o)
 .debug_line    0x00000000000088d4      0x1a9 /opt/ps3dev/ppu/lib/gcc/powerpc64-ps3-elf/4.7.0/../../../../powerpc64-ps3-elf/lib/libc.a(lib_a-memmove.o)
 .debug_line    0x0000000000008a7d      0x9be /opt/ps3dev/ppu/lib/gcc/powerpc64-ps3-elf/4.7.0/../../../../powerpc64-ps3-elf/lib/libc.a(lib_a-mprec.o)
 .debug_line    0x000000000000943b      0x411 /opt/ps3dev/ppu/lib/gcc/powerpc64-ps3-elf/4.7.0/../../../../powerpc64-ps3-elf/lib/libc.a(lib_a-reallocr.o)
 .debug_line    0x000000000000984c      0x17b /opt/ps3dev/ppu/lib/gcc/powerpc64-ps3-elf/4.7.0/../../../../powerpc64-ps3-elf/lib/libc.a(lib_a-s_fpclassify.o)
 .debug_line    0x00000000000099c7      0x398 /opt/ps3dev/ppu/lib/gcc/powerpc64-ps3-elf/4.7.0/../../../../powerpc64-ps3-elf/lib/libc.a(lib_a-signal.o)
 .debug_line    0x0000000000009d5f      0x304 /opt/ps3dev/ppu/lib/gcc/powerpc64-ps3-elf/4.7.0/../../../../powerpc64-ps3-elf/lib/libc.a(lib_a-stdio.o)
 .debug_line    0x000000000000a063       0xd6 /opt/ps3dev/ppu/lib/gcc/powerpc64-ps3-elf/4.7.0/../../../../powerpc64-ps3-elf/lib/libc.a(lib_a-strcmp.o)
 .debug_line    0x000000000000a139      0x12a /opt/ps3dev/ppu/lib/gcc/powerpc64-ps3-elf/4.7.0/../../../../powerpc64-ps3-elf/lib/libc.a(lib_a-strlen.o)
 .debug_line    0x000000000000a263      0x312 /opt/ps3dev/ppu/lib/gcc/powerpc64-ps3-elf/4.7.0/../../../../powerpc64-ps3-elf/lib/libc.a(lib_a-wbuf.o)
 .debug_line    0x000000000000a575      0x2c5 /opt/ps3dev/ppu/lib/gcc/powerpc64-ps3-elf/4.7.0/../../../../powerpc64-ps3-elf/lib/libc.a(lib_a-wcrtomb.o)
 .debug_line    0x000000000000a83a      0x2a7 /opt/ps3dev/ppu/lib/gcc/powerpc64-ps3-elf/4.7.0/../../../../powerpc64-ps3-elf/lib/libc.a(lib_a-wctomb_r.o)
 .debug_line    0x000000000000aae1      0x291 /opt/ps3dev/ppu/lib/gcc/powerpc64-ps3-elf/4.7.0/../../../../powerpc64-ps3-elf/lib/libc.a(lib_a-callocr.o)
 .debug_line    0x000000000000ad72      0x2ee /opt/ps3dev/ppu/lib/gcc/powerpc64-ps3-elf/4.7.0/../../../../powerpc64-ps3-elf/lib/libc.a(lib_a-fclose.o)
 .debug_line    0x000000000000b060      0x136 /opt/ps3dev/ppu/lib/gcc/powerpc64-ps3-elf/4.7.0/../../../../powerpc64-ps3-elf/lib/libc.a(lib_a-lock_internal.o)
 .debug_line    0x000000000000b196      0x2bb /opt/ps3dev/ppu/lib/gcc/powerpc64-ps3-elf/4.7.0/../../../../powerpc64-ps3-elf/lib/libsysbase.a(close.o)
 .debug_line    0x000000000000b451      0x2ba /opt/ps3dev/ppu/lib/gcc/powerpc64-ps3-elf/4.7.0/../../../../powerpc64-ps3-elf/lib/libsysbase.a(sbrk.o)
 .debug_line    0x000000000000b70b      0x2c1 /opt/ps3dev/ppu/lib/gcc/powerpc64-ps3-elf/4.7.0/../../../../powerpc64-ps3-elf/lib/libsysbase.a(_exit.o)
 .debug_line    0x000000000000b9cc      0x2bd /opt/ps3dev/ppu/lib/gcc/powerpc64-ps3-elf/4.7.0/../../../../powerpc64-ps3-elf/lib/libsysbase.a(fstat.o)
 .debug_line    0x000000000000bc89      0x2bc /opt/ps3dev/ppu/lib/gcc/powerpc64-ps3-elf/4.7.0/../../../../powerpc64-ps3-elf/lib/libsysbase.a(isatty.o)
 .debug_line    0x000000000000bf45      0x2bf /opt/ps3dev/ppu/lib/gcc/powerpc64-ps3-elf/4.7.0/../../../../powerpc64-ps3-elf/lib/libsysbase.a(lseek.o)
 .debug_line    0x000000000000c204      0x2be /opt/ps3dev/ppu/lib/gcc/powerpc64-ps3-elf/4.7.0/../../../../powerpc64-ps3-elf/lib/libsysbase.a(read.o)
 .debug_line    0x000000000000c4c2      0x2bf /opt/ps3dev/ppu/lib/gcc/powerpc64-ps3-elf/4.7.0/../../../../powerpc64-ps3-elf/lib/libsysbase.a(write.o)
 .debug_line    0x000000000000c781      0x324 /opt/ps3dev/ppu/lib/gcc/powerpc64-ps3-elf/4.7.0/../../../../powerpc64-ps3-elf/lib/libsysbase.a(lock.o)
 .debug_line    0x000000000000caa5      0x2bc /opt/ps3dev/ppu/lib/gcc/powerpc64-ps3-elf/4.7.0/../../../../powerpc64-ps3-elf/lib/libsysbase.a(getpid.o)
 .debug_line    0x000000000000cd61      0x255 /opt/ps3dev/ppu/lib/gcc/powerpc64-ps3-elf/4.7.0/../../../../powerpc64-ps3-elf/lib/libsysbase.a(kill.o)
 .debug_line    0x000000000000cfb6      0x2db /opt/ps3dev/ppu/lib/gcc/powerpc64-ps3-elf/4.7.0/../../../../powerpc64-ps3-elf/lib/libc.a(lib_a-sscanf.o)
 .debug_line    0x000000000000d291      0x162 /opt/ps3dev/ppu/lib/gcc/powerpc64-ps3-elf/4.7.0/../../../../powerpc64-ps3-elf/lib/libc.a(lib_a-strncpy.o)
 .debug_line    0x000000000000d3f3      0x783 /opt/ps3dev/ppu/lib/gcc/powerpc64-ps3-elf/4.7.0/../../../../powerpc64-ps3-elf/lib/libc.a(lib_a-svfscanf.o)
 .debug_line    0x000000000000db76      0x123 /opt/ps3dev/ppu/lib/gcc/powerpc64-ps3-elf/4.7.0/../../../../powerpc64-ps3-elf/lib/libc.a(lib_a-iswspace.o)
 .debug_line    0x000000000000dc99      0x2c6 /opt/ps3dev/ppu/lib/gcc/powerpc64-ps3-elf/4.7.0/../../../../powerpc64-ps3-elf/lib/libc.a(lib_a-mbrtowc.o)
 .debug_line    0x000000000000df5f      0x2a7 /opt/ps3dev/ppu/lib/gcc/powerpc64-ps3-elf/4.7.0/../../../../powerpc64-ps3-elf/lib/libc.a(lib_a-mbtowc_r.o)
 .debug_line    0x000000000000e206       0xfe /opt/ps3dev/ppu/lib/gcc/powerpc64-ps3-elf/4.7.0/../../../../powerpc64-ps3-elf/lib/libc.a(lib_a-sccl.o)
 .debug_line    0x000000000000e304       0xb0 /opt/ps3dev/ppu/lib/gcc/powerpc64-ps3-elf/4.7.0/../../../../powerpc64-ps3-elf/lib/libc.a(lib_a-sf_nan.o)
 .debug_line    0x000000000000e3b4      0x2ce /opt/ps3dev/ppu/lib/gcc/powerpc64-ps3-elf/4.7.0/../../../../powerpc64-ps3-elf/lib/libc.a(lib_a-sprintf.o)
 .debug_line    0x000000000000e682      0x76f /opt/ps3dev/ppu/lib/gcc/powerpc64-ps3-elf/4.7.0/../../../../powerpc64-ps3-elf/lib/libc.a(lib_a-strtod.o)
 .debug_line    0x000000000000edf1      0x30b /opt/ps3dev/ppu/lib/gcc/powerpc64-ps3-elf/4.7.0/../../../../powerpc64-ps3-elf/lib/libc.a(lib_a-strtoll_r.o)
 .debug_line    0x000000000000f0fc      0x322 /opt/ps3dev/ppu/lib/gcc/powerpc64-ps3-elf/4.7.0/../../../../powerpc64-ps3-elf/lib/libc.a(lib_a-strtol.o)
 .debug_line    0x000000000000f41e      0x2f4 /opt/ps3dev/ppu/lib/gcc/powerpc64-ps3-elf/4.7.0/../../../../powerpc64-ps3-elf/lib/libc.a(lib_a-strtoull_r.o)
 .debug_line    0x000000000000f712      0x30a /opt/ps3dev/ppu/lib/gcc/powerpc64-ps3-elf/4.7.0/../../../../powerpc64-ps3-elf/lib/libc.a(lib_a-strtoul.o)
 .debug_line    0x000000000000fa1c      0x6eb /opt/ps3dev/ppu/lib/gcc/powerpc64-ps3-elf/4.7.0/../../../../powerpc64-ps3-elf/lib/libc.a(lib_a-svfiscanf.o)
 .debug_line    0x0000000000010107      0xa9d /opt/ps3dev/ppu/lib/gcc/powerpc64-ps3-elf/4.7.0/../../../../powerpc64-ps3-elf/lib/libc.a(lib_a-svfprintf.o)
 .debug_line    0x0000000000010ba4      0x389 /opt/ps3dev/ppu/lib/gcc/powerpc64-ps3-elf/4.7.0/../../../../powerpc64-ps3-elf/lib/libc.a(lib_a-ungetc.o)
 .debug_line    0x0000000000010f2d      0x508 /opt/ps3dev/ppu/lib/gcc/powerpc64-ps3-elf/4.7.0/../../../../powerpc64-ps3-elf/lib/libc.a(lib_a-gdtoa-gethex.o)
 .debug_line    0x0000000000011435      0x185 /opt/ps3dev/ppu/lib/gcc/powerpc64-ps3-elf/4.7.0/../../../../powerpc64-ps3-elf/lib/libc.a(lib_a-gdtoa-hexnan.o)
 .debug_line    0x00000000000115ba      0x1a1 /opt/ps3dev/ppu/lib/gcc/powerpc64-ps3-elf/4.7.0/../../../../powerpc64-ps3-elf/lib/libc.a(lib_a-strncmp.o)
 .debug_line    0x000000000001175b      0x755 /opt/ps3dev/ppu/lib/gcc/powerpc64-ps3-elf/4.7.0/../../../../powerpc64-ps3-elf/lib/libc.a(lib_a-svfiprintf.o)

.debug_frame    0x0000000000000000     0x2d38
 *(.debug_frame)
 .debug_frame   0x0000000000000000       0x48 /opt/ps3dev/ppu/lib/gcc/powerpc64-ps3-elf/4.7.0/../../../../powerpc64-ps3-elf/lib/libm.a(lib_a-sf_cos.o)
 .debug_frame   0x0000000000000048       0x48 /opt/ps3dev/ppu/lib/gcc/powerpc64-ps3-elf/4.7.0/../../../../powerpc64-ps3-elf/lib/libm.a(lib_a-sf_sin.o)
 .debug_frame   0x0000000000000090       0x48 /opt/ps3dev/ppu/lib/gcc/powerpc64-ps3-elf/4.7.0/../../../../powerpc64-ps3-elf/lib/libm.a(lib_a-sf_tan.o)
 .debug_frame   0x00000000000000d8       0x58 /opt/ps3dev/ppu/lib/gcc/powerpc64-ps3-elf/4.7.0/../../../../powerpc64-ps3-elf/lib/libm.a(lib_a-wf_sqrt.o)
 .debug_frame   0x0000000000000130       0x58 /opt/ps3dev/ppu/lib/gcc/powerpc64-ps3-elf/4.7.0/../../../../powerpc64-ps3-elf/lib/libm.a(lib_a-ef_rem_pio2.o)
 .debug_frame   0x0000000000000188       0x28 /opt/ps3dev/ppu/lib/gcc/powerpc64-ps3-elf/4.7.0/../../../../powerpc64-ps3-elf/lib/libm.a(lib_a-ef_sqrt.o)
 .debug_frame   0x00000000000001b0       0x28 /opt/ps3dev/ppu/lib/gcc/powerpc64-ps3-elf/4.7.0/../../../../powerpc64-ps3-elf/lib/libm.a(lib_a-kf_cos.o)
 .debug_frame   0x00000000000001d8       0x88 /opt/ps3dev/ppu/lib/gcc/powerpc64-ps3-elf/4.7.0/../../../../powerpc64-ps3-elf/lib/libm.a(lib_a-kf_rem_pio2.o)
 .debug_frame   0x0000000000000260       0x28 /opt/ps3dev/ppu/lib/gcc/powerpc64-ps3-elf/4.7.0/../../../../powerpc64-ps3-elf/lib/libm.a(lib_a-kf_sin.o)
 .debug_frame   0x0000000000000288       0x50 /opt/ps3dev/ppu/lib/gcc/powerpc64-ps3-elf/4.7.0/../../../../powerpc64-ps3-elf/lib/libm.a(lib_a-kf_tan.o)
 .debug_frame   0x00000000000002d8       0x28 /opt/ps3dev/ppu/lib/gcc/powerpc64-ps3-elf/4.7.0/../../../../powerpc64-ps3-elf/lib/libm.a(lib_a-sf_fabs.o)
 .debug_frame   0x0000000000000300       0x28 /opt/ps3dev/ppu/lib/gcc/powerpc64-ps3-elf/4.7.0/../../../../powerpc64-ps3-elf/lib/libm.a(lib_a-sf_floor.o)
 .debug_frame   0x0000000000000328       0x28 /opt/ps3dev/ppu/lib/gcc/powerpc64-ps3-elf/4.7.0/../../../../powerpc64-ps3-elf/lib/libm.a(lib_a-sf_fpclassify.o)
 .debug_frame   0x0000000000000350       0x50 /opt/ps3dev/ppu/lib/gcc/powerpc64-ps3-elf/4.7.0/../../../../powerpc64-ps3-elf/lib/libm.a(lib_a-sf_scalbn.o)
 .debug_frame   0x00000000000003a0       0x28 /opt/ps3dev/ppu/lib/gcc/powerpc64-ps3-elf/4.7.0/../../../../powerpc64-ps3-elf/lib/libm.a(lib_a-s_matherr.o)
 .debug_frame   0x00000000000003c8       0x28 /opt/ps3dev/ppu/lib/gcc/powerpc64-ps3-elf/4.7.0/../../../../powerpc64-ps3-elf/lib/libm.a(lib_a-sf_copysign.o)
 .debug_frame   0x00000000000003f0       0x78 /opt/ps3dev/ppu/lib/gcc/powerpc64-ps3-elf/4.7.0/../../../../powerpc64-ps3-elf/lib/libsysbase.a(sleep.o)
 .debug_frame   0x0000000000000468       0x60 /opt/ps3dev/ppu/lib/gcc/powerpc64-ps3-elf/4.7.0/../../../../powerpc64-ps3-elf/lib/libc.a(lib_a-assert.o)
 .debug_frame   0x00000000000004c8       0x38 /opt/ps3dev/ppu/lib/gcc/powerpc64-ps3-elf/4.7.0/../../../../powerpc64-ps3-elf/lib/libc.a(lib_a-atexit.o)
 .debug_frame   0x0000000000000500       0x38 /opt/ps3dev/ppu/lib/gcc/powerpc64-ps3-elf/4.7.0/../../../../powerpc64-ps3-elf/lib/libc.a(lib_a-errno.o)
 .debug_frame   0x0000000000000538       0x38 /opt/ps3dev/ppu/lib/gcc/powerpc64-ps3-elf/4.7.0/../../../../powerpc64-ps3-elf/lib/libc.a(lib_a-exit.o)
 .debug_frame   0x0000000000000570       0x68 /opt/ps3dev/ppu/lib/gcc/powerpc64-ps3-elf/4.7.0/../../../../powerpc64-ps3-elf/lib/libc.a(lib_a-fiprintf.o)
 .debug_frame   0x00000000000005d8       0x50 /opt/ps3dev/ppu/lib/gcc/powerpc64-ps3-elf/4.7.0/../../../../powerpc64-ps3-elf/lib/libc.a(lib_a-getreent.o)
 .debug_frame   0x0000000000000628       0x40 /opt/ps3dev/ppu/lib/gcc/powerpc64-ps3-elf/4.7.0/../../../../powerpc64-ps3-elf/lib/libc.a(lib_a-malign.o)
 .debug_frame   0x0000000000000668       0x68 /opt/ps3dev/ppu/lib/gcc/powerpc64-ps3-elf/4.7.0/../../../../powerpc64-ps3-elf/lib/libc.a(lib_a-malignr.o)
 .debug_frame   0x00000000000006d0       0x70 /opt/ps3dev/ppu/lib/gcc/powerpc64-ps3-elf/4.7.0/../../../../powerpc64-ps3-elf/lib/libc.a(lib_a-malloc.o)
 .debug_frame   0x0000000000000740       0x98 /opt/ps3dev/ppu/lib/gcc/powerpc64-ps3-elf/4.7.0/../../../../powerpc64-ps3-elf/lib/libc.a(lib_a-mallocr.o)
 .debug_frame   0x00000000000007d8       0x28 /opt/ps3dev/ppu/lib/gcc/powerpc64-ps3-elf/4.7.0/../../../../powerpc64-ps3-elf/lib/libc.a(lib_a-memcpy.o)
 .debug_frame   0x0000000000000800       0x28 /opt/ps3dev/ppu/lib/gcc/powerpc64-ps3-elf/4.7.0/../../../../powerpc64-ps3-elf/lib/libc.a(lib_a-memset.o)
 .debug_frame   0x0000000000000828       0x60 /opt/ps3dev/ppu/lib/gcc/powerpc64-ps3-elf/4.7.0/../../../../powerpc64-ps3-elf/lib/libc.a(lib_a-mlock.o)
 .debug_frame   0x0000000000000888       0x68 /opt/ps3dev/ppu/lib/gcc/powerpc64-ps3-elf/4.7.0/../../../../powerpc64-ps3-elf/lib/libc.a(lib_a-printf.o)
 .debug_frame   0x00000000000008f0       0x68 /opt/ps3dev/ppu/lib/gcc/powerpc64-ps3-elf/4.7.0/../../../../powerpc64-ps3-elf/lib/libc.a(lib_a-rand.o)
 .debug_frame   0x0000000000000958       0x28 /opt/ps3dev/ppu/lib/gcc/powerpc64-ps3-elf/4.7.0/../../../../powerpc64-ps3-elf/lib/libc.a(lib_a-strcasecmp.o)
 .debug_frame   0x0000000000000980      0x110 /opt/ps3dev/ppu/lib/gcc/powerpc64-ps3-elf/4.7.0/../../../../powerpc64-ps3-elf/lib/libc.a(lib_a-vfiprintf.o)
 .debug_frame   0x0000000000000a90       0xc0 /opt/ps3dev/ppu/lib/gcc/powerpc64-ps3-elf/4.7.0/../../../../powerpc64-ps3-elf/lib/libc.a(lib_a-vfprintf.o)
 .debug_frame   0x0000000000000b50       0x48 /opt/ps3dev/ppu/lib/gcc/powerpc64-ps3-elf/4.7.0/../../../../powerpc64-ps3-elf/lib/libc.a(lib_a-wsetup.o)
 .debug_frame   0x0000000000000b98       0x30 /opt/ps3dev/ppu/lib/gcc/powerpc64-ps3-elf/4.7.0/../../../../powerpc64-ps3-elf/lib/libc.a(lib_a-abort.o)
 .debug_frame   0x0000000000000bc8       0x68 /opt/ps3dev/ppu/lib/gcc/powerpc64-ps3-elf/4.7.0/../../../../powerpc64-ps3-elf/lib/libc.a(lib_a-__atexit.o)
 .debug_frame   0x0000000000000c30       0x70 /opt/ps3dev/ppu/lib/gcc/powerpc64-ps3-elf/4.7.0/../../../../powerpc64-ps3-elf/lib/libc.a(lib_a-__call_atexit.o)
 .debug_frame   0x0000000000000ca0       0xc0 /opt/ps3dev/ppu/lib/gcc/powerpc64-ps3-elf/4.7.0/../../../../powerpc64-ps3-elf/lib/libc.a(lib_a-dtoa.o)
 .debug_frame   0x0000000000000d60       0xe8 /opt/ps3dev/ppu/lib/gcc/powerpc64-ps3-elf/4.7.0/../../../../powerpc64-ps3-elf/lib/libc.a(lib_a-fflush.o)
 .debug_frame   0x0000000000000e48      0x258 /opt/ps3dev/ppu/lib/gcc/powerpc64-ps3-elf/4.7.0/../../../../powerpc64-ps3-elf/lib/libc.a(lib_a-findfp.o)
 .debug_frame   0x00000000000010a0       0x90 /opt/ps3dev/ppu/lib/gcc/powerpc64-ps3-elf/4.7.0/../../../../powerpc64-ps3-elf/lib/libc.a(lib_a-fputwc.o)
 .debug_frame   0x0000000000001130       0x90 /opt/ps3dev/ppu/lib/gcc/powerpc64-ps3-elf/4.7.0/../../../../powerpc64-ps3-elf/lib/libc.a(lib_a-freer.o)
 .debug_frame   0x00000000000011c0       0x70 /opt/ps3dev/ppu/lib/gcc/powerpc64-ps3-elf/4.7.0/../../../../powerpc64-ps3-elf/lib/libc.a(lib_a-fvwrite.o)
 .debug_frame   0x0000000000001230       0xa8 /opt/ps3dev/ppu/lib/gcc/powerpc64-ps3-elf/4.7.0/../../../../powerpc64-ps3-elf/lib/libc.a(lib_a-fwalk.o)
 .debug_frame   0x00000000000012d8      0x120 /opt/ps3dev/ppu/lib/gcc/powerpc64-ps3-elf/4.7.0/../../../../powerpc64-ps3-elf/lib/libc.a(lib_a-locale.o)
 .debug_frame   0x00000000000013f8       0xf0 /opt/ps3dev/ppu/lib/gcc/powerpc64-ps3-elf/4.7.0/../../../../powerpc64-ps3-elf/lib/libc.a(lib_a-lock_recursive.o)
 .debug_frame   0x00000000000014e8       0x58 /opt/ps3dev/ppu/lib/gcc/powerpc64-ps3-elf/4.7.0/../../../../powerpc64-ps3-elf/lib/libc.a(lib_a-makebuf.o)
 .debug_frame   0x0000000000001540       0x28 /opt/ps3dev/ppu/lib/gcc/powerpc64-ps3-elf/4.7.0/../../../../powerpc64-ps3-elf/lib/libc.a(lib_a-memchr.o)
 .debug_frame   0x0000000000001568       0x28 /opt/ps3dev/ppu/lib/gcc/powerpc64-ps3-elf/4.7.0/../../../../powerpc64-ps3-elf/lib/libc.a(lib_a-memmove.o)
 .debug_frame   0x0000000000001590      0x3c0 /opt/ps3dev/ppu/lib/gcc/powerpc64-ps3-elf/4.7.0/../../../../powerpc64-ps3-elf/lib/libc.a(lib_a-mprec.o)
 .debug_frame   0x0000000000001950       0x98 /opt/ps3dev/ppu/lib/gcc/powerpc64-ps3-elf/4.7.0/../../../../powerpc64-ps3-elf/lib/libc.a(lib_a-reallocr.o)
 .debug_frame   0x00000000000019e8       0x28 /opt/ps3dev/ppu/lib/gcc/powerpc64-ps3-elf/4.7.0/../../../../powerpc64-ps3-elf/lib/libc.a(lib_a-s_fpclassify.o)
 .debug_frame   0x0000000000001a10      0x1b0 /opt/ps3dev/ppu/lib/gcc/powerpc64-ps3-elf/4.7.0/../../../../powerpc64-ps3-elf/lib/libc.a(lib_a-signal.o)
 .debug_frame   0x0000000000001bc0       0xf8 /opt/ps3dev/ppu/lib/gcc/powerpc64-ps3-elf/4.7.0/../../../../powerpc64-ps3-elf/lib/libc.a(lib_a-stdio.o)
 .debug_frame   0x0000000000001cb8       0x28 /opt/ps3dev/ppu/lib/gcc/powerpc64-ps3-elf/4.7.0/../../../../powerpc64-ps3-elf/lib/libc.a(lib_a-strcmp.o)
 .debug_frame   0x0000000000001ce0       0x28 /opt/ps3dev/ppu/lib/gcc/powerpc64-ps3-elf/4.7.0/../../../../powerpc64-ps3-elf/lib/libc.a(lib_a-strlen.o)
 .debug_frame   0x0000000000001d08       0x80 /opt/ps3dev/ppu/lib/gcc/powerpc64-ps3-elf/4.7.0/../../../../powerpc64-ps3-elf/lib/libc.a(lib_a-wbuf.o)
 .debug_frame   0x0000000000001d88       0x98 /opt/ps3dev/ppu/lib/gcc/powerpc64-ps3-elf/4.7.0/../../../../powerpc64-ps3-elf/lib/libc.a(lib_a-wcrtomb.o)
 .debug_frame   0x0000000000001e20       0x58 /opt/ps3dev/ppu/lib/gcc/powerpc64-ps3-elf/4.7.0/../../../../powerpc64-ps3-elf/lib/libc.a(lib_a-wctomb_r.o)
 .debug_frame   0x0000000000001e78       0x48 /opt/ps3dev/ppu/lib/gcc/powerpc64-ps3-elf/4.7.0/../../../../powerpc64-ps3-elf/lib/libc.a(lib_a-callocr.o)
 .debug_frame   0x0000000000001ec0       0x98 /opt/ps3dev/ppu/lib/gcc/powerpc64-ps3-elf/4.7.0/../../../../powerpc64-ps3-elf/lib/libc.a(lib_a-fclose.o)
 .debug_frame   0x0000000000001f58       0x70 /opt/ps3dev/ppu/lib/gcc/powerpc64-ps3-elf/4.7.0/../../../../powerpc64-ps3-elf/lib/libc.a(lib_a-lock_internal.o)
 .debug_frame   0x0000000000001fc8       0x38 /opt/ps3dev/ppu/lib/gcc/powerpc64-ps3-elf/4.7.0/../../../../powerpc64-ps3-elf/lib/libsysbase.a(close.o)
 .debug_frame   0x0000000000002000       0x38 /opt/ps3dev/ppu/lib/gcc/powerpc64-ps3-elf/4.7.0/../../../../powerpc64-ps3-elf/lib/libsysbase.a(sbrk.o)
 .debug_frame   0x0000000000002038       0x30 /opt/ps3dev/ppu/lib/gcc/powerpc64-ps3-elf/4.7.0/../../../../powerpc64-ps3-elf/lib/libsysbase.a(_exit.o)
 .debug_frame   0x0000000000002068       0x38 /opt/ps3dev/ppu/lib/gcc/powerpc64-ps3-elf/4.7.0/../../../../powerpc64-ps3-elf/lib/libsysbase.a(fstat.o)
 .debug_frame   0x00000000000020a0       0x38 /opt/ps3dev/ppu/lib/gcc/powerpc64-ps3-elf/4.7.0/../../../../powerpc64-ps3-elf/lib/libsysbase.a(isatty.o)
 .debug_frame   0x00000000000020d8       0x38 /opt/ps3dev/ppu/lib/gcc/powerpc64-ps3-elf/4.7.0/../../../../powerpc64-ps3-elf/lib/libsysbase.a(lseek.o)
 .debug_frame   0x0000000000002110       0x38 /opt/ps3dev/ppu/lib/gcc/powerpc64-ps3-elf/4.7.0/../../../../powerpc64-ps3-elf/lib/libsysbase.a(read.o)
 .debug_frame   0x0000000000002148       0x38 /opt/ps3dev/ppu/lib/gcc/powerpc64-ps3-elf/4.7.0/../../../../powerpc64-ps3-elf/lib/libsysbase.a(write.o)
 .debug_frame   0x0000000000002180      0x110 /opt/ps3dev/ppu/lib/gcc/powerpc64-ps3-elf/4.7.0/../../../../powerpc64-ps3-elf/lib/libsysbase.a(lock.o)
 .debug_frame   0x0000000000002290       0x38 /opt/ps3dev/ppu/lib/gcc/powerpc64-ps3-elf/4.7.0/../../../../powerpc64-ps3-elf/lib/libsysbase.a(getpid.o)
 .debug_frame   0x00000000000022c8       0x28 /opt/ps3dev/ppu/lib/gcc/powerpc64-ps3-elf/4.7.0/../../../../powerpc64-ps3-elf/lib/libsysbase.a(kill.o)
 .debug_frame   0x00000000000022f0       0x70 /opt/ps3dev/ppu/lib/gcc/powerpc64-ps3-elf/4.7.0/../../../../powerpc64-ps3-elf/lib/libc.a(lib_a-sscanf.o)
 .debug_frame   0x0000000000002360       0x28 /opt/ps3dev/ppu/lib/gcc/powerpc64-ps3-elf/4.7.0/../../../../powerpc64-ps3-elf/lib/libc.a(lib_a-strncpy.o)
 .debug_frame   0x0000000000002388       0x80 /opt/ps3dev/ppu/lib/gcc/powerpc64-ps3-elf/4.7.0/../../../../powerpc64-ps3-elf/lib/libc.a(lib_a-svfscanf.o)
 .debug_frame   0x0000000000002408       0x28 /opt/ps3dev/ppu/lib/gcc/powerpc64-ps3-elf/4.7.0/../../../../powerpc64-ps3-elf/lib/libc.a(lib_a-iswspace.o)
 .debug_frame   0x0000000000002430       0x98 /opt/ps3dev/ppu/lib/gcc/powerpc64-ps3-elf/4.7.0/../../../../powerpc64-ps3-elf/lib/libc.a(lib_a-mbrtowc.o)
 .debug_frame   0x00000000000024c8       0x58 /opt/ps3dev/ppu/lib/gcc/powerpc64-ps3-elf/4.7.0/../../../../powerpc64-ps3-elf/lib/libc.a(lib_a-mbtowc_r.o)
 .debug_frame   0x0000000000002520       0x28 /opt/ps3dev/ppu/lib/gcc/powerpc64-ps3-elf/4.7.0/../../../../powerpc64-ps3-elf/lib/libc.a(lib_a-sccl.o)
 .debug_frame   0x0000000000002548       0x28 /opt/ps3dev/ppu/lib/gcc/powerpc64-ps3-elf/4.7.0/../../../../powerpc64-ps3-elf/lib/libc.a(lib_a-sf_nan.o)
 .debug_frame   0x0000000000002570       0x68 /opt/ps3dev/ppu/lib/gcc/powerpc64-ps3-elf/4.7.0/../../../../powerpc64-ps3-elf/lib/libc.a(lib_a-sprintf.o)
 .debug_frame   0x00000000000025d8      0x100 /opt/ps3dev/ppu/lib/gcc/powerpc64-ps3-elf/4.7.0/../../../../powerpc64-ps3-elf/lib/libc.a(lib_a-strtod.o)
 .debug_frame   0x00000000000026d8       0x40 /opt/ps3dev/ppu/lib/gcc/powerpc64-ps3-elf/4.7.0/../../../../powerpc64-ps3-elf/lib/libc.a(lib_a-strtoll_r.o)
 .debug_frame   0x0000000000002718       0x78 /opt/ps3dev/ppu/lib/gcc/powerpc64-ps3-elf/4.7.0/../../../../powerpc64-ps3-elf/lib/libc.a(lib_a-strtol.o)
 .debug_frame   0x0000000000002790       0x40 /opt/ps3dev/ppu/lib/gcc/powerpc64-ps3-elf/4.7.0/../../../../powerpc64-ps3-elf/lib/libc.a(lib_a-strtoull_r.o)
 .debug_frame   0x00000000000027d0       0x78 /opt/ps3dev/ppu/lib/gcc/powerpc64-ps3-elf/4.7.0/../../../../powerpc64-ps3-elf/lib/libc.a(lib_a-strtoul.o)
 .debug_frame   0x0000000000002848      0x150 /opt/ps3dev/ppu/lib/gcc/powerpc64-ps3-elf/4.7.0/../../../../powerpc64-ps3-elf/lib/libc.a(lib_a-svfiscanf.o)
 .debug_frame   0x0000000000002998       0x88 /opt/ps3dev/ppu/lib/gcc/powerpc64-ps3-elf/4.7.0/../../../../powerpc64-ps3-elf/lib/libc.a(lib_a-svfprintf.o)
 .debug_frame   0x0000000000002a20       0xe0 /opt/ps3dev/ppu/lib/gcc/powerpc64-ps3-elf/4.7.0/../../../../powerpc64-ps3-elf/lib/libc.a(lib_a-ungetc.o)
 .debug_frame   0x0000000000002b00       0xa8 /opt/ps3dev/ppu/lib/gcc/powerpc64-ps3-elf/4.7.0/../../../../powerpc64-ps3-elf/lib/libc.a(lib_a-gdtoa-gethex.o)
 .debug_frame   0x0000000000002ba8       0x70 /opt/ps3dev/ppu/lib/gcc/powerpc64-ps3-elf/4.7.0/../../../../powerpc64-ps3-elf/lib/libc.a(lib_a-gdtoa-hexnan.o)
 .debug_frame   0x0000000000002c18       0x28 /opt/ps3dev/ppu/lib/gcc/powerpc64-ps3-elf/4.7.0/../../../../powerpc64-ps3-elf/lib/libc.a(lib_a-strncmp.o)
 .debug_frame   0x0000000000002c40       0xf8 /opt/ps3dev/ppu/lib/gcc/powerpc64-ps3-elf/4.7.0/../../../../powerpc64-ps3-elf/lib/libc.a(lib_a-svfiprintf.o)

.debug_str      0x0000000000000000     0x3129
 *(.debug_str)
 .debug_str     0x0000000000000000      0x13b /opt/ps3dev/ppu/lib/gcc/powerpc64-ps3-elf/4.7.0/../../../../powerpc64-ps3-elf/lib/libm.a(lib_a-sf_cos.o)
                                        0x180 (size before relaxing)
 .debug_str     0x000000000000013b       0x29 /opt/ps3dev/ppu/lib/gcc/powerpc64-ps3-elf/4.7.0/../../../../powerpc64-ps3-elf/lib/libm.a(lib_a-sf_sin.o)
                                        0x180 (size before relaxing)
 .debug_str     0x0000000000000164       0x37 /opt/ps3dev/ppu/lib/gcc/powerpc64-ps3-elf/4.7.0/../../../../powerpc64-ps3-elf/lib/libm.a(lib_a-sf_tan.o)
                                        0x172 (size before relaxing)
 .debug_str     0x000000000000019b       0xce /opt/ps3dev/ppu/lib/gcc/powerpc64-ps3-elf/4.7.0/../../../../powerpc64-ps3-elf/lib/libm.a(lib_a-wf_sqrt.o)
                                        0x1f6 (size before relaxing)
 .debug_str     0x0000000000000269       0xd0 /opt/ps3dev/ppu/lib/gcc/powerpc64-ps3-elf/4.7.0/../../../../powerpc64-ps3-elf/lib/libm.a(lib_a-ef_rem_pio2.o)
                                        0x211 (size before relaxing)
 .debug_str     0x0000000000000339       0x2f /opt/ps3dev/ppu/lib/gcc/powerpc64-ps3-elf/4.7.0/../../../../powerpc64-ps3-elf/lib/libm.a(lib_a-ef_sqrt.o)
                                        0x192 (size before relaxing)
 .debug_str     0x0000000000000368       0x29 /opt/ps3dev/ppu/lib/gcc/powerpc64-ps3-elf/4.7.0/../../../../powerpc64-ps3-elf/lib/libm.a(lib_a-kf_cos.o)
                                        0x159 (size before relaxing)
 .debug_str     0x0000000000000391       0x66 /opt/ps3dev/ppu/lib/gcc/powerpc64-ps3-elf/4.7.0/../../../../powerpc64-ps3-elf/lib/libm.a(lib_a-kf_rem_pio2.o)
                                        0x1aa (size before relaxing)
 .debug_str     0x00000000000003f7       0x29 /opt/ps3dev/ppu/lib/gcc/powerpc64-ps3-elf/4.7.0/../../../../powerpc64-ps3-elf/lib/libm.a(lib_a-kf_sin.o)
                                        0x15e (size before relaxing)
 .debug_str     0x0000000000000420       0x35 /opt/ps3dev/ppu/lib/gcc/powerpc64-ps3-elf/4.7.0/../../../../powerpc64-ps3-elf/lib/libm.a(lib_a-kf_tan.o)
                                        0x19c (size before relaxing)
 .debug_str     0x0000000000000455       0x2a /opt/ps3dev/ppu/lib/gcc/powerpc64-ps3-elf/4.7.0/../../../../powerpc64-ps3-elf/lib/libm.a(lib_a-sf_fabs.o)
                                        0x153 (size before relaxing)
 .debug_str     0x000000000000047f       0x30 /opt/ps3dev/ppu/lib/gcc/powerpc64-ps3-elf/4.7.0/../../../../powerpc64-ps3-elf/lib/libm.a(lib_a-sf_floor.o)
                                        0x18a (size before relaxing)
 .debug_str     0x00000000000004af       0x95 /opt/ps3dev/ppu/lib/gcc/powerpc64-ps3-elf/4.7.0/../../../../powerpc64-ps3-elf/lib/libm.a(lib_a-sf_fpclassify.o)
                                        0x165 (size before relaxing)
 .debug_str     0x0000000000000544       0x45 /opt/ps3dev/ppu/lib/gcc/powerpc64-ps3-elf/4.7.0/../../../../powerpc64-ps3-elf/lib/libm.a(lib_a-sf_scalbn.o)
                                        0x1b1 (size before relaxing)
 .debug_str     0x0000000000000589       0x2e /opt/ps3dev/ppu/lib/gcc/powerpc64-ps3-elf/4.7.0/../../../../powerpc64-ps3-elf/lib/libm.a(lib_a-s_lib_ver.o)
                                        0x1a3 (size before relaxing)
 .debug_str     0x00000000000005b7       0x2e /opt/ps3dev/ppu/lib/gcc/powerpc64-ps3-elf/4.7.0/../../../../powerpc64-ps3-elf/lib/libm.a(lib_a-s_matherr.o)
                                        0x175 (size before relaxing)
 .debug_str     0x00000000000005e5       0x30 /opt/ps3dev/ppu/lib/gcc/powerpc64-ps3-elf/4.7.0/../../../../powerpc64-ps3-elf/lib/libm.a(lib_a-sf_copysign.o)
                                        0x185 (size before relaxing)
 .debug_str     0x0000000000000615      0x835 /opt/ps3dev/ppu/lib/gcc/powerpc64-ps3-elf/4.7.0/../../../../powerpc64-ps3-elf/lib/libsysbase.a(syscalls.o)
                                        0x9d2 (size before relaxing)
 .debug_str     0x0000000000000e4a       0x3a /opt/ps3dev/ppu/lib/gcc/powerpc64-ps3-elf/4.7.0/../../../../powerpc64-ps3-elf/lib/libsysbase.a(sleep.o)
                                        0x9ec (size before relaxing)
 .debug_str     0x0000000000000e84       0xbb /opt/ps3dev/ppu/lib/gcc/powerpc64-ps3-elf/4.7.0/../../../../powerpc64-ps3-elf/lib/libc.a(lib_a-assert.o)
                                        0x596 (size before relaxing)
 .debug_str     0x0000000000000f3f       0x6f /opt/ps3dev/ppu/lib/gcc/powerpc64-ps3-elf/4.7.0/../../../../powerpc64-ps3-elf/lib/libc.a(lib_a-atexit.o)
                                        0x177 (size before relaxing)
 .debug_str     0x0000000000000fae       0x8b /opt/ps3dev/ppu/lib/gcc/powerpc64-ps3-elf/4.7.0/../../../../powerpc64-ps3-elf/lib/libc.a(lib_a-errno.o)
                                        0x556 (size before relaxing)
 .debug_str     0x0000000000001039       0x58 /opt/ps3dev/ppu/lib/gcc/powerpc64-ps3-elf/4.7.0/../../../../powerpc64-ps3-elf/lib/libc.a(lib_a-exit.o)
                                        0x578 (size before relaxing)
 .debug_str     0x0000000000001091       0xc8 /opt/ps3dev/ppu/lib/gcc/powerpc64-ps3-elf/4.7.0/../../../../powerpc64-ps3-elf/lib/libc.a(lib_a-fiprintf.o)
                                        0x5a1 (size before relaxing)
 .debug_str     0x0000000000001159       0xad /opt/ps3dev/ppu/lib/gcc/powerpc64-ps3-elf/4.7.0/../../../../powerpc64-ps3-elf/lib/libc.a(lib_a-getreent.o)
                                        0x570 (size before relaxing)
 .debug_str     0x0000000000001206       0x98 /opt/ps3dev/ppu/lib/gcc/powerpc64-ps3-elf/4.7.0/../../../../powerpc64-ps3-elf/lib/libc.a(lib_a-impure.o)
                                        0x56f (size before relaxing)
 .debug_str     0x000000000000129e       0x47 /opt/ps3dev/ppu/lib/gcc/powerpc64-ps3-elf/4.7.0/../../../../powerpc64-ps3-elf/lib/libc.a(lib_a-malign.o)
                                        0x57a (size before relaxing)
 .debug_str     0x00000000000012e5       0xc0 /opt/ps3dev/ppu/lib/gcc/powerpc64-ps3-elf/4.7.0/../../../../powerpc64-ps3-elf/lib/libc.a(lib_a-malignr.o)
                                        0x5f9 (size before relaxing)
 .debug_str     0x00000000000013a5       0x30 /opt/ps3dev/ppu/lib/gcc/powerpc64-ps3-elf/4.7.0/../../../../powerpc64-ps3-elf/lib/libc.a(lib_a-malloc.o)
                                        0x582 (size before relaxing)
 .debug_str     0x00000000000013d5      0x186 /opt/ps3dev/ppu/lib/gcc/powerpc64-ps3-elf/4.7.0/../../../../powerpc64-ps3-elf/lib/libc.a(lib_a-mallocr.o)
                                        0x77e (size before relaxing)
 .debug_str     0x000000000000155b       0xbc /opt/ps3dev/ppu/lib/gcc/powerpc64-ps3-elf/4.7.0/../../../../powerpc64-ps3-elf/lib/libc.a(lib_a-memcpy.o)
                                        0x161 (size before relaxing)
 .debug_str     0x0000000000001617       0x3f /opt/ps3dev/ppu/lib/gcc/powerpc64-ps3-elf/4.7.0/../../../../powerpc64-ps3-elf/lib/libc.a(lib_a-memset.o)
                                        0x14e (size before relaxing)
 .debug_str     0x0000000000001656       0x7b /opt/ps3dev/ppu/lib/gcc/powerpc64-ps3-elf/4.7.0/../../../../powerpc64-ps3-elf/lib/libc.a(lib_a-mlock.o)
                                        0x5b4 (size before relaxing)
 .debug_str     0x00000000000016d1       0x40 /opt/ps3dev/ppu/lib/gcc/powerpc64-ps3-elf/4.7.0/../../../../powerpc64-ps3-elf/lib/libc.a(lib_a-printf.o)
                                        0x59a (size before relaxing)
 .debug_str     0x0000000000001711       0x2f /opt/ps3dev/ppu/lib/gcc/powerpc64-ps3-elf/4.7.0/../../../../powerpc64-ps3-elf/lib/libc.a(lib_a-rand.o)
                                        0x55f (size before relaxing)
 .debug_str     0x0000000000001740       0x52 /opt/ps3dev/ppu/lib/gcc/powerpc64-ps3-elf/4.7.0/../../../../powerpc64-ps3-elf/lib/libc.a(lib_a-strcasecmp.o)
                                        0x153 (size before relaxing)
 .debug_str     0x0000000000001792      0x1a0 /opt/ps3dev/ppu/lib/gcc/powerpc64-ps3-elf/4.7.0/../../../../powerpc64-ps3-elf/lib/libc.a(lib_a-vfiprintf.o)
                                        0x78e (size before relaxing)
 .debug_str     0x0000000000001932      0x198 /opt/ps3dev/ppu/lib/gcc/powerpc64-ps3-elf/4.7.0/../../../../powerpc64-ps3-elf/lib/libc.a(lib_a-vfprintf.o)
                                        0x99c (size before relaxing)
 .debug_str     0x0000000000001aca       0x37 /opt/ps3dev/ppu/lib/gcc/powerpc64-ps3-elf/4.7.0/../../../../powerpc64-ps3-elf/lib/libc.a(lib_a-wsetup.o)
                                        0x57d (size before relaxing)
 .debug_str     0x0000000000001b01       0x30 /opt/ps3dev/ppu/lib/gcc/powerpc64-ps3-elf/4.7.0/../../../../powerpc64-ps3-elf/lib/libc.a(lib_a-abort.o)
                                        0x13d (size before relaxing)
 .debug_str     0x0000000000001b31       0x3b /opt/ps3dev/ppu/lib/gcc/powerpc64-ps3-elf/4.7.0/../../../../powerpc64-ps3-elf/lib/libc.a(lib_a-__atexit.o)
                                        0x601 (size before relaxing)
 .debug_str     0x0000000000001b6c       0x40 /opt/ps3dev/ppu/lib/gcc/powerpc64-ps3-elf/4.7.0/../../../../powerpc64-ps3-elf/lib/libc.a(lib_a-__call_atexit.o)
                                        0x5d8 (size before relaxing)
 .debug_str     0x0000000000001bac       0x94 /opt/ps3dev/ppu/lib/gcc/powerpc64-ps3-elf/4.7.0/../../../../powerpc64-ps3-elf/lib/libc.a(lib_a-ctype_.o)
                                         0xbc (size before relaxing)
 .debug_str     0x0000000000001c40      0x13b /opt/ps3dev/ppu/lib/gcc/powerpc64-ps3-elf/4.7.0/../../../../powerpc64-ps3-elf/lib/libc.a(lib_a-dtoa.o)
                                        0x6c1 (size before relaxing)
 .debug_str     0x0000000000001d7b       0x5a /opt/ps3dev/ppu/lib/gcc/powerpc64-ps3-elf/4.7.0/../../../../powerpc64-ps3-elf/lib/libc.a(lib_a-fflush.o)
                                        0x5f4 (size before relaxing)
 .debug_str     0x0000000000001dd5      0x16c /opt/ps3dev/ppu/lib/gcc/powerpc64-ps3-elf/4.7.0/../../../../powerpc64-ps3-elf/lib/libc.a(lib_a-findfp.o)
                                        0x743 (size before relaxing)
 .debug_str     0x0000000000001f41       0x5c /opt/ps3dev/ppu/lib/gcc/powerpc64-ps3-elf/4.7.0/../../../../powerpc64-ps3-elf/lib/libc.a(lib_a-fputwc.o)
                                        0x5f4 (size before relaxing)
 .debug_str     0x0000000000001f9d       0x34 /opt/ps3dev/ppu/lib/gcc/powerpc64-ps3-elf/4.7.0/../../../../powerpc64-ps3-elf/lib/libc.a(lib_a-freer.o)
                                        0x6c8 (size before relaxing)
 .debug_str     0x0000000000001fd1       0x54 /opt/ps3dev/ppu/lib/gcc/powerpc64-ps3-elf/4.7.0/../../../../powerpc64-ps3-elf/lib/libc.a(lib_a-fvwrite.o)
                                        0x601 (size before relaxing)
 .debug_str     0x0000000000002025       0x38 /opt/ps3dev/ppu/lib/gcc/powerpc64-ps3-elf/4.7.0/../../../../powerpc64-ps3-elf/lib/libc.a(lib_a-fwalk.o)
                                        0x574 (size before relaxing)
 .debug_str     0x000000000000205d      0x161 /opt/ps3dev/ppu/lib/gcc/powerpc64-ps3-elf/4.7.0/../../../../powerpc64-ps3-elf/lib/libc.a(lib_a-locale.o)
                                        0x7cb (size before relaxing)
 .debug_str     0x00000000000021be      0x114 /opt/ps3dev/ppu/lib/gcc/powerpc64-ps3-elf/4.7.0/../../../../powerpc64-ps3-elf/lib/libc.a(lib_a-lock_recursive.o)
                                        0x321 (size before relaxing)
 .debug_str     0x00000000000022d2       0x49 /opt/ps3dev/ppu/lib/gcc/powerpc64-ps3-elf/4.7.0/../../../../powerpc64-ps3-elf/lib/libc.a(lib_a-makebuf.o)
                                        0x678 (size before relaxing)
 .debug_str     0x000000000000231b       0x39 /opt/ps3dev/ppu/lib/gcc/powerpc64-ps3-elf/4.7.0/../../../../powerpc64-ps3-elf/lib/libc.a(lib_a-memchr.o)
                                        0x154 (size before relaxing)
 .debug_str     0x0000000000002354       0x35 /opt/ps3dev/ppu/lib/gcc/powerpc64-ps3-elf/4.7.0/../../../../powerpc64-ps3-elf/lib/libc.a(lib_a-memmove.o)
                                        0x16d (size before relaxing)
 .debug_str     0x0000000000002389       0x95 /opt/ps3dev/ppu/lib/gcc/powerpc64-ps3-elf/4.7.0/../../../../powerpc64-ps3-elf/lib/libc.a(lib_a-mprec.o)
                                        0x67b (size before relaxing)
 .debug_str     0x000000000000241e       0x49 /opt/ps3dev/ppu/lib/gcc/powerpc64-ps3-elf/4.7.0/../../../../powerpc64-ps3-elf/lib/libc.a(lib_a-reallocr.o)
                                        0x650 (size before relaxing)
 .debug_str     0x0000000000002467       0x53 /opt/ps3dev/ppu/lib/gcc/powerpc64-ps3-elf/4.7.0/../../../../powerpc64-ps3-elf/lib/libc.a(lib_a-s_fpclassify.o)
                                        0x18c (size before relaxing)
 .debug_str     0x00000000000024ba       0xf4 /opt/ps3dev/ppu/lib/gcc/powerpc64-ps3-elf/4.7.0/../../../../powerpc64-ps3-elf/lib/libc.a(lib_a-signal.o)
                                        0x5e4 (size before relaxing)
 .debug_str     0x00000000000025ae       0x80 /opt/ps3dev/ppu/lib/gcc/powerpc64-ps3-elf/4.7.0/../../../../powerpc64-ps3-elf/lib/libc.a(lib_a-stdio.o)
                                        0x5c9 (size before relaxing)
 .debug_str     0x000000000000262e       0x2b /opt/ps3dev/ppu/lib/gcc/powerpc64-ps3-elf/4.7.0/../../../../powerpc64-ps3-elf/lib/libc.a(lib_a-strcmp.o)
                                        0x133 (size before relaxing)
 .debug_str     0x0000000000002659       0x2b /opt/ps3dev/ppu/lib/gcc/powerpc64-ps3-elf/4.7.0/../../../../powerpc64-ps3-elf/lib/libc.a(lib_a-strlen.o)
                                        0x14d (size before relaxing)
 .debug_str     0x0000000000002684       0x30 /opt/ps3dev/ppu/lib/gcc/powerpc64-ps3-elf/4.7.0/../../../../powerpc64-ps3-elf/lib/libc.a(lib_a-wbuf.o)
                                        0x582 (size before relaxing)
 .debug_str     0x00000000000026b4       0x3d /opt/ps3dev/ppu/lib/gcc/powerpc64-ps3-elf/4.7.0/../../../../powerpc64-ps3-elf/lib/libc.a(lib_a-wcrtomb.o)
                                        0x59f (size before relaxing)
 .debug_str     0x00000000000026f1       0x4d /opt/ps3dev/ppu/lib/gcc/powerpc64-ps3-elf/4.7.0/../../../../powerpc64-ps3-elf/lib/libc.a(lib_a-wctomb_r.o)
                                        0x5af (size before relaxing)
 .debug_str     0x000000000000273e        0xf /opt/ps3dev/ppu/lib/gcc/powerpc64-ps3-elf/4.7.0/../../../../powerpc64-ps3-elf/lib/libc.a(lib_a-callocr.o)
                                        0x5a8 (size before relaxing)
 .debug_str     0x000000000000274d       0x3b /opt/ps3dev/ppu/lib/gcc/powerpc64-ps3-elf/4.7.0/../../../../powerpc64-ps3-elf/lib/libc.a(lib_a-fclose.o)
                                        0x602 (size before relaxing)
 .debug_str     0x0000000000002788       0x4d /opt/ps3dev/ppu/lib/gcc/powerpc64-ps3-elf/4.7.0/../../../../powerpc64-ps3-elf/lib/libc.a(lib_a-lock_internal.o)
                                        0x275 (size before relaxing)
 .debug_str     0x00000000000027d5       0x28 /opt/ps3dev/ppu/lib/gcc/powerpc64-ps3-elf/4.7.0/../../../../powerpc64-ps3-elf/lib/libsysbase.a(close.o)
                                        0x9d8 (size before relaxing)
 .debug_str     0x00000000000027fd       0x2c /opt/ps3dev/ppu/lib/gcc/powerpc64-ps3-elf/4.7.0/../../../../powerpc64-ps3-elf/lib/libsysbase.a(sbrk.o)
                                        0x9db (size before relaxing)
 .debug_str     0x0000000000002829       0x28 /opt/ps3dev/ppu/lib/gcc/powerpc64-ps3-elf/4.7.0/../../../../powerpc64-ps3-elf/lib/libsysbase.a(_exit.o)
                                        0x9d5 (size before relaxing)
 .debug_str     0x0000000000002851       0x28 /opt/ps3dev/ppu/lib/gcc/powerpc64-ps3-elf/4.7.0/../../../../powerpc64-ps3-elf/lib/libsysbase.a(fstat.o)
                                        0x9d8 (size before relaxing)
 .debug_str     0x0000000000002879       0x29 /opt/ps3dev/ppu/lib/gcc/powerpc64-ps3-elf/4.7.0/../../../../powerpc64-ps3-elf/lib/libsysbase.a(isatty.o)
                                        0x9da (size before relaxing)
 .debug_str     0x00000000000028a2       0x28 /opt/ps3dev/ppu/lib/gcc/powerpc64-ps3-elf/4.7.0/../../../../powerpc64-ps3-elf/lib/libsysbase.a(lseek.o)
                                        0x9d8 (size before relaxing)
 .debug_str     0x00000000000028ca       0x27 /opt/ps3dev/ppu/lib/gcc/powerpc64-ps3-elf/4.7.0/../../../../powerpc64-ps3-elf/lib/libsysbase.a(read.o)
                                        0x9d6 (size before relaxing)
 .debug_str     0x00000000000028f1       0x28 /opt/ps3dev/ppu/lib/gcc/powerpc64-ps3-elf/4.7.0/../../../../powerpc64-ps3-elf/lib/libsysbase.a(write.o)
                                        0x9d8 (size before relaxing)
 .debug_str     0x0000000000002919       0x2f /opt/ps3dev/ppu/lib/gcc/powerpc64-ps3-elf/4.7.0/../../../../powerpc64-ps3-elf/lib/libsysbase.a(lock.o)
                                        0xa4d (size before relaxing)
 .debug_str     0x0000000000002948       0x29 /opt/ps3dev/ppu/lib/gcc/powerpc64-ps3-elf/4.7.0/../../../../powerpc64-ps3-elf/lib/libsysbase.a(getpid.o)
                                        0x9da (size before relaxing)
 .debug_str     0x0000000000002971       0x27 /opt/ps3dev/ppu/lib/gcc/powerpc64-ps3-elf/4.7.0/../../../../powerpc64-ps3-elf/lib/libsysbase.a(kill.o)
                                        0x54b (size before relaxing)
 .debug_str     0x0000000000002998       0x49 /opt/ps3dev/ppu/lib/gcc/powerpc64-ps3-elf/4.7.0/../../../../powerpc64-ps3-elf/lib/libc.a(lib_a-sscanf.o)
                                        0x5aa (size before relaxing)
 .debug_str     0x00000000000029e1       0x34 /opt/ps3dev/ppu/lib/gcc/powerpc64-ps3-elf/4.7.0/../../../../powerpc64-ps3-elf/lib/libc.a(lib_a-strncpy.o)
                                        0x164 (size before relaxing)
 .debug_str     0x0000000000002a15      0x171 /opt/ps3dev/ppu/lib/gcc/powerpc64-ps3-elf/4.7.0/../../../../powerpc64-ps3-elf/lib/libc.a(lib_a-svfscanf.o)
                                        0x76e (size before relaxing)
 .debug_str     0x0000000000002b86       0x2c /opt/ps3dev/ppu/lib/gcc/powerpc64-ps3-elf/4.7.0/../../../../powerpc64-ps3-elf/lib/libc.a(lib_a-iswspace.o)
                                        0x14a (size before relaxing)
 .debug_str     0x0000000000002bb2       0x3d /opt/ps3dev/ppu/lib/gcc/powerpc64-ps3-elf/4.7.0/../../../../powerpc64-ps3-elf/lib/libc.a(lib_a-mbrtowc.o)
                                        0x59f (size before relaxing)
 .debug_str     0x0000000000002bef       0x4c /opt/ps3dev/ppu/lib/gcc/powerpc64-ps3-elf/4.7.0/../../../../powerpc64-ps3-elf/lib/libc.a(lib_a-mbtowc_r.o)
                                        0x5a8 (size before relaxing)
 .debug_str     0x0000000000002c3b       0x31 /opt/ps3dev/ppu/lib/gcc/powerpc64-ps3-elf/4.7.0/../../../../powerpc64-ps3-elf/lib/libc.a(lib_a-sccl.o)
                                        0x13f (size before relaxing)
 .debug_str     0x0000000000002c6c       0x2b /opt/ps3dev/ppu/lib/gcc/powerpc64-ps3-elf/4.7.0/../../../../powerpc64-ps3-elf/lib/libc.a(lib_a-sf_nan.o)
                                        0x151 (size before relaxing)
 .debug_str     0x0000000000002c97       0x43 /opt/ps3dev/ppu/lib/gcc/powerpc64-ps3-elf/4.7.0/../../../../powerpc64-ps3-elf/lib/libc.a(lib_a-sprintf.o)
                                        0x59e (size before relaxing)
 .debug_str     0x0000000000002cda      0x1be /opt/ps3dev/ppu/lib/gcc/powerpc64-ps3-elf/4.7.0/../../../../powerpc64-ps3-elf/lib/libc.a(lib_a-strtod.o)
                                        0x972 (size before relaxing)
 .debug_str     0x0000000000002e98       0x43 /opt/ps3dev/ppu/lib/gcc/powerpc64-ps3-elf/4.7.0/../../../../powerpc64-ps3-elf/lib/libc.a(lib_a-strtoll_r.o)
                                        0x586 (size before relaxing)
 .debug_str     0x0000000000002edb       0x32 /opt/ps3dev/ppu/lib/gcc/powerpc64-ps3-elf/4.7.0/../../../../powerpc64-ps3-elf/lib/libc.a(lib_a-strtol.o)
                                        0x594 (size before relaxing)
 .debug_str     0x0000000000002f0d       0x2f /opt/ps3dev/ppu/lib/gcc/powerpc64-ps3-elf/4.7.0/../../../../powerpc64-ps3-elf/lib/libc.a(lib_a-strtoull_r.o)
                                        0x588 (size before relaxing)
 .debug_str     0x0000000000002f3c       0x3f /opt/ps3dev/ppu/lib/gcc/powerpc64-ps3-elf/4.7.0/../../../../powerpc64-ps3-elf/lib/libc.a(lib_a-strtoul.o)
                                        0x597 (size before relaxing)
 .debug_str     0x0000000000002f7b       0x1f /opt/ps3dev/ppu/lib/gcc/powerpc64-ps3-elf/4.7.0/../../../../powerpc64-ps3-elf/lib/libc.a(lib_a-svfiscanf.o)
                                        0x711 (size before relaxing)
 .debug_str     0x0000000000002f9a        0xc /opt/ps3dev/ppu/lib/gcc/powerpc64-ps3-elf/4.7.0/../../../../powerpc64-ps3-elf/lib/libc.a(lib_a-svfprintf.o)
                                        0x8e7 (size before relaxing)
 .debug_str     0x0000000000002fa6       0x3b /opt/ps3dev/ppu/lib/gcc/powerpc64-ps3-elf/4.7.0/../../../../powerpc64-ps3-elf/lib/libc.a(lib_a-ungetc.o)
                                        0x5e5 (size before relaxing)
 .debug_str     0x0000000000002fe1       0xd5 /opt/ps3dev/ppu/lib/gcc/powerpc64-ps3-elf/4.7.0/../../../../powerpc64-ps3-elf/lib/libc.a(lib_a-gdtoa-gethex.o)
                                        0x8fa (size before relaxing)
 .debug_str     0x00000000000030b6       0x39 /opt/ps3dev/ppu/lib/gcc/powerpc64-ps3-elf/4.7.0/../../../../powerpc64-ps3-elf/lib/libc.a(lib_a-gdtoa-hexnan.o)
                                        0x277 (size before relaxing)
 .debug_str     0x00000000000030ef       0x2c /opt/ps3dev/ppu/lib/gcc/powerpc64-ps3-elf/4.7.0/../../../../powerpc64-ps3-elf/lib/libc.a(lib_a-strncmp.o)
                                        0x13c (size before relaxing)
 .debug_str     0x000000000000311b        0xe /opt/ps3dev/ppu/lib/gcc/powerpc64-ps3-elf/4.7.0/../../../../powerpc64-ps3-elf/lib/libc.a(lib_a-svfiprintf.o)
                                        0x6ea (size before relaxing)

.debug_loc      0x0000000000000000    0x3160c
 *(.debug_loc)
 .debug_loc     0x0000000000000000      0x1ea /opt/ps3dev/ppu/lib/gcc/powerpc64-ps3-elf/4.7.0/../../../../powerpc64-ps3-elf/lib/libm.a(lib_a-sf_cos.o)
 .debug_loc     0x00000000000001ea      0x1ea /opt/ps3dev/ppu/lib/gcc/powerpc64-ps3-elf/4.7.0/../../../../powerpc64-ps3-elf/lib/libm.a(lib_a-sf_sin.o)
 .debug_loc     0x00000000000003d4      0x1ce /opt/ps3dev/ppu/lib/gcc/powerpc64-ps3-elf/4.7.0/../../../../powerpc64-ps3-elf/lib/libm.a(lib_a-sf_tan.o)
 .debug_loc     0x00000000000005a2      0x18f /opt/ps3dev/ppu/lib/gcc/powerpc64-ps3-elf/4.7.0/../../../../powerpc64-ps3-elf/lib/libm.a(lib_a-wf_sqrt.o)
 .debug_loc     0x0000000000000731      0xae4 /opt/ps3dev/ppu/lib/gcc/powerpc64-ps3-elf/4.7.0/../../../../powerpc64-ps3-elf/lib/libm.a(lib_a-ef_rem_pio2.o)
 .debug_loc     0x0000000000001215      0x46f /opt/ps3dev/ppu/lib/gcc/powerpc64-ps3-elf/4.7.0/../../../../powerpc64-ps3-elf/lib/libm.a(lib_a-ef_sqrt.o)
 .debug_loc     0x0000000000001684      0x3d6 /opt/ps3dev/ppu/lib/gcc/powerpc64-ps3-elf/4.7.0/../../../../powerpc64-ps3-elf/lib/libm.a(lib_a-kf_cos.o)
 .debug_loc     0x0000000000001a5a      0xefa /opt/ps3dev/ppu/lib/gcc/powerpc64-ps3-elf/4.7.0/../../../../powerpc64-ps3-elf/lib/libm.a(lib_a-kf_rem_pio2.o)
 .debug_loc     0x0000000000002954      0x140 /opt/ps3dev/ppu/lib/gcc/powerpc64-ps3-elf/4.7.0/../../../../powerpc64-ps3-elf/lib/libm.a(lib_a-kf_sin.o)
 .debug_loc     0x0000000000002a94      0x9fa /opt/ps3dev/ppu/lib/gcc/powerpc64-ps3-elf/4.7.0/../../../../powerpc64-ps3-elf/lib/libm.a(lib_a-kf_tan.o)
 .debug_loc     0x000000000000348e       0x9b /opt/ps3dev/ppu/lib/gcc/powerpc64-ps3-elf/4.7.0/../../../../powerpc64-ps3-elf/lib/libm.a(lib_a-sf_fabs.o)
 .debug_loc     0x0000000000003529      0x3e8 /opt/ps3dev/ppu/lib/gcc/powerpc64-ps3-elf/4.7.0/../../../../powerpc64-ps3-elf/lib/libm.a(lib_a-sf_floor.o)
 .debug_loc     0x0000000000003911      0x5b1 /opt/ps3dev/ppu/lib/gcc/powerpc64-ps3-elf/4.7.0/../../../../powerpc64-ps3-elf/lib/libm.a(lib_a-sf_scalbn.o)
 .debug_loc     0x0000000000003ec2       0x39 /opt/ps3dev/ppu/lib/gcc/powerpc64-ps3-elf/4.7.0/../../../../powerpc64-ps3-elf/lib/libm.a(lib_a-s_matherr.o)
 .debug_loc     0x0000000000003efb      0x11a /opt/ps3dev/ppu/lib/gcc/powerpc64-ps3-elf/4.7.0/../../../../powerpc64-ps3-elf/lib/libm.a(lib_a-sf_copysign.o)
 .debug_loc     0x0000000000004015      0x170 /opt/ps3dev/ppu/lib/gcc/powerpc64-ps3-elf/4.7.0/../../../../powerpc64-ps3-elf/lib/libsysbase.a(sleep.o)
 .debug_loc     0x0000000000004185      0x24a /opt/ps3dev/ppu/lib/gcc/powerpc64-ps3-elf/4.7.0/../../../../powerpc64-ps3-elf/lib/libc.a(lib_a-assert.o)
 .debug_loc     0x00000000000043cf       0x99 /opt/ps3dev/ppu/lib/gcc/powerpc64-ps3-elf/4.7.0/../../../../powerpc64-ps3-elf/lib/libc.a(lib_a-atexit.o)
 .debug_loc     0x0000000000004468       0x4d /opt/ps3dev/ppu/lib/gcc/powerpc64-ps3-elf/4.7.0/../../../../powerpc64-ps3-elf/lib/libc.a(lib_a-errno.o)
 .debug_loc     0x00000000000044b5       0x72 /opt/ps3dev/ppu/lib/gcc/powerpc64-ps3-elf/4.7.0/../../../../powerpc64-ps3-elf/lib/libc.a(lib_a-exit.o)
 .debug_loc     0x0000000000004527      0x1dd /opt/ps3dev/ppu/lib/gcc/powerpc64-ps3-elf/4.7.0/../../../../powerpc64-ps3-elf/lib/libc.a(lib_a-fiprintf.o)
 .debug_loc     0x0000000000004704       0xd2 /opt/ps3dev/ppu/lib/gcc/powerpc64-ps3-elf/4.7.0/../../../../powerpc64-ps3-elf/lib/libc.a(lib_a-getreent.o)
 .debug_loc     0x00000000000047d6       0xe5 /opt/ps3dev/ppu/lib/gcc/powerpc64-ps3-elf/4.7.0/../../../../powerpc64-ps3-elf/lib/libc.a(lib_a-malign.o)
 .debug_loc     0x00000000000048bb      0x4cd /opt/ps3dev/ppu/lib/gcc/powerpc64-ps3-elf/4.7.0/../../../../powerpc64-ps3-elf/lib/libc.a(lib_a-malignr.o)
 .debug_loc     0x0000000000004d88      0x132 /opt/ps3dev/ppu/lib/gcc/powerpc64-ps3-elf/4.7.0/../../../../powerpc64-ps3-elf/lib/libc.a(lib_a-malloc.o)
 .debug_loc     0x0000000000004eba     0x1651 /opt/ps3dev/ppu/lib/gcc/powerpc64-ps3-elf/4.7.0/../../../../powerpc64-ps3-elf/lib/libc.a(lib_a-mallocr.o)
 .debug_loc     0x000000000000650b      0x342 /opt/ps3dev/ppu/lib/gcc/powerpc64-ps3-elf/4.7.0/../../../../powerpc64-ps3-elf/lib/libc.a(lib_a-memcpy.o)
 .debug_loc     0x000000000000684d      0x2eb /opt/ps3dev/ppu/lib/gcc/powerpc64-ps3-elf/4.7.0/../../../../powerpc64-ps3-elf/lib/libc.a(lib_a-memset.o)
 .debug_loc     0x0000000000006b38      0x10c /opt/ps3dev/ppu/lib/gcc/powerpc64-ps3-elf/4.7.0/../../../../powerpc64-ps3-elf/lib/libc.a(lib_a-mlock.o)
 .debug_loc     0x0000000000006c44      0x18e /opt/ps3dev/ppu/lib/gcc/powerpc64-ps3-elf/4.7.0/../../../../powerpc64-ps3-elf/lib/libc.a(lib_a-printf.o)
 .debug_loc     0x0000000000006dd2       0xd3 /opt/ps3dev/ppu/lib/gcc/powerpc64-ps3-elf/4.7.0/../../../../powerpc64-ps3-elf/lib/libc.a(lib_a-rand.o)
 .debug_loc     0x0000000000006ea5      0x208 /opt/ps3dev/ppu/lib/gcc/powerpc64-ps3-elf/4.7.0/../../../../powerpc64-ps3-elf/lib/libc.a(lib_a-strcasecmp.o)
 .debug_loc     0x00000000000070ad     0x255a /opt/ps3dev/ppu/lib/gcc/powerpc64-ps3-elf/4.7.0/../../../../powerpc64-ps3-elf/lib/libc.a(lib_a-vfiprintf.o)
 .debug_loc     0x0000000000009607     0x3fbc /opt/ps3dev/ppu/lib/gcc/powerpc64-ps3-elf/4.7.0/../../../../powerpc64-ps3-elf/lib/libc.a(lib_a-vfprintf.o)
 .debug_loc     0x000000000000d5c3      0x120 /opt/ps3dev/ppu/lib/gcc/powerpc64-ps3-elf/4.7.0/../../../../powerpc64-ps3-elf/lib/libc.a(lib_a-wsetup.o)
 .debug_loc     0x000000000000d6e3       0x39 /opt/ps3dev/ppu/lib/gcc/powerpc64-ps3-elf/4.7.0/../../../../powerpc64-ps3-elf/lib/libc.a(lib_a-abort.o)
 .debug_loc     0x000000000000d71c      0x31a /opt/ps3dev/ppu/lib/gcc/powerpc64-ps3-elf/4.7.0/../../../../powerpc64-ps3-elf/lib/libc.a(lib_a-__atexit.o)
 .debug_loc     0x000000000000da36      0x2fd /opt/ps3dev/ppu/lib/gcc/powerpc64-ps3-elf/4.7.0/../../../../powerpc64-ps3-elf/lib/libc.a(lib_a-__call_atexit.o)
 .debug_loc     0x000000000000dd33     0x3ddf /opt/ps3dev/ppu/lib/gcc/powerpc64-ps3-elf/4.7.0/../../../../powerpc64-ps3-elf/lib/libc.a(lib_a-dtoa.o)
 .debug_loc     0x0000000000011b12      0x86d /opt/ps3dev/ppu/lib/gcc/powerpc64-ps3-elf/4.7.0/../../../../powerpc64-ps3-elf/lib/libc.a(lib_a-fflush.o)
 .debug_loc     0x000000000001237f      0x879 /opt/ps3dev/ppu/lib/gcc/powerpc64-ps3-elf/4.7.0/../../../../powerpc64-ps3-elf/lib/libc.a(lib_a-findfp.o)
 .debug_loc     0x0000000000012bf8      0x526 /opt/ps3dev/ppu/lib/gcc/powerpc64-ps3-elf/4.7.0/../../../../powerpc64-ps3-elf/lib/libc.a(lib_a-fputwc.o)
 .debug_loc     0x000000000001311e      0x967 /opt/ps3dev/ppu/lib/gcc/powerpc64-ps3-elf/4.7.0/../../../../powerpc64-ps3-elf/lib/libc.a(lib_a-freer.o)
 .debug_loc     0x0000000000013a85      0x939 /opt/ps3dev/ppu/lib/gcc/powerpc64-ps3-elf/4.7.0/../../../../powerpc64-ps3-elf/lib/libc.a(lib_a-fvwrite.o)
 .debug_loc     0x00000000000143be      0x5ca /opt/ps3dev/ppu/lib/gcc/powerpc64-ps3-elf/4.7.0/../../../../powerpc64-ps3-elf/lib/libc.a(lib_a-fwalk.o)
 .debug_loc     0x0000000000014988      0x2c8 /opt/ps3dev/ppu/lib/gcc/powerpc64-ps3-elf/4.7.0/../../../../powerpc64-ps3-elf/lib/libc.a(lib_a-locale.o)
 .debug_loc     0x0000000000014c50      0x2d7 /opt/ps3dev/ppu/lib/gcc/powerpc64-ps3-elf/4.7.0/../../../../powerpc64-ps3-elf/lib/libc.a(lib_a-lock_recursive.o)
 .debug_loc     0x0000000000014f27      0x28b /opt/ps3dev/ppu/lib/gcc/powerpc64-ps3-elf/4.7.0/../../../../powerpc64-ps3-elf/lib/libc.a(lib_a-makebuf.o)
 .debug_loc     0x00000000000151b2      0x2ba /opt/ps3dev/ppu/lib/gcc/powerpc64-ps3-elf/4.7.0/../../../../powerpc64-ps3-elf/lib/libc.a(lib_a-memchr.o)
 .debug_loc     0x000000000001546c      0x3b4 /opt/ps3dev/ppu/lib/gcc/powerpc64-ps3-elf/4.7.0/../../../../powerpc64-ps3-elf/lib/libc.a(lib_a-memmove.o)
 .debug_loc     0x0000000000015820     0x3756 /opt/ps3dev/ppu/lib/gcc/powerpc64-ps3-elf/4.7.0/../../../../powerpc64-ps3-elf/lib/libc.a(lib_a-mprec.o)
 .debug_loc     0x0000000000018f76     0x2126 /opt/ps3dev/ppu/lib/gcc/powerpc64-ps3-elf/4.7.0/../../../../powerpc64-ps3-elf/lib/libc.a(lib_a-reallocr.o)
 .debug_loc     0x000000000001b09c       0x23 /opt/ps3dev/ppu/lib/gcc/powerpc64-ps3-elf/4.7.0/../../../../powerpc64-ps3-elf/lib/libc.a(lib_a-s_fpclassify.o)
 .debug_loc     0x000000000001b0bf      0x95b /opt/ps3dev/ppu/lib/gcc/powerpc64-ps3-elf/4.7.0/../../../../powerpc64-ps3-elf/lib/libc.a(lib_a-signal.o)
 .debug_loc     0x000000000001ba1a      0x6c4 /opt/ps3dev/ppu/lib/gcc/powerpc64-ps3-elf/4.7.0/../../../../powerpc64-ps3-elf/lib/libc.a(lib_a-stdio.o)
 .debug_loc     0x000000000001c0de      0x1ae /opt/ps3dev/ppu/lib/gcc/powerpc64-ps3-elf/4.7.0/../../../../powerpc64-ps3-elf/lib/libc.a(lib_a-strcmp.o)
 .debug_loc     0x000000000001c28c      0x121 /opt/ps3dev/ppu/lib/gcc/powerpc64-ps3-elf/4.7.0/../../../../powerpc64-ps3-elf/lib/libc.a(lib_a-strlen.o)
 .debug_loc     0x000000000001c3ad      0x34b /opt/ps3dev/ppu/lib/gcc/powerpc64-ps3-elf/4.7.0/../../../../powerpc64-ps3-elf/lib/libc.a(lib_a-wbuf.o)
 .debug_loc     0x000000000001c6f8      0x4f9 /opt/ps3dev/ppu/lib/gcc/powerpc64-ps3-elf/4.7.0/../../../../powerpc64-ps3-elf/lib/libc.a(lib_a-wcrtomb.o)
 .debug_loc     0x000000000001cbf1      0x1cc /opt/ps3dev/ppu/lib/gcc/powerpc64-ps3-elf/4.7.0/../../../../powerpc64-ps3-elf/lib/libc.a(lib_a-wctomb_r.o)
 .debug_loc     0x000000000001cdbd      0x3e5 /opt/ps3dev/ppu/lib/gcc/powerpc64-ps3-elf/4.7.0/../../../../powerpc64-ps3-elf/lib/libc.a(lib_a-callocr.o)
 .debug_loc     0x000000000001d1a2      0x367 /opt/ps3dev/ppu/lib/gcc/powerpc64-ps3-elf/4.7.0/../../../../powerpc64-ps3-elf/lib/libc.a(lib_a-fclose.o)
 .debug_loc     0x000000000001d509      0x123 /opt/ps3dev/ppu/lib/gcc/powerpc64-ps3-elf/4.7.0/../../../../powerpc64-ps3-elf/lib/libc.a(lib_a-lock_internal.o)
 .debug_loc     0x000000000001d62c       0xf8 /opt/ps3dev/ppu/lib/gcc/powerpc64-ps3-elf/4.7.0/../../../../powerpc64-ps3-elf/lib/libsysbase.a(close.o)
 .debug_loc     0x000000000001d724       0xf8 /opt/ps3dev/ppu/lib/gcc/powerpc64-ps3-elf/4.7.0/../../../../powerpc64-ps3-elf/lib/libsysbase.a(sbrk.o)
 .debug_loc     0x000000000001d81c       0x72 /opt/ps3dev/ppu/lib/gcc/powerpc64-ps3-elf/4.7.0/../../../../powerpc64-ps3-elf/lib/libsysbase.a(_exit.o)
 .debug_loc     0x000000000001d88e      0x144 /opt/ps3dev/ppu/lib/gcc/powerpc64-ps3-elf/4.7.0/../../../../powerpc64-ps3-elf/lib/libsysbase.a(fstat.o)
 .debug_loc     0x000000000001d9d2       0xf8 /opt/ps3dev/ppu/lib/gcc/powerpc64-ps3-elf/4.7.0/../../../../powerpc64-ps3-elf/lib/libsysbase.a(isatty.o)
 .debug_loc     0x000000000001daca      0x190 /opt/ps3dev/ppu/lib/gcc/powerpc64-ps3-elf/4.7.0/../../../../powerpc64-ps3-elf/lib/libsysbase.a(lseek.o)
 .debug_loc     0x000000000001dc5a      0x190 /opt/ps3dev/ppu/lib/gcc/powerpc64-ps3-elf/4.7.0/../../../../powerpc64-ps3-elf/lib/libsysbase.a(read.o)
 .debug_loc     0x000000000001ddea      0x190 /opt/ps3dev/ppu/lib/gcc/powerpc64-ps3-elf/4.7.0/../../../../powerpc64-ps3-elf/lib/libsysbase.a(write.o)
 .debug_loc     0x000000000001df7a      0x483 /opt/ps3dev/ppu/lib/gcc/powerpc64-ps3-elf/4.7.0/../../../../powerpc64-ps3-elf/lib/libsysbase.a(lock.o)
 .debug_loc     0x000000000001e3fd       0xac /opt/ps3dev/ppu/lib/gcc/powerpc64-ps3-elf/4.7.0/../../../../powerpc64-ps3-elf/lib/libsysbase.a(getpid.o)
 .debug_loc     0x000000000001e4a9       0x39 /opt/ps3dev/ppu/lib/gcc/powerpc64-ps3-elf/4.7.0/../../../../powerpc64-ps3-elf/lib/libsysbase.a(kill.o)
 .debug_loc     0x000000000001e4e2      0x1dd /opt/ps3dev/ppu/lib/gcc/powerpc64-ps3-elf/4.7.0/../../../../powerpc64-ps3-elf/lib/libc.a(lib_a-sscanf.o)
 .debug_loc     0x000000000001e6bf      0x23b /opt/ps3dev/ppu/lib/gcc/powerpc64-ps3-elf/4.7.0/../../../../powerpc64-ps3-elf/lib/libc.a(lib_a-strncpy.o)
 .debug_loc     0x000000000001e8fa     0x224e /opt/ps3dev/ppu/lib/gcc/powerpc64-ps3-elf/4.7.0/../../../../powerpc64-ps3-elf/lib/libc.a(lib_a-svfscanf.o)
 .debug_loc     0x0000000000020b48       0x62 /opt/ps3dev/ppu/lib/gcc/powerpc64-ps3-elf/4.7.0/../../../../powerpc64-ps3-elf/lib/libc.a(lib_a-iswspace.o)
 .debug_loc     0x0000000000020baa      0x5e3 /opt/ps3dev/ppu/lib/gcc/powerpc64-ps3-elf/4.7.0/../../../../powerpc64-ps3-elf/lib/libc.a(lib_a-mbrtowc.o)
 .debug_loc     0x000000000002118d      0x251 /opt/ps3dev/ppu/lib/gcc/powerpc64-ps3-elf/4.7.0/../../../../powerpc64-ps3-elf/lib/libc.a(lib_a-mbtowc_r.o)
 .debug_loc     0x00000000000213de      0x2ec /opt/ps3dev/ppu/lib/gcc/powerpc64-ps3-elf/4.7.0/../../../../powerpc64-ps3-elf/lib/libc.a(lib_a-sccl.o)
 .debug_loc     0x00000000000216ca      0x1dd /opt/ps3dev/ppu/lib/gcc/powerpc64-ps3-elf/4.7.0/../../../../powerpc64-ps3-elf/lib/libc.a(lib_a-sprintf.o)
 .debug_loc     0x00000000000218a7     0x3b72 /opt/ps3dev/ppu/lib/gcc/powerpc64-ps3-elf/4.7.0/../../../../powerpc64-ps3-elf/lib/libc.a(lib_a-strtod.o)
 .debug_loc     0x0000000000025419      0x5e6 /opt/ps3dev/ppu/lib/gcc/powerpc64-ps3-elf/4.7.0/../../../../powerpc64-ps3-elf/lib/libc.a(lib_a-strtoll_r.o)
 .debug_loc     0x00000000000259ff      0x72a /opt/ps3dev/ppu/lib/gcc/powerpc64-ps3-elf/4.7.0/../../../../powerpc64-ps3-elf/lib/libc.a(lib_a-strtol.o)
 .debug_loc     0x0000000000026129      0x4f1 /opt/ps3dev/ppu/lib/gcc/powerpc64-ps3-elf/4.7.0/../../../../powerpc64-ps3-elf/lib/libc.a(lib_a-strtoull_r.o)
 .debug_loc     0x000000000002661a      0x635 /opt/ps3dev/ppu/lib/gcc/powerpc64-ps3-elf/4.7.0/../../../../powerpc64-ps3-elf/lib/libc.a(lib_a-strtoul.o)
 .debug_loc     0x0000000000026c4f     0x2007 /opt/ps3dev/ppu/lib/gcc/powerpc64-ps3-elf/4.7.0/../../../../powerpc64-ps3-elf/lib/libc.a(lib_a-svfiscanf.o)
 .debug_loc     0x0000000000028c56     0x3a40 /opt/ps3dev/ppu/lib/gcc/powerpc64-ps3-elf/4.7.0/../../../../powerpc64-ps3-elf/lib/libc.a(lib_a-svfprintf.o)
 .debug_loc     0x000000000002c696      0x6ce /opt/ps3dev/ppu/lib/gcc/powerpc64-ps3-elf/4.7.0/../../../../powerpc64-ps3-elf/lib/libc.a(lib_a-ungetc.o)
 .debug_loc     0x000000000002cd64     0x1c6a /opt/ps3dev/ppu/lib/gcc/powerpc64-ps3-elf/4.7.0/../../../../powerpc64-ps3-elf/lib/libc.a(lib_a-gdtoa-gethex.o)
 .debug_loc     0x000000000002e9ce      0x86a /opt/ps3dev/ppu/lib/gcc/powerpc64-ps3-elf/4.7.0/../../../../powerpc64-ps3-elf/lib/libc.a(lib_a-gdtoa-hexnan.o)
 .debug_loc     0x000000000002f238      0x347 /opt/ps3dev/ppu/lib/gcc/powerpc64-ps3-elf/4.7.0/../../../../powerpc64-ps3-elf/lib/libc.a(lib_a-strncmp.o)
 .debug_loc     0x000000000002f57f     0x208d /opt/ps3dev/ppu/lib/gcc/powerpc64-ps3-elf/4.7.0/../../../../powerpc64-ps3-elf/lib/libc.a(lib_a-svfiprintf.o)

.debug_macinfo
 *(.debug_macinfo)

.debug_weaknames
 *(.debug_weaknames)

.debug_funcnames
 *(.debug_funcnames)

.debug_typenames
 *(.debug_typenames)

.debug_varnames
 *(.debug_varnames)

.debug_pubtypes
 *(.debug_pubtypes)

.debug_ranges   0x0000000000000000     0x2d40
 *(.debug_ranges)
 .debug_ranges  0x0000000000000000       0x20 /opt/ps3dev/ppu/lib/gcc/powerpc64-ps3-elf/4.7.0/../../../../powerpc64-ps3-elf/lib/libm.a(lib_a-sf_cos.o)
 .debug_ranges  0x0000000000000020       0x20 /opt/ps3dev/ppu/lib/gcc/powerpc64-ps3-elf/4.7.0/../../../../powerpc64-ps3-elf/lib/libm.a(lib_a-sf_sin.o)
 .debug_ranges  0x0000000000000040       0x20 /opt/ps3dev/ppu/lib/gcc/powerpc64-ps3-elf/4.7.0/../../../../powerpc64-ps3-elf/lib/libm.a(lib_a-sf_tan.o)
 .debug_ranges  0x0000000000000060       0x20 /opt/ps3dev/ppu/lib/gcc/powerpc64-ps3-elf/4.7.0/../../../../powerpc64-ps3-elf/lib/libm.a(lib_a-wf_sqrt.o)
 .debug_ranges  0x0000000000000080       0xa0 /opt/ps3dev/ppu/lib/gcc/powerpc64-ps3-elf/4.7.0/../../../../powerpc64-ps3-elf/lib/libm.a(lib_a-ef_rem_pio2.o)
 .debug_ranges  0x0000000000000120       0x50 /opt/ps3dev/ppu/lib/gcc/powerpc64-ps3-elf/4.7.0/../../../../powerpc64-ps3-elf/lib/libm.a(lib_a-ef_sqrt.o)
 .debug_ranges  0x0000000000000170       0x20 /opt/ps3dev/ppu/lib/gcc/powerpc64-ps3-elf/4.7.0/../../../../powerpc64-ps3-elf/lib/libm.a(lib_a-kf_cos.o)
 .debug_ranges  0x0000000000000190       0x20 /opt/ps3dev/ppu/lib/gcc/powerpc64-ps3-elf/4.7.0/../../../../powerpc64-ps3-elf/lib/libm.a(lib_a-kf_rem_pio2.o)
 .debug_ranges  0x00000000000001b0       0x20 /opt/ps3dev/ppu/lib/gcc/powerpc64-ps3-elf/4.7.0/../../../../powerpc64-ps3-elf/lib/libm.a(lib_a-kf_sin.o)
 .debug_ranges  0x00000000000001d0       0xa0 /opt/ps3dev/ppu/lib/gcc/powerpc64-ps3-elf/4.7.0/../../../../powerpc64-ps3-elf/lib/libm.a(lib_a-kf_tan.o)
 .debug_ranges  0x0000000000000270       0x20 /opt/ps3dev/ppu/lib/gcc/powerpc64-ps3-elf/4.7.0/../../../../powerpc64-ps3-elf/lib/libm.a(lib_a-sf_fabs.o)
 .debug_ranges  0x0000000000000290       0x50 /opt/ps3dev/ppu/lib/gcc/powerpc64-ps3-elf/4.7.0/../../../../powerpc64-ps3-elf/lib/libm.a(lib_a-sf_floor.o)
 .debug_ranges  0x00000000000002e0       0x20 /opt/ps3dev/ppu/lib/gcc/powerpc64-ps3-elf/4.7.0/../../../../powerpc64-ps3-elf/lib/libm.a(lib_a-sf_fpclassify.o)
 .debug_ranges  0x0000000000000300       0xb0 /opt/ps3dev/ppu/lib/gcc/powerpc64-ps3-elf/4.7.0/../../../../powerpc64-ps3-elf/lib/libm.a(lib_a-sf_scalbn.o)
 .debug_ranges  0x00000000000003b0       0x20 /opt/ps3dev/ppu/lib/gcc/powerpc64-ps3-elf/4.7.0/../../../../powerpc64-ps3-elf/lib/libm.a(lib_a-s_matherr.o)
 .debug_ranges  0x00000000000003d0       0x20 /opt/ps3dev/ppu/lib/gcc/powerpc64-ps3-elf/4.7.0/../../../../powerpc64-ps3-elf/lib/libm.a(lib_a-sf_copysign.o)
 .debug_ranges  0x00000000000003f0       0x30 /opt/ps3dev/ppu/lib/gcc/powerpc64-ps3-elf/4.7.0/../../../../powerpc64-ps3-elf/lib/libsysbase.a(sleep.o)
 .debug_ranges  0x0000000000000420       0x30 /opt/ps3dev/ppu/lib/gcc/powerpc64-ps3-elf/4.7.0/../../../../powerpc64-ps3-elf/lib/libc.a(lib_a-assert.o)
 .debug_ranges  0x0000000000000450       0x20 /opt/ps3dev/ppu/lib/gcc/powerpc64-ps3-elf/4.7.0/../../../../powerpc64-ps3-elf/lib/libc.a(lib_a-atexit.o)
 .debug_ranges  0x0000000000000470       0x20 /opt/ps3dev/ppu/lib/gcc/powerpc64-ps3-elf/4.7.0/../../../../powerpc64-ps3-elf/lib/libc.a(lib_a-errno.o)
 .debug_ranges  0x0000000000000490       0x20 /opt/ps3dev/ppu/lib/gcc/powerpc64-ps3-elf/4.7.0/../../../../powerpc64-ps3-elf/lib/libc.a(lib_a-exit.o)
 .debug_ranges  0x00000000000004b0       0x30 /opt/ps3dev/ppu/lib/gcc/powerpc64-ps3-elf/4.7.0/../../../../powerpc64-ps3-elf/lib/libc.a(lib_a-fiprintf.o)
 .debug_ranges  0x00000000000004e0       0x70 /opt/ps3dev/ppu/lib/gcc/powerpc64-ps3-elf/4.7.0/../../../../powerpc64-ps3-elf/lib/libc.a(lib_a-getreent.o)
 .debug_ranges  0x0000000000000550       0x20 /opt/ps3dev/ppu/lib/gcc/powerpc64-ps3-elf/4.7.0/../../../../powerpc64-ps3-elf/lib/libc.a(lib_a-malign.o)
 .debug_ranges  0x0000000000000570       0x20 /opt/ps3dev/ppu/lib/gcc/powerpc64-ps3-elf/4.7.0/../../../../powerpc64-ps3-elf/lib/libc.a(lib_a-malignr.o)
 .debug_ranges  0x0000000000000590       0x30 /opt/ps3dev/ppu/lib/gcc/powerpc64-ps3-elf/4.7.0/../../../../powerpc64-ps3-elf/lib/libc.a(lib_a-malloc.o)
 .debug_ranges  0x00000000000005c0      0x100 /opt/ps3dev/ppu/lib/gcc/powerpc64-ps3-elf/4.7.0/../../../../powerpc64-ps3-elf/lib/libc.a(lib_a-mallocr.o)
 .debug_ranges  0x00000000000006c0       0x20 /opt/ps3dev/ppu/lib/gcc/powerpc64-ps3-elf/4.7.0/../../../../powerpc64-ps3-elf/lib/libc.a(lib_a-memcpy.o)
 .debug_ranges  0x00000000000006e0       0x20 /opt/ps3dev/ppu/lib/gcc/powerpc64-ps3-elf/4.7.0/../../../../powerpc64-ps3-elf/lib/libc.a(lib_a-memset.o)
 .debug_ranges  0x0000000000000700       0x30 /opt/ps3dev/ppu/lib/gcc/powerpc64-ps3-elf/4.7.0/../../../../powerpc64-ps3-elf/lib/libc.a(lib_a-mlock.o)
 .debug_ranges  0x0000000000000730       0x30 /opt/ps3dev/ppu/lib/gcc/powerpc64-ps3-elf/4.7.0/../../../../powerpc64-ps3-elf/lib/libc.a(lib_a-printf.o)
 .debug_ranges  0x0000000000000760       0x30 /opt/ps3dev/ppu/lib/gcc/powerpc64-ps3-elf/4.7.0/../../../../powerpc64-ps3-elf/lib/libc.a(lib_a-rand.o)
 .debug_ranges  0x0000000000000790       0x90 /opt/ps3dev/ppu/lib/gcc/powerpc64-ps3-elf/4.7.0/../../../../powerpc64-ps3-elf/lib/libc.a(lib_a-strcasecmp.o)
 .debug_ranges  0x0000000000000820      0x1f0 /opt/ps3dev/ppu/lib/gcc/powerpc64-ps3-elf/4.7.0/../../../../powerpc64-ps3-elf/lib/libc.a(lib_a-vfiprintf.o)
 .debug_ranges  0x0000000000000a10      0x450 /opt/ps3dev/ppu/lib/gcc/powerpc64-ps3-elf/4.7.0/../../../../powerpc64-ps3-elf/lib/libc.a(lib_a-vfprintf.o)
 .debug_ranges  0x0000000000000e60       0x20 /opt/ps3dev/ppu/lib/gcc/powerpc64-ps3-elf/4.7.0/../../../../powerpc64-ps3-elf/lib/libc.a(lib_a-wsetup.o)
 .debug_ranges  0x0000000000000e80       0x20 /opt/ps3dev/ppu/lib/gcc/powerpc64-ps3-elf/4.7.0/../../../../powerpc64-ps3-elf/lib/libc.a(lib_a-abort.o)
 .debug_ranges  0x0000000000000ea0       0x20 /opt/ps3dev/ppu/lib/gcc/powerpc64-ps3-elf/4.7.0/../../../../powerpc64-ps3-elf/lib/libc.a(lib_a-__atexit.o)
 .debug_ranges  0x0000000000000ec0       0x70 /opt/ps3dev/ppu/lib/gcc/powerpc64-ps3-elf/4.7.0/../../../../powerpc64-ps3-elf/lib/libc.a(lib_a-__call_atexit.o)
 .debug_ranges  0x0000000000000f30       0x30 /opt/ps3dev/ppu/lib/gcc/powerpc64-ps3-elf/4.7.0/../../../../powerpc64-ps3-elf/lib/libc.a(lib_a-dtoa.o)
 .debug_ranges  0x0000000000000f60      0x160 /opt/ps3dev/ppu/lib/gcc/powerpc64-ps3-elf/4.7.0/../../../../powerpc64-ps3-elf/lib/libc.a(lib_a-fflush.o)
 .debug_ranges  0x00000000000010c0       0xf0 /opt/ps3dev/ppu/lib/gcc/powerpc64-ps3-elf/4.7.0/../../../../powerpc64-ps3-elf/lib/libc.a(lib_a-findfp.o)
 .debug_ranges  0x00000000000011b0       0xb0 /opt/ps3dev/ppu/lib/gcc/powerpc64-ps3-elf/4.7.0/../../../../powerpc64-ps3-elf/lib/libc.a(lib_a-fputwc.o)
 .debug_ranges  0x0000000000001260       0x30 /opt/ps3dev/ppu/lib/gcc/powerpc64-ps3-elf/4.7.0/../../../../powerpc64-ps3-elf/lib/libc.a(lib_a-freer.o)
 .debug_ranges  0x0000000000001290       0x70 /opt/ps3dev/ppu/lib/gcc/powerpc64-ps3-elf/4.7.0/../../../../powerpc64-ps3-elf/lib/libc.a(lib_a-fvwrite.o)
 .debug_ranges  0x0000000000001300       0x30 /opt/ps3dev/ppu/lib/gcc/powerpc64-ps3-elf/4.7.0/../../../../powerpc64-ps3-elf/lib/libc.a(lib_a-fwalk.o)
 .debug_ranges  0x0000000000001330       0x90 /opt/ps3dev/ppu/lib/gcc/powerpc64-ps3-elf/4.7.0/../../../../powerpc64-ps3-elf/lib/libc.a(lib_a-locale.o)
 .debug_ranges  0x00000000000013c0       0x60 /opt/ps3dev/ppu/lib/gcc/powerpc64-ps3-elf/4.7.0/../../../../powerpc64-ps3-elf/lib/libc.a(lib_a-lock_recursive.o)
 .debug_ranges  0x0000000000001420       0x20 /opt/ps3dev/ppu/lib/gcc/powerpc64-ps3-elf/4.7.0/../../../../powerpc64-ps3-elf/lib/libc.a(lib_a-makebuf.o)
 .debug_ranges  0x0000000000001440       0x20 /opt/ps3dev/ppu/lib/gcc/powerpc64-ps3-elf/4.7.0/../../../../powerpc64-ps3-elf/lib/libc.a(lib_a-memchr.o)
 .debug_ranges  0x0000000000001460       0x20 /opt/ps3dev/ppu/lib/gcc/powerpc64-ps3-elf/4.7.0/../../../../powerpc64-ps3-elf/lib/libc.a(lib_a-memmove.o)
 .debug_ranges  0x0000000000001480      0x1f0 /opt/ps3dev/ppu/lib/gcc/powerpc64-ps3-elf/4.7.0/../../../../powerpc64-ps3-elf/lib/libc.a(lib_a-mprec.o)
 .debug_ranges  0x0000000000001670      0x2c0 /opt/ps3dev/ppu/lib/gcc/powerpc64-ps3-elf/4.7.0/../../../../powerpc64-ps3-elf/lib/libc.a(lib_a-reallocr.o)
 .debug_ranges  0x0000000000001930       0x50 /opt/ps3dev/ppu/lib/gcc/powerpc64-ps3-elf/4.7.0/../../../../powerpc64-ps3-elf/lib/libc.a(lib_a-s_fpclassify.o)
 .debug_ranges  0x0000000000001980       0xf0 /opt/ps3dev/ppu/lib/gcc/powerpc64-ps3-elf/4.7.0/../../../../powerpc64-ps3-elf/lib/libc.a(lib_a-signal.o)
 .debug_ranges  0x0000000000001a70       0x60 /opt/ps3dev/ppu/lib/gcc/powerpc64-ps3-elf/4.7.0/../../../../powerpc64-ps3-elf/lib/libc.a(lib_a-stdio.o)
 .debug_ranges  0x0000000000001ad0       0x20 /opt/ps3dev/ppu/lib/gcc/powerpc64-ps3-elf/4.7.0/../../../../powerpc64-ps3-elf/lib/libc.a(lib_a-strcmp.o)
 .debug_ranges  0x0000000000001af0       0x20 /opt/ps3dev/ppu/lib/gcc/powerpc64-ps3-elf/4.7.0/../../../../powerpc64-ps3-elf/lib/libc.a(lib_a-strlen.o)
 .debug_ranges  0x0000000000001b10       0x30 /opt/ps3dev/ppu/lib/gcc/powerpc64-ps3-elf/4.7.0/../../../../powerpc64-ps3-elf/lib/libc.a(lib_a-wbuf.o)
 .debug_ranges  0x0000000000001b40       0x30 /opt/ps3dev/ppu/lib/gcc/powerpc64-ps3-elf/4.7.0/../../../../powerpc64-ps3-elf/lib/libc.a(lib_a-wcrtomb.o)
 .debug_ranges  0x0000000000001b70       0x30 /opt/ps3dev/ppu/lib/gcc/powerpc64-ps3-elf/4.7.0/../../../../powerpc64-ps3-elf/lib/libc.a(lib_a-wctomb_r.o)
 .debug_ranges  0x0000000000001ba0       0x80 /opt/ps3dev/ppu/lib/gcc/powerpc64-ps3-elf/4.7.0/../../../../powerpc64-ps3-elf/lib/libc.a(lib_a-callocr.o)
 .debug_ranges  0x0000000000001c20       0x30 /opt/ps3dev/ppu/lib/gcc/powerpc64-ps3-elf/4.7.0/../../../../powerpc64-ps3-elf/lib/libc.a(lib_a-fclose.o)
 .debug_ranges  0x0000000000001c50       0x30 /opt/ps3dev/ppu/lib/gcc/powerpc64-ps3-elf/4.7.0/../../../../powerpc64-ps3-elf/lib/libc.a(lib_a-lock_internal.o)
 .debug_ranges  0x0000000000001c80       0x20 /opt/ps3dev/ppu/lib/gcc/powerpc64-ps3-elf/4.7.0/../../../../powerpc64-ps3-elf/lib/libsysbase.a(close.o)
 .debug_ranges  0x0000000000001ca0       0x20 /opt/ps3dev/ppu/lib/gcc/powerpc64-ps3-elf/4.7.0/../../../../powerpc64-ps3-elf/lib/libsysbase.a(sbrk.o)
 .debug_ranges  0x0000000000001cc0       0x20 /opt/ps3dev/ppu/lib/gcc/powerpc64-ps3-elf/4.7.0/../../../../powerpc64-ps3-elf/lib/libsysbase.a(_exit.o)
 .debug_ranges  0x0000000000001ce0       0x20 /opt/ps3dev/ppu/lib/gcc/powerpc64-ps3-elf/4.7.0/../../../../powerpc64-ps3-elf/lib/libsysbase.a(fstat.o)
 .debug_ranges  0x0000000000001d00       0x20 /opt/ps3dev/ppu/lib/gcc/powerpc64-ps3-elf/4.7.0/../../../../powerpc64-ps3-elf/lib/libsysbase.a(isatty.o)
 .debug_ranges  0x0000000000001d20       0x20 /opt/ps3dev/ppu/lib/gcc/powerpc64-ps3-elf/4.7.0/../../../../powerpc64-ps3-elf/lib/libsysbase.a(lseek.o)
 .debug_ranges  0x0000000000001d40       0x20 /opt/ps3dev/ppu/lib/gcc/powerpc64-ps3-elf/4.7.0/../../../../powerpc64-ps3-elf/lib/libsysbase.a(read.o)
 .debug_ranges  0x0000000000001d60       0x20 /opt/ps3dev/ppu/lib/gcc/powerpc64-ps3-elf/4.7.0/../../../../powerpc64-ps3-elf/lib/libsysbase.a(write.o)
 .debug_ranges  0x0000000000001d80       0x60 /opt/ps3dev/ppu/lib/gcc/powerpc64-ps3-elf/4.7.0/../../../../powerpc64-ps3-elf/lib/libsysbase.a(lock.o)
 .debug_ranges  0x0000000000001de0       0x20 /opt/ps3dev/ppu/lib/gcc/powerpc64-ps3-elf/4.7.0/../../../../powerpc64-ps3-elf/lib/libsysbase.a(getpid.o)
 .debug_ranges  0x0000000000001e00       0x20 /opt/ps3dev/ppu/lib/gcc/powerpc64-ps3-elf/4.7.0/../../../../powerpc64-ps3-elf/lib/libsysbase.a(kill.o)
 .debug_ranges  0x0000000000001e20       0x30 /opt/ps3dev/ppu/lib/gcc/powerpc64-ps3-elf/4.7.0/../../../../powerpc64-ps3-elf/lib/libc.a(lib_a-sscanf.o)
 .debug_ranges  0x0000000000001e50       0x20 /opt/ps3dev/ppu/lib/gcc/powerpc64-ps3-elf/4.7.0/../../../../powerpc64-ps3-elf/lib/libc.a(lib_a-strncpy.o)
 .debug_ranges  0x0000000000001e70      0x3c0 /opt/ps3dev/ppu/lib/gcc/powerpc64-ps3-elf/4.7.0/../../../../powerpc64-ps3-elf/lib/libc.a(lib_a-svfscanf.o)
 .debug_ranges  0x0000000000002230       0x20 /opt/ps3dev/ppu/lib/gcc/powerpc64-ps3-elf/4.7.0/../../../../powerpc64-ps3-elf/lib/libc.a(lib_a-iswspace.o)
 .debug_ranges  0x0000000000002250       0x30 /opt/ps3dev/ppu/lib/gcc/powerpc64-ps3-elf/4.7.0/../../../../powerpc64-ps3-elf/lib/libc.a(lib_a-mbrtowc.o)
 .debug_ranges  0x0000000000002280       0x30 /opt/ps3dev/ppu/lib/gcc/powerpc64-ps3-elf/4.7.0/../../../../powerpc64-ps3-elf/lib/libc.a(lib_a-mbtowc_r.o)
 .debug_ranges  0x00000000000022b0       0x20 /opt/ps3dev/ppu/lib/gcc/powerpc64-ps3-elf/4.7.0/../../../../powerpc64-ps3-elf/lib/libc.a(lib_a-sccl.o)
 .debug_ranges  0x00000000000022d0       0x20 /opt/ps3dev/ppu/lib/gcc/powerpc64-ps3-elf/4.7.0/../../../../powerpc64-ps3-elf/lib/libc.a(lib_a-sf_nan.o)
 .debug_ranges  0x00000000000022f0       0x30 /opt/ps3dev/ppu/lib/gcc/powerpc64-ps3-elf/4.7.0/../../../../powerpc64-ps3-elf/lib/libc.a(lib_a-sprintf.o)
 .debug_ranges  0x0000000000002320      0x1f0 /opt/ps3dev/ppu/lib/gcc/powerpc64-ps3-elf/4.7.0/../../../../powerpc64-ps3-elf/lib/libc.a(lib_a-strtod.o)
 .debug_ranges  0x0000000000002510       0x20 /opt/ps3dev/ppu/lib/gcc/powerpc64-ps3-elf/4.7.0/../../../../powerpc64-ps3-elf/lib/libc.a(lib_a-strtoll_r.o)
 .debug_ranges  0x0000000000002530       0x30 /opt/ps3dev/ppu/lib/gcc/powerpc64-ps3-elf/4.7.0/../../../../powerpc64-ps3-elf/lib/libc.a(lib_a-strtol.o)
 .debug_ranges  0x0000000000002560       0x20 /opt/ps3dev/ppu/lib/gcc/powerpc64-ps3-elf/4.7.0/../../../../powerpc64-ps3-elf/lib/libc.a(lib_a-strtoull_r.o)
 .debug_ranges  0x0000000000002580       0x30 /opt/ps3dev/ppu/lib/gcc/powerpc64-ps3-elf/4.7.0/../../../../powerpc64-ps3-elf/lib/libc.a(lib_a-strtoul.o)
 .debug_ranges  0x00000000000025b0      0x1c0 /opt/ps3dev/ppu/lib/gcc/powerpc64-ps3-elf/4.7.0/../../../../powerpc64-ps3-elf/lib/libc.a(lib_a-svfiscanf.o)
 .debug_ranges  0x0000000000002770      0x3b0 /opt/ps3dev/ppu/lib/gcc/powerpc64-ps3-elf/4.7.0/../../../../powerpc64-ps3-elf/lib/libc.a(lib_a-svfprintf.o)
 .debug_ranges  0x0000000000002b20       0x40 /opt/ps3dev/ppu/lib/gcc/powerpc64-ps3-elf/4.7.0/../../../../powerpc64-ps3-elf/lib/libc.a(lib_a-ungetc.o)
 .debug_ranges  0x0000000000002b60       0xc0 /opt/ps3dev/ppu/lib/gcc/powerpc64-ps3-elf/4.7.0/../../../../powerpc64-ps3-elf/lib/libc.a(lib_a-gdtoa-gethex.o)
 .debug_ranges  0x0000000000002c20       0x20 /opt/ps3dev/ppu/lib/gcc/powerpc64-ps3-elf/4.7.0/../../../../powerpc64-ps3-elf/lib/libc.a(lib_a-gdtoa-hexnan.o)
 .debug_ranges  0x0000000000002c40       0x20 /opt/ps3dev/ppu/lib/gcc/powerpc64-ps3-elf/4.7.0/../../../../powerpc64-ps3-elf/lib/libc.a(lib_a-strncmp.o)
 .debug_ranges  0x0000000000002c60       0xe0 /opt/ps3dev/ppu/lib/gcc/powerpc64-ps3-elf/4.7.0/../../../../powerpc64-ps3-elf/lib/libc.a(lib_a-svfiprintf.o)

.gnu.attributes
 *(.gnu.attributes)

/DISCARD/
 *(.note.GNU-stack)
 *(.gnu_debuglink)
LOAD /opt/ps3dev/ppu/lib/gcc/powerpc64-ps3-elf/4.7.0/../../../../powerpc64-ps3-elf/lib/lv2-crti.o
LOAD /opt/ps3dev/ppu/lib/gcc/powerpc64-ps3-elf/4.7.0/crtbegin.o
LOAD /opt/ps3dev/ppu/lib/gcc/powerpc64-ps3-elf/4.7.0/../../../../powerpc64-ps3-elf/lib/lv2-crt0.o
LOAD /opt/ps3dev/ppu/lib/gcc/powerpc64-ps3-elf/4.7.0/../../../../powerpc64-ps3-elf/lib/lv2-sprx.o
LOAD ghost1_png.bin.o
LOAD ghost2_png.bin.o
LOAD ghost3_png.bin.o
LOAD ghost4_png.bin.o
LOAD ghost5_png.bin.o
LOAD ghost6_png.bin.o
LOAD ghost7_png.bin.o
LOAD ghost8_png.bin.o
LOAD main.o
LOAD /opt/ps3dev/psl1ght/ppu/lib/libtiny3d.a
LOAD /opt/ps3dev/psl1ght/ppu/lib/libsysmodule.a
LOAD /opt/ps3dev/psl1ght/ppu/lib/libgcm_sys.a
LOAD /opt/ps3dev/psl1ght/ppu/lib/librsx.a
LOAD /opt/ps3dev/psl1ght/ppu/lib/libsysutil.a
LOAD /opt/ps3dev/psl1ght/ppu/lib/libio.a
LOAD /opt/ps3dev/psl1ght/ppu/lib/libpngdec.a
LOAD /opt/ps3dev/psl1ght/ppu/lib/libsysmodule.a
LOAD /opt/ps3dev/ppu/lib/gcc/powerpc64-ps3-elf/4.7.0/../../../../powerpc64-ps3-elf/lib/libm.a
LOAD /opt/ps3dev/ppu/lib/gcc/powerpc64-ps3-elf/4.7.0/libgcc.a
START GROUP
LOAD /opt/ps3dev/ppu/lib/gcc/powerpc64-ps3-elf/4.7.0/../../../../powerpc64-ps3-elf/lib/libsysbase.a
LOAD /opt/ps3dev/ppu/lib/gcc/powerpc64-ps3-elf/4.7.0/../../../../powerpc64-ps3-elf/lib/libc.a
LOAD /opt/ps3dev/psl1ght/ppu/lib/librt.a
LOAD /opt/ps3dev/psl1ght/ppu/lib/liblv2.a
END GROUP
LOAD /opt/ps3dev/ppu/lib/gcc/powerpc64-ps3-elf/4.7.0/libgcc.a
LOAD /opt/ps3dev/ppu/lib/gcc/powerpc64-ps3-elf/4.7.0/crtend.o
LOAD /opt/ps3dev/ppu/lib/gcc/powerpc64-ps3-elf/4.7.0/../../../../powerpc64-ps3-elf/lib/lv2-crtn.o
OUTPUT(/home/xerpi/Escritorio/tiny3d-psl1ght_v2/samples/sprites2D/sprites2D.elf elf64-powerpc)
